(lp1
(lp2
F24.75
aF24.75
aF24.75
aF24.75
aF24.75
aI1680800
aa(lp3
F22.5
aF22.5
aF22.5
aF22.5
aF22.5
aI982800
aa(lp4
F20.449999999999999
aF20.449999999999999
aF20.449999999999999
aF20.449999999999999
aF20.449999999999999
aI1738900
aa(lp5
F18.59
aF18.59
aF18.59
aF18.59
aF18.59
aI626800
aa(lp6
F16.899999999999999
aF16.899999999999999
aF16.899999999999999
aF16.899999999999999
aF16.899999999999999
aI705300
aa(lp7
F15.359999999999999
aF15.359999999999999
aF15.359999999999999
aF15.359999999999999
aF15.359999999999999
aI1127800
aa(lp8
F13.960000000000001
aF13.960000000000001
aF13.960000000000001
aF13.960000000000001
aF13.960000000000001
aI1513300
aa(lp9
F12.69
aF12.69
aF12.69
aF12.69
aF12.69
aI619500
aa(lp10
F11.539999999999999
aF11.539999999999999
aF11.539999999999999
aF11.539999999999999
aF11.539999999999999
aI415100
aa(lp11
F10.49
aF10.49
aF10.49
aF10.49
aF10.49
aI139000
aa(lp12
F9.5399999999999991
aF9.5399999999999991
aF9.5399999999999991
aF9.5399999999999991
aF9.5399999999999991
aI0
aa(lp13
F9.5399999999999991
aF9.5399999999999991
aF9.5399999999999991
aF9.5399999999999991
aF9.5399999999999991
aI90300
aa(lp14
F8.6699999999999999
aF8.6699999999999999
aF8.6699999999999999
aF8.6699999999999999
aF8.6699999999999999
aI93900
aa(lp15
F6.5599999999999996
aF7.8799999999999999
aF6.5599999999999996
aF7.8799999999999999
aF7.8799999999999999
aI251700
aa.