(lp1
(lp2
F120.01000000000001
aF133.06999999999999
aF126.69
aF129.31
aF129.31
aI4727200
aa(lp3
F122.65000000000001
aF134.19999999999999
aF122.65000000000001
aF129.34
aF129.34
aI3441200
aa(lp4
F111
aF126
aF114.5
aF122.23999999999999
aF122.23999999999999
aI3868100
aa(lp5
F106.59999999999999
aF118.48999999999999
aF108.40000000000001
aF115.86
aF115.86
aI4536100
aa(lp6
F104.44
aF109.68000000000001
aF105.98999999999999
aF108.38
aF108.38
aI2307500
aa(lp7
F102.90000000000001
aF106.88
aF102.98999999999999
aF104.44
aF104.44
aI2294400
aa(lp8
F100.09
aF108.2
aF106.81
aF101.16
aF101.16
aI1876100
aa(lp9
F104
aF111.8
aF106.55
aF107.81999999999999
aF107.81999999999999
aI1941100
aa(lp10
F105
aF114.8
aF114.01000000000001
aF106.27
aF106.27
aI2198200
aa(lp11
F108.75
aF117.27
aF111
aF114.63
aF114.63
aI1763300
aa(lp12
F112.87
aF112.87
aF112.87
aF112.87
aF112.87
aI0
aa(lp13
F110.48
aF118.8
aF110.59
aF112.87
aF112.87
aI2209000
aa(lp14
F106
aF114.44
aF106.48999999999999
aF111.84999999999999
aF111.84999999999999
aI1883900
aa(lp15
F106.3
aF116
aF112.06
aF108.5
aF108.5
aI2863300
aa(lp16
F106.05
aF118.94
aF107
aF113.16
aF113.16
aI3829000
aa(lp17
F99.799999999999997
aF110.8
aF102.08
aF108.13
aF108.13
aI3750200
aa(lp18
F100.51000000000001
aF106.5
aF104.25
aF104
aF104
aI3795600
aa(lp19
F101
aF107
aF104.34999999999999
aF103.84
aF103.84
aI4197500
aa(lp20
F98
aF104.36
aF98.329999999999998
aF103.75
aF103.75
aI5711900
aa(lp21
F94.219999999999999
aF105
aF96.329999999999998
aF98.480000000000004
aF98.480000000000004
aI5381100
aa(lp22
F86.599999999999994
aF98.590000000000003
aF91
aF98.590000000000003
aF98.590000000000003
aI6998100
aa(lp23
F84.859999999999999
aF91.920000000000002
aF89.5
aF89.629999999999995
aF89.629999999999995
aI6358400
aa(lp24
F88.299999999999997
aF94
aF94
aF91.129999999999995
aF91.129999999999995
aI4640600
aa(lp25
F93.260000000000005
aF102
aF97.829999999999998
aF95.420000000000002
aF95.420000000000002
aI4528700
aa(lp26
F95.129999999999995
aF100.93000000000001
aF97.599999999999994
aF98.980000000000004
aF98.980000000000004
aI2587600
aa(lp27
F93
aF103
aF98.400000000000006
aF97.590000000000003
aF97.590000000000003
aI6090100
aa(lp28
F87.870000000000005
aF99.609999999999999
aF89.189999999999998
aF99.609999999999999
aF99.609999999999999
aI7295200
aa(lp29
F86.010000000000005
aF91.560000000000002
aF88.599999999999994
aF90.549999999999997
aF90.549999999999997
aI6869000
aa(lp30
F83.370000000000005
aF89.549999999999997
aF85.150000000000006
aF87.75
aF87.75
aI9059500
aa(lp31
F85.319999999999993
aF85.319999999999993
aF85.319999999999993
aF85.319999999999993
aF85.319999999999993
aI0
aa(lp32
F83.920000000000002
aF87.459999999999994
aF86.260000000000005
aF85.319999999999993
aF85.319999999999993
aI5011200
aa(lp33
F86
aF88.079999999999998
aF88.030000000000001
aF86.620000000000005
aF86.620000000000005
aI3844000
aa(lp34
F87
aF90.900000000000006
aF87.980000000000004
aF88.769999999999996
aF88.769999999999996
aI2893500
aa(lp35
F86.230000000000004
aF88.5
aF87
aF87.030000000000001
aF87.030000000000001
aI1877300
aa(lp36
F85.599999999999994
aF88.5
aF86.040000000000006
aF87.510000000000005
aF87.510000000000005
aI3689300
aa(lp37
F85.799999999999997
aF89.200000000000003
aF88.049999999999997
aF86.180000000000007
aF86.180000000000007
aI2612500
aa(lp38
F86.659999999999997
aF91
aF88.299999999999997
aF87.829999999999998
aF87.829999999999998
aI3237500
aa(lp39
F88
aF90.189999999999998
aF90
aF89.359999999999999
aF89.359999999999999
aI5131200
aa(lp40
F89.379999999999995
aF93.680000000000007
aF91.310000000000002
aF92.280000000000001
aF92.280000000000001
aI6741000
aa(lp41
F86
aF95.920000000000002
aF87.200000000000003
aF95.920000000000002
aF95.920000000000002
aI5590700
aa(lp42
F84.180000000000007
aF87.260000000000005
aF86
aF87.200000000000003
aF87.200000000000003
aI3016200
aa(lp43
F85.549999999999997
aF87.879999999999995
aF87.799999999999997
aF86.370000000000005
aF86.370000000000005
aI4266800
aa(lp44
F86.430000000000007
aF91.799999999999997
aF91.5
aF89.640000000000001
aF89.640000000000001
aI5745000
aa(lp45
F86
aF95.879999999999995
aF87.980000000000004
aF91.109999999999999
aF91.109999999999999
aI6635600
aa(lp46
F82.5
aF90.950000000000003
aF85.900000000000006
aF88.640000000000001
aF88.640000000000001
aI6257700
aa(lp47
F82.109999999999999
aF86.700000000000003
aF82.980000000000004
aF84.269999999999996
aF84.269999999999996
aI3258100
aa(lp48
F78.530000000000001
aF85.879999999999995
aF84
aF81.349999999999994
aF81.349999999999994
aI4513300
aa(lp49
F81
aF86.959999999999994
aF81.810000000000002
aF86.299999999999997
aF86.299999999999997
aI7385800
aa(lp50
F72.209999999999994
aF79.049999999999997
aF72.209999999999994
aF79.049999999999997
aF79.049999999999997
aI3831800
aa(lp51
F66.530000000000001
aF74.659999999999997
aF68.150000000000006
aF71.859999999999999
aF71.859999999999999
aI5985400
aa(lp52
F67.450000000000003
aF71.650000000000006
aF71.650000000000006
aF68.030000000000001
aF68.030000000000001
aI5980900
aa(lp53
F68.579999999999998
aF74.200000000000003
aF69.209999999999994
aF71.650000000000006
aF71.650000000000006
aI5714600
aa(lp54
F66.260000000000005
aF69.189999999999998
aF67.469999999999999
aF69.069999999999993
aF69.069999999999993
aI4629600
aa(lp55
F67.040000000000006
aF69.579999999999998
aF69.579999999999998
aF67.400000000000006
aF67.400000000000006
aI5067200
aa(lp56
F68.200000000000003
aF70.489999999999995
aF69.319999999999993
aF69.359999999999999
aF69.359999999999999
aI4313700
aa(lp57
F69
aF71.489999999999995
aF70.5
aF70.019999999999996
aF70.019999999999996
aI4377900
aa(lp58
F69.25
aF72.700000000000003
aF71.5
aF70.159999999999997
aF70.159999999999997
aI3930000
aa(lp59
F68.299999999999997
aF73.879999999999995
aF72.799999999999997
aF72.969999999999999
aF72.969999999999999
aI6107700
aa(lp60
F74.180000000000007
aF74.180000000000007
aF74.180000000000007
aF74.180000000000007
aF74.180000000000007
aI0
aa(lp61
F74.180000000000007
aF74.180000000000007
aF74.180000000000007
aF74.180000000000007
aF74.180000000000007
aI0
aa(lp62
F74.180000000000007
aF74.180000000000007
aF74.180000000000007
aF74.180000000000007
aF74.180000000000007
aI0
aa(lp63
F74.180000000000007
aF74.180000000000007
aF74.180000000000007
aF74.180000000000007
aF74.180000000000007
aI0
aa(lp64
F74.180000000000007
aF74.180000000000007
aF74.180000000000007
aF74.180000000000007
aF74.180000000000007
aI0
aa(lp65
F72.299999999999997
aF76.989999999999995
aF74.099999999999994
aF74.180000000000007
aF74.180000000000007
aI5605400
aa(lp66
F71.989999999999995
aF75.200000000000003
aF72.590000000000003
aF73.790000000000006
aF73.790000000000006
aI4878500
aa(lp67
F70.609999999999999
aF75.840000000000003
aF74.5
aF73.379999999999995
aF73.379999999999995
aI12740100
aa(lp68
F64.799999999999997
aF72.959999999999994
aF65.900000000000006
aF72.959999999999994
aF72.959999999999994
aI13387600
aa(lp69
F62.009999999999998
aF69.060000000000002
aF62.509999999999998
aF66.329999999999998
aF66.329999999999998
aI12596600
aa(lp70
F58.799999999999997
aF63.600000000000001
aF61.5
aF63.159999999999997
aF63.159999999999997
aI10852400
aa(lp71
F60.450000000000003
aF64.629999999999995
aF61.600000000000001
aF61.770000000000003
aF61.770000000000003
aI10748300
aa(lp72
F61.280000000000001
aF66.5
aF64
aF62.960000000000001
aF62.960000000000001
aI22612100
aa(lp73
F61.329999999999998
aF65.700000000000003
aF62.299999999999997
aF65.700000000000003
aF65.700000000000003
aI30368700
aa(lp74
F59.100000000000001
aF66.939999999999998
aF64.799999999999997
aF59.729999999999997
aF59.729999999999997
aI39018100
aa(lp75
F57.520000000000003
aF61.68
aF58
aF61.68
aF61.68
aI23072200
aa(lp76
F50.969999999999999
aF56.07
aF51.979999999999997
aF56.07
aF56.07
aI61903100
aa(lp77
F50.969999999999999
aF50.969999999999999
aF50.969999999999999
aF50.969999999999999
aF50.969999999999999
aI15543000
aa(lp78
F46.340000000000003
aF46.340000000000003
aF46.340000000000003
aF46.340000000000003
aF46.340000000000003
aI3191200
aa(lp79
F42.130000000000003
aF42.130000000000003
aF42.130000000000003
aF42.130000000000003
aF42.130000000000003
aI2574000
aa(lp80
F38.299999999999997
aF38.299999999999997
aF38.299999999999997
aF38.299999999999997
aF38.299999999999997
aI1351600
aa(lp81
F34.82
aF34.82
aF34.82
aF34.82
aF34.82
aI454100
aa(lp82
F31.649999999999999
aF31.649999999999999
aF31.649999999999999
aF31.649999999999999
aF31.649999999999999
aI158500
aa(lp83
F28.77
aF28.77
aF28.77
aF28.77
aF28.77
aI60400
aa(lp84
F21.789999999999999
aF26.149999999999999
aF21.789999999999999
aF26.149999999999999
aF26.149999999999999
aI170100
aa.