(lp1
(lp2
F12.390000000000001
aF13
aF13
aF12.49
aF12.49
aI13235900
aa(lp3
F12.619999999999999
aF13.029999999999999
aF12.869999999999999
aF12.949999999999999
aF12.949999999999999
aI15217000
aa(lp4
F12.699999999999999
aF13.08
aF12.890000000000001
aF12.869999999999999
aF12.869999999999999
aI16113200
aa(lp5
F12.619999999999999
aF13.15
aF12.83
aF13.07
aF13.07
aI29724000
aa(lp6
F11.609999999999999
aF12.68
aF11.710000000000001
aF12.68
aF12.68
aI26301600
aa(lp7
F11.23
aF11.699999999999999
aF11.51
aF11.529999999999999
aF11.529999999999999
aI10773100
aa(lp8
F11.300000000000001
aF12.15
aF12.109999999999999
aF11.390000000000001
aF11.390000000000001
aI9852300
aa(lp9
F11.74
aF12.58
aF11.74
aF12.06
aF12.06
aI24359100
aa(lp10
F11.6
aF12.1
aF12
aF11.76
aF11.76
aI10305300
aa(lp11
F11.48
aF12.09
aF11.949999999999999
aF12.08
aF12.08
aI8252100
aa(lp12
F11.859999999999999
aF11.859999999999999
aF11.859999999999999
aF11.859999999999999
aF11.859999999999999
aI0
aa(lp13
F11.68
aF12.19
aF11.720000000000001
aF11.859999999999999
aF11.859999999999999
aI11730500
aa(lp14
F11.48
aF11.76
aF11.550000000000001
aF11.73
aF11.73
aI7178600
aa(lp15
F11.41
aF12.02
aF11.91
aF11.6
aF11.6
aI12810700
aa(lp16
F11.85
aF12.300000000000001
aF12.15
aF11.99
aF11.99
aI14290400
aa(lp17
F11.859999999999999
aF12.300000000000001
aF11.99
aF12.039999999999999
aF12.039999999999999
aI13325100
aa(lp18
F12.1
aF12.460000000000001
aF12.460000000000001
aF12.210000000000001
aF12.210000000000001
aI16754500
aa(lp19
F11.9
aF12.390000000000001
aF11.9
aF12.32
aF12.32
aI22227700
aa(lp20
F11.359999999999999
aF11.91
aF11.359999999999999
aF11.869999999999999
aF11.869999999999999
aI17370800
aa(lp21
F11.039999999999999
aF11.970000000000001
aF11.07
aF11.550000000000001
aF11.550000000000001
aI24503700
aa(lp22
F11.17
aF11.449999999999999
aF11.23
aF11.220000000000001
aF11.220000000000001
aI11382400
aa(lp23
F10.75
aF11.43
aF11.039999999999999
aF11.24
aF11.24
aI10788400
aa(lp24
F11.08
aF12.08
aF12.050000000000001
aF11.15
aF11.15
aI13339800
aa(lp25
F11.75
aF12.1
aF11.91
aF11.99
aF11.99
aI13043300
aa(lp26
F11.699999999999999
aF12.109999999999999
aF11.92
aF11.98
aF11.98
aI16416200
aa(lp27
F11.51
aF12.01
aF11.76
aF11.859999999999999
aF11.859999999999999
aI23273300
aa(lp28
F11.5
aF12.19
aF11.949999999999999
aF11.880000000000001
aF11.880000000000001
aI14357000
aa(lp29
F11.300000000000001
aF12.25
aF11.75
aF12.19
aF12.19
aI13717200
aa(lp30
F11.369999999999999
aF11.699999999999999
aF11.369999999999999
aF11.58
aF11.58
aI11365300
aa(lp31
F11.359999999999999
aF11.359999999999999
aF11.359999999999999
aF11.359999999999999
aF11.359999999999999
aI0
aa(lp32
F10.85
aF11.41
aF10.960000000000001
aF11.359999999999999
aF11.359999999999999
aI9937600
aa(lp33
F10.630000000000001
aF11.1
aF10.640000000000001
aF11.039999999999999
aF11.039999999999999
aI11800000
aa(lp34
F10.35
aF10.69
aF10.42
aF10.67
aF10.67
aI8114800
aa(lp35
F10.449999999999999
aF10.75
aF10.75
aF10.460000000000001
aF10.460000000000001
aI9297300
aa(lp36
F10.51
aF10.84
aF10.58
aF10.75
aF10.75
aI7430400
aa(lp37
F10.42
aF10.75
aF10.640000000000001
aF10.58
aF10.58
aI7444100
aa(lp38
F10.5
aF11.08
aF10.710000000000001
aF10.640000000000001
aF10.640000000000001
aI9923100
aa(lp39
F10.43
aF10.69
aF10.619999999999999
aF10.640000000000001
aF10.640000000000001
aI7954400
aa(lp40
F10.279999999999999
aF10.869999999999999
aF10.35
aF10.640000000000001
aF10.640000000000001
aI13900900
aa(lp41
F10.25
aF10.460000000000001
aF10.289999999999999
aF10.35
aF10.35
aI8968400
aa(lp42
F10.18
aF10.380000000000001
aF10.199999999999999
aF10.26
aF10.26
aI6245200
aa(lp43
F10.16
aF10.550000000000001
aF10.210000000000001
aF10.26
aF10.26
aI11082300
aa(lp44
F10.01
aF10.210000000000001
aF10.1
aF10.16
aF10.16
aI7820400
aa(lp45
F9.9499999999999993
aF10.289999999999999
aF10.26
aF10.09
aF10.09
aI10887600
aa(lp46
F9.5500000000000007
aF10.26
aF9.5500000000000007
aF10.15
aF10.15
aI14051600
aa(lp47
F9.4299999999999997
aF9.5399999999999991
aF9.5
aF9.5
aF9.5
aI4336400
aa(lp48
F9.3699999999999992
aF9.5800000000000001
aF9.4800000000000004
aF9.4800000000000004
aF9.4800000000000004
aI6614200
aa(lp49
F9.1500000000000004
aF9.5199999999999996
aF9.2200000000000006
aF9.4499999999999993
aF9.4499999999999993
aI10055200
aa(lp50
F9.2100000000000009
aF9.4199999999999999
aF9.2799999999999994
aF9.2400000000000002
aF9.2400000000000002
aI6423600
aa(lp51
F9.0299999999999994
aF9.3499999999999996
aF9.1600000000000001
aF9.3100000000000005
aF9.3100000000000005
aI5975500
aa(lp52
F9.0999999999999996
aF9.3399999999999999
aF9.2799999999999994
aF9.1600000000000001
aF9.1600000000000001
aI5114800
aa(lp53
F9.0299999999999994
aF9.2799999999999994
aF9.0500000000000007
aF9.2699999999999996
aF9.2699999999999996
aI7716000
aa(lp54
F8.8800000000000008
aF9.0899999999999999
aF8.8900000000000006
aF9.0899999999999999
aF9.0899999999999999
aI4714900
aa(lp55
F8.8900000000000006
aF9.1300000000000008
aF9.0099999999999998
aF8.9000000000000004
aF8.9000000000000004
aI5495000
aa(lp56
F8.9199999999999999
aF9.0299999999999994
aF8.9900000000000002
aF9.0099999999999998
aF9.0099999999999998
aI5196500
aa(lp57
F8.7799999999999994
aF8.9399999999999995
aF8.8100000000000005
aF8.9399999999999995
aF8.9399999999999995
aI4083800
aa(lp58
F8.7200000000000006
aF8.8200000000000003
aF8.7699999999999996
aF8.8100000000000005
aF8.8100000000000005
aI3270700
aa(lp59
F8.6699999999999999
aF8.8000000000000007
aF8.8000000000000007
aF8.75
aF8.75
aI2266600
aa(lp60
F8.7400000000000002
aF8.7400000000000002
aF8.7400000000000002
aF8.7400000000000002
aF8.7400000000000002
aI0
aa(lp61
F8.7400000000000002
aF8.7400000000000002
aF8.7400000000000002
aF8.7400000000000002
aF8.7400000000000002
aI0
aa(lp62
F8.7400000000000002
aF8.7400000000000002
aF8.7400000000000002
aF8.7400000000000002
aF8.7400000000000002
aI0
aa(lp63
F8.7400000000000002
aF8.7400000000000002
aF8.7400000000000002
aF8.7400000000000002
aF8.7400000000000002
aI0
aa(lp64
F8.7400000000000002
aF8.7400000000000002
aF8.7400000000000002
aF8.7400000000000002
aF8.7400000000000002
aI0
aa(lp65
F8.6799999999999997
aF8.7699999999999996
aF8.7100000000000009
aF8.7400000000000002
aF8.7400000000000002
aI2482900
aa(lp66
F8.5099999999999998
aF8.7200000000000006
aF8.5800000000000001
aF8.6999999999999993
aF8.6999999999999993
aI2977600
aa(lp67
F8.5
aF8.6199999999999992
aF8.5
aF8.5700000000000003
aF8.5700000000000003
aI2777500
aa(lp68
F8.4299999999999997
aF8.5099999999999998
aF8.4299999999999997
aF8.4700000000000006
aF8.4700000000000006
aI2050600
aa(lp69
F8.3800000000000008
aF8.4600000000000009
aF8.4000000000000004
aF8.4499999999999993
aF8.4499999999999993
aI2064500
aa(lp70
F8.2899999999999991
aF8.4100000000000001
aF8.3300000000000001
aF8.4000000000000004
aF8.4000000000000004
aI2044300
aa(lp71
F8.2400000000000002
aF8.3800000000000008
aF8.3200000000000003
aF8.3000000000000007
aF8.3000000000000007
aI1986200
aa(lp72
F8.2699999999999996
aF8.6500000000000004
aF8.5999999999999996
aF8.3300000000000001
aF8.3300000000000001
aI4004900
aa(lp73
F8.6400000000000006
aF8.8699999999999992
aF8.8499999999999996
aF8.6500000000000004
aF8.6500000000000004
aI3755200
aa(lp74
F8.7300000000000004
aF8.8800000000000008
aF8.8300000000000001
aF8.8100000000000005
aF8.8100000000000005
aI4017500
aa(lp75
F8.6999999999999993
aF8.8499999999999996
aF8.6999999999999993
aF8.8100000000000005
aF8.8100000000000005
aI5169700
aa(lp76
F8.5
aF8.7699999999999996
aF8.5800000000000001
aF8.7200000000000006
aF8.7200000000000006
aI3529800
aa(lp77
F8.6300000000000008
aF8.7599999999999998
aF8.6899999999999995
aF8.6400000000000006
aF8.6400000000000006
aI3078800
aa(lp78
F8.6400000000000006
aF8.7599999999999998
aF8.6400000000000006
aF8.6899999999999995
aF8.6899999999999995
aI2889400
aa(lp79
F8.7100000000000009
aF8.8300000000000001
aF8.7300000000000004
aF8.7899999999999991
aF8.7899999999999991
aI3932900
aa(lp80
F8.6400000000000006
aF8.8499999999999996
aF8.8000000000000007
aF8.7799999999999994
aF8.7799999999999994
aI5041600
aa(lp81
F8.5700000000000003
aF8.8000000000000007
aF8.6099999999999994
aF8.8000000000000007
aF8.8000000000000007
aI5222900
aa(lp82
F8.5700000000000003
aF8.7899999999999991
aF8.6999999999999993
aF8.6199999999999992
aF8.6199999999999992
aI5076900
aa(lp83
F8.5899999999999999
aF8.75
aF8.6500000000000004
aF8.7300000000000004
aF8.7300000000000004
aI4948200
aa(lp84
F8.4299999999999997
aF8.6799999999999997
aF8.4399999999999995
aF8.6600000000000001
aF8.6600000000000001
aI4729200
aa(lp85
F8.2899999999999991
aF8.4600000000000009
aF8.3100000000000005
aF8.4399999999999995
aF8.4399999999999995
aI4334100
aa(lp86
F8.1300000000000008
aF8.5999999999999996
aF8.5899999999999999
aF8.2599999999999998
aF8.2599999999999998
aI6370000
aa(lp87
F8.6600000000000001
aF8.8000000000000007
aF8.6600000000000001
aF8.7599999999999998
aF8.7599999999999998
aI3486100
aa(lp88
F8.5600000000000005
aF8.7100000000000009
aF8.5600000000000005
aF8.6899999999999995
aF8.6899999999999995
aI2409000
aa(lp89
F8.5299999999999994
aF8.8000000000000007
aF8.8000000000000007
aF8.5600000000000005
aF8.5600000000000005
aI3676500
aa(lp90
F8.6699999999999999
aF8.7899999999999991
aF8.6699999999999999
aF8.7599999999999998
aF8.7599999999999998
aI2778000
aa(lp91
F8.5999999999999996
aF8.9900000000000002
aF8.9199999999999999
aF8.6699999999999999
aF8.6699999999999999
aI6191100
aa(lp92
F8.9800000000000004
aF9.3000000000000007
aF9.1199999999999992
aF8.9900000000000002
aF8.9900000000000002
aI4788900
aa(lp93
F9.0999999999999996
aF9.4499999999999993
aF9.3599999999999994
aF9.1400000000000006
aF9.1400000000000006
aI7014100
aa(lp94
F9.2799999999999994
aF9.5299999999999994
aF9.5099999999999998
aF9.4600000000000009
aF9.4600000000000009
aI6993300
aa(lp95
F9.3499999999999996
aF9.6799999999999997
aF9.5999999999999996
aF9.5500000000000007
aF9.5500000000000007
aI9005700
aa(lp96
F9.2599999999999998
aF9.6899999999999995
aF9.3699999999999992
aF9.6600000000000001
aF9.6600000000000001
aI13217700
aa(lp97
F9.4399999999999995
aF9.4399999999999995
aF9.4399999999999995
aF9.4399999999999995
aF9.4399999999999995
aI0
aa(lp98
F9.4399999999999995
aF9.4399999999999995
aF9.4399999999999995
aF9.4399999999999995
aF9.4399999999999995
aI0
aa(lp99
F9.1600000000000001
aF9.6799999999999997
aF9.4499999999999993
aF9.4399999999999995
aF9.4399999999999995
aI9958400
aa(lp100
F9.3100000000000005
aF9.7200000000000006
aF9.5899999999999999
aF9.4000000000000004
aF9.4000000000000004
aI10654100
aa(lp101
F9.0099999999999998
aF9.8900000000000006
aF9.0700000000000003
aF9.6199999999999992
aF9.6199999999999992
aI20696300
aa(lp102
F9.0299999999999994
aF9.2699999999999996
aF9.1999999999999993
aF9.1300000000000008
aF9.1300000000000008
aI9409000
aa(lp103
F8.6600000000000001
aF9.2899999999999991
aF8.7599999999999998
aF9.2200000000000006
aF9.2200000000000006
aI11113600
aa(lp104
F8.4900000000000002
aF8.7300000000000004
aF8.5
aF8.7100000000000009
aF8.7100000000000009
aI3971800
aa(lp105
F8.4000000000000004
aF8.7899999999999991
aF8.6899999999999995
aF8.4900000000000002
aF8.4900000000000002
aI5640100
aa(lp106
F8.5
aF9.3000000000000007
aF9.2899999999999991
aF8.8300000000000001
aF8.8300000000000001
aI11809000
aa(lp107
F8.8399999999999999
aF9.3800000000000008
aF9.1500000000000004
aF9.3000000000000007
aF9.3000000000000007
aI16818400
aa(lp108
F8.7899999999999991
aF9.1400000000000006
aF8.8599999999999994
aF9.1099999999999994
aF9.1099999999999994
aI6826100
aa(lp109
F8.75
aF8.9600000000000009
aF8.9499999999999993
aF8.9000000000000004
aF8.9000000000000004
aI5602100
aa(lp110
F8.8200000000000003
aF8.9700000000000006
aF8.9600000000000009
aF8.9600000000000009
aF8.9600000000000009
aI6043500
aa(lp111
F8.75
aF8.9700000000000006
aF8.8000000000000007
aF8.9700000000000006
aF8.9700000000000006
aI6753000
aa(lp112
F8.6400000000000006
aF8.8000000000000007
aF8.6999999999999993
aF8.7899999999999991
aF8.7899999999999991
aI4855300
aa(lp113
F8.4700000000000006
aF8.7300000000000004
aF8.5500000000000007
aF8.6799999999999997
aF8.6799999999999997
aI5102000
aa(lp114
F8.3000000000000007
aF8.5800000000000001
aF8.3599999999999994
aF8.5399999999999991
aF8.5399999999999991
aI3836600
aa(lp115
F8.3200000000000003
aF8.7899999999999991
aF8.6999999999999993
aF8.3599999999999994
aF8.3599999999999994
aI8243900
aa(lp116
F8.5199999999999996
aF8.8399999999999999
aF8.5800000000000001
aF8.7300000000000004
aF8.7300000000000004
aI6467700
aa(lp117
F8.4800000000000004
aF9.1300000000000008
aF9.0999999999999996
aF8.6300000000000008
aF8.6300000000000008
aI8737400
aa(lp118
F8.9900000000000002
aF9.1500000000000004
aF9.0299999999999994
aF9.0899999999999999
aF9.0899999999999999
aI8515300
aa(lp119
F8.8300000000000001
aF9.0299999999999994
aF8.8599999999999994
aF9.0199999999999996
aF9.0199999999999996
aI8532300
aa(lp120
F8.7400000000000002
aF8.9499999999999993
aF8.7699999999999996
aF8.8599999999999994
aF8.8599999999999994
aI6152600
aa(lp121
F8.7300000000000004
aF8.9100000000000001
aF8.8499999999999996
aF8.7899999999999991
aF8.7899999999999991
aI4553900
aa(lp122
F8.7599999999999998
aF8.9199999999999999
aF8.9100000000000001
aF8.8399999999999999
aF8.8399999999999999
aI5129600
aa(lp123
F8.8300000000000001
aF9.0500000000000007
aF8.8800000000000008
aF8.9299999999999997
aF8.9299999999999997
aI5934600
aa(lp124
F8.7699999999999996
aF8.9800000000000004
aF8.9800000000000004
aF8.8800000000000008
aF8.8800000000000008
aI5520700
aa(lp125
F8.75
aF8.9800000000000004
aF8.8000000000000007
aF8.9499999999999993
aF8.9499999999999993
aI6096200
aa(lp126
F8.6199999999999992
aF8.8800000000000008
aF8.6500000000000004
aF8.8200000000000003
aF8.8200000000000003
aI6086200
aa(lp127
F8.5199999999999996
aF8.6899999999999995
aF8.5399999999999991
aF8.5700000000000003
aF8.5700000000000003
aI3879100
aa(lp128
F8.5
aF8.6300000000000008
aF8.5299999999999994
aF8.5399999999999991
aF8.5399999999999991
aI2151400
aa(lp129
F8.5199999999999996
aF8.6899999999999995
aF8.5199999999999996
aF8.5600000000000005
aF8.5600000000000005
aI3282000
aa(lp130
F8.4199999999999999
aF8.6400000000000006
aF8.4800000000000004
aF8.6199999999999992
aF8.6199999999999992
aI3609100
aa(lp131
F8.2400000000000002
aF8.5600000000000005
aF8.3399999999999999
aF8.4900000000000002
aF8.4900000000000002
aI3739300
aa(lp132
F8.2200000000000006
aF8.4000000000000004
aF8.3699999999999992
aF8.3100000000000005
aF8.3100000000000005
aI3318900
aa(lp133
F8.3699999999999992
aF8.6300000000000008
aF8.6300000000000008
aF8.4399999999999995
aF8.4399999999999995
aI3775500
aa(lp134
F8.4399999999999995
aF8.6699999999999999
aF8.4499999999999993
aF8.6400000000000006
aF8.6400000000000006
aI3094200
aa(lp135
F8.3900000000000006
aF8.9600000000000009
aF8.9000000000000004
aF8.4800000000000004
aF8.4800000000000004
aI6623700
aa(lp136
F8.7200000000000006
aF8.9399999999999995
aF8.8000000000000007
aF8.9199999999999999
aF8.9199999999999999
aI4330400
aa(lp137
F8.7699999999999996
aF8.9900000000000002
aF8.8200000000000003
aF8.8100000000000005
aF8.8100000000000005
aI7468500
aa(lp138
F8.6500000000000004
aF8.8399999999999999
aF8.7599999999999998
aF8.8399999999999999
aF8.8399999999999999
aI4008900
aa(lp139
F8.6600000000000001
aF8.8699999999999992
aF8.8000000000000007
aF8.8200000000000003
aF8.8200000000000003
aI4025900
aa(lp140
F8.7699999999999996
aF8.9499999999999993
aF8.9399999999999995
aF8.7899999999999991
aF8.7899999999999991
aI5123400
aa(lp141
F8.8000000000000007
aF8.9700000000000006
aF8.8599999999999994
aF8.9499999999999993
aF8.9499999999999993
aI7454000
aa(lp142
F8.7300000000000004
aF9.0700000000000003
aF8.9800000000000004
aF8.8399999999999999
aF8.8399999999999999
aI9676000
aa(lp143
F8.9800000000000004
aF9.4700000000000006
aF9.1999999999999993
aF9.0399999999999991
aF9.0399999999999991
aI15968300
aa(lp144
F9.0500000000000007
aF9.5600000000000005
aF9.1999999999999993
aF9.3499999999999996
aF9.3499999999999996
aI21186800
aa(lp145
F8.3699999999999992
aF9.1799999999999997
aF8.3699999999999992
aF9.1300000000000008
aF9.1300000000000008
aI10296900
aa(lp146
F8.25
aF8.4299999999999997
aF8.2599999999999998
aF8.3699999999999992
aF8.3699999999999992
aI2146000
aa(lp147
F8.2599999999999998
aF8.4100000000000001
aF8.3000000000000007
aF8.3200000000000003
aF8.3200000000000003
aI3675800
aa(lp148
F8.2899999999999991
aF8.5899999999999999
aF8.5800000000000001
aF8.3399999999999999
aF8.3399999999999999
aI3984400
aa(lp149
F8.5600000000000005
aF8.9000000000000004
aF8.8900000000000006
aF8.5999999999999996
aF8.5999999999999996
aI3489200
aa(lp150
F8.7400000000000002
aF9.0299999999999994
aF9
aF8.8900000000000006
aF8.8900000000000006
aI3283500
aa(lp151
F8.6300000000000008
aF8.9299999999999997
aF8.6300000000000008
aF8.8699999999999992
aF8.8699999999999992
aI3966000
aa(lp152
F8.4800000000000004
aF8.9399999999999995
aF8.8499999999999996
aF8.6099999999999994
aF8.6099999999999994
aI5129700
aa(lp153
F8.8699999999999992
aF9.1199999999999992
aF8.9900000000000002
aF8.8800000000000008
aF8.8800000000000008
aI3594100
aa(lp154
F8.8599999999999994
aF9.1400000000000006
aF9.0600000000000005
aF9.1099999999999994
aF9.1099999999999994
aI3939700
aa(lp155
F9.0199999999999996
aF9.2899999999999991
aF9.25
aF9.0600000000000005
aF9.0600000000000005
aI4371900
aa(lp156
F9.0999999999999996
aF9.3699999999999992
aF9.3000000000000007
aF9.2300000000000004
aF9.2300000000000004
aI4842500
aa(lp157
F8.8900000000000006
aF9.3399999999999999
aF8.9499999999999993
aF9.2300000000000004
aF9.2300000000000004
aI6831600
aa(lp158
F8.7100000000000009
aF9.0099999999999998
aF8.8800000000000008
aF9.0099999999999998
aF9.0099999999999998
aI5236700
aa(lp159
F8.6099999999999994
aF8.8900000000000006
aF8.8399999999999999
aF8.8699999999999992
aF8.8699999999999992
aI4498600
aa(lp160
F8.8200000000000003
aF8.8200000000000003
aF8.8200000000000003
aF8.8200000000000003
aF8.8200000000000003
aI0
aa(lp161
F8.8200000000000003
aF8.8200000000000003
aF8.8200000000000003
aF8.8200000000000003
aF8.8200000000000003
aI0
aa(lp162
F8.8200000000000003
aF8.8200000000000003
aF8.8200000000000003
aF8.8200000000000003
aF8.8200000000000003
aI0
aa(lp163
F8.8200000000000003
aF8.8200000000000003
aF8.8200000000000003
aF8.8200000000000003
aF8.8200000000000003
aI0
aa(lp164
F8.8200000000000003
aF8.8200000000000003
aF8.8200000000000003
aF8.8200000000000003
aF8.8200000000000003
aI0
aa(lp165
F8.7799999999999994
aF8.9499999999999993
aF8.7799999999999994
aF8.8200000000000003
aF8.8200000000000003
aI4480900
aa(lp166
F8.75
aF8.9800000000000004
aF8.8000000000000007
aF8.7799999999999994
aF8.7799999999999994
aI6101400
aa(lp167
F8.7300000000000004
aF8.9600000000000009
aF8.8399999999999999
aF8.7899999999999991
aF8.7899999999999991
aI3576800
aa(lp168
F8.6999999999999993
aF9.0399999999999991
aF8.7699999999999996
aF8.8399999999999999
aF8.8399999999999999
aI6033000
aa(lp169
F8.5899999999999999
aF8.9700000000000006
aF8.6600000000000001
aF8.7799999999999994
aF8.7799999999999994
aI6596800
aa(lp170
F8.2599999999999998
aF8.6699999999999999
aF8.2899999999999991
aF8.5899999999999999
aF8.5899999999999999
aI5649000
aa(lp171
F8.2599999999999998
aF8.4900000000000002
aF8.4900000000000002
aF8.2899999999999991
aF8.2899999999999991
aI2704400
aa(lp172
F8.25
aF8.5299999999999994
aF8.3100000000000005
aF8.4900000000000002
aF8.4900000000000002
aI4261400
aa(lp173
F8.1799999999999997
aF8.4000000000000004
aF8.2100000000000009
aF8.3100000000000005
aF8.3100000000000005
aI3266200
aa(lp174
F8.0500000000000007
aF8.3000000000000007
aF8.2200000000000006
aF8.2699999999999996
aF8.2699999999999996
aI4038000
aa(lp175
F8.1600000000000001
aF8.6500000000000004
aF8.5800000000000001
aF8.1899999999999995
aF8.1899999999999995
aI6576400
aa(lp176
F8.3800000000000008
aF8.6699999999999999
aF8.4199999999999999
aF8.6099999999999994
aF8.6099999999999994
aI4560000
aa(lp177
F8.2699999999999996
aF8.4800000000000004
aF8.2899999999999991
aF8.4499999999999993
aF8.4499999999999993
aI4395500
aa(lp178
F8.2300000000000004
aF8.5999999999999996
aF8.3000000000000007
aF8.3100000000000005
aF8.3100000000000005
aI6384400
aa(lp179
F8.2200000000000006
aF8.4199999999999999
aF8.3499999999999996
aF8.3399999999999999
aF8.3399999999999999
aI6332000
aa(lp180
F8.1099999999999994
aF8.4700000000000006
aF8.1400000000000006
aF8.4199999999999999
aF8.4199999999999999
aI9828100
aa(lp181
F8.0700000000000003
aF8.0700000000000003
aF8.0700000000000003
aF8.0700000000000003
aF8.0700000000000003
aI0
aa(lp182
F7.8099999999999996
aF8.1199999999999992
aF7.8300000000000001
aF8.0700000000000003
aF8.0700000000000003
aI7134500
aa(lp183
F7.7000000000000002
aF7.9100000000000001
aF7.7000000000000002
aF7.8300000000000001
aF7.8300000000000001
aI4376200
aa(lp184
F7.7000000000000002
aF7.7999999999999998
aF7.7199999999999998
aF7.7300000000000004
aF7.7300000000000004
aI4090000
aa(lp185
F7.6299999999999999
aF7.7599999999999998
aF7.6399999999999997
aF7.7199999999999998
aF7.7199999999999998
aI4555300
aa(lp186
F7.4400000000000004
aF7.6399999999999997
aF7.4500000000000002
aF7.6299999999999999
aF7.6299999999999999
aI2890100
aa(lp187
F7.3499999999999996
aF7.46
aF7.4100000000000001
aF7.4500000000000002
aF7.4500000000000002
aI1573100
aa(lp188
F7.3799999999999999
aF7.5899999999999999
aF7.5700000000000003
aF7.3899999999999997
aF7.3899999999999997
aI2176300
aa(lp189
F7.46
aF7.5599999999999996
aF7.46
aF7.5199999999999996
aF7.5199999999999996
aI1899400
aa(lp190
F7.46
aF7.7300000000000004
aF7.6399999999999997
aF7.5
aF7.5
aI4390100
aa(lp191
F7.5700000000000003
aF7.7800000000000002
aF7.7800000000000002
aF7.5999999999999996
aF7.5999999999999996
aI3484900
aa(lp192
F7.4699999999999998
aF7.7199999999999998
aF7.5
aF7.6799999999999997
aF7.6799999999999997
aI5156500
aa(lp193
F7.4199999999999999
aF7.5800000000000001
aF7.5599999999999996
aF7.4900000000000002
aF7.4900000000000002
aI3468100
aa(lp194
F7.5099999999999998
aF7.6399999999999997
aF7.54
aF7.5599999999999996
aF7.5599999999999996
aI3805200
aa(lp195
F7.54
aF7.7800000000000002
aF7.6699999999999999
aF7.5899999999999999
aF7.5899999999999999
aI3411200
aa(lp196
F7.4900000000000002
aF7.6699999999999999
aF7.54
aF7.6100000000000003
aF7.6100000000000003
aI4772300
aa(lp197
F7.3899999999999997
aF7.5199999999999996
aF7.4299999999999997
aF7.4699999999999998
aF7.4699999999999998
aI2559100
aa(lp198
F7.4299999999999997
aF7.5999999999999996
aF7.4500000000000002
aF7.4500000000000002
aF7.4500000000000002
aI4588300
aa(lp199
F7.3399999999999999
aF7.5899999999999999
aF7.3899999999999997
aF7.4800000000000004
aF7.4800000000000004
aI4356800
aa(lp200
F7.3499999999999996
aF7.4299999999999997
aF7.4299999999999997
aF7.3899999999999997
aF7.3899999999999997
aI2448100
aa(lp201
F7.2699999999999996
aF7.4000000000000004
aF7.3099999999999996
aF7.3899999999999997
aF7.3899999999999997
aI2872600
aa(lp202
F7.2300000000000004
aF7.3099999999999996
aF7.25
aF7.2699999999999996
aF7.2699999999999996
aI1951100
aa(lp203
F7.2400000000000002
aF7.3799999999999999
aF7.3600000000000003
aF7.25
aF7.25
aI3523600
aa(lp204
F7.3099999999999996
aF7.4500000000000002
aF7.3899999999999997
aF7.3799999999999999
aF7.3799999999999999
aI2922100
aa(lp205
F7.2999999999999998
aF7.4100000000000001
aF7.3300000000000001
aF7.4000000000000004
aF7.4000000000000004
aI2536200
aa(lp206
F7.2300000000000004
aF7.3399999999999999
aF7.2300000000000004
aF7.3399999999999999
aF7.3399999999999999
aI3363200
aa(lp207
F7.2000000000000002
aF7.3700000000000001
aF7.3399999999999999
aF7.2599999999999998
aF7.2599999999999998
aI3844200
aa(lp208
F7.2699999999999996
aF7.4400000000000004
aF7.2699999999999996
aF7.3700000000000001
aF7.3700000000000001
aI3478300
aa(lp209
F7.2199999999999998
aF7.3899999999999997
aF7.2999999999999998
aF7.2999999999999998
aF7.2999999999999998
aI3633900
aa(lp210
F7.2199999999999998
aF7.3200000000000003
aF7.25
aF7.25
aF7.25
aI3048400
aa(lp211
F7.2199999999999998
aF7.3300000000000001
aF7.3099999999999996
aF7.25
aF7.25
aI4601300
aa(lp212
F7.1299999999999999
aF7.2800000000000002
aF7.1900000000000004
aF7.2599999999999998
aF7.2599999999999998
aI3618700
aa(lp213
F7.0899999999999999
aF7.1900000000000004
aF7.1399999999999997
aF7.1699999999999999
aF7.1699999999999999
aI2034400
aa(lp214
F7.0700000000000003
aF7.1900000000000004
aF7.1100000000000003
aF7.1600000000000001
aF7.1600000000000001
aI3150300
aa(lp215
F7
aF7.1600000000000001
aF7.0499999999999998
aF7.1100000000000003
aF7.1100000000000003
aI2692300
aa(lp216
F7.0199999999999996
aF7.1399999999999997
aF7.0800000000000001
aF7.0599999999999996
aF7.0599999999999996
aI955500
aa(lp217
F6.96
aF7.1600000000000001
aF6.9900000000000002
aF7.0899999999999999
aF7.0899999999999999
aI2233700
aa(lp218
F6.9699999999999998
aF7.1500000000000004
aF7.0800000000000001
aF7
aF7
aI1945000
aa(lp219
F7.0800000000000001
aF7.1699999999999999
aF7.0999999999999996
aF7.0999999999999996
aF7.0999999999999996
aI1545200
aa(lp220
F7.0700000000000003
aF7.1600000000000001
aF7.1200000000000001
aF7.1100000000000003
aF7.1100000000000003
aI1632700
aa(lp221
F7.0499999999999998
aF7.1799999999999997
aF7.0800000000000001
aF7.1500000000000004
aF7.1500000000000004
aI3322900
aa(lp222
F6.9800000000000004
aF7.1299999999999999
aF7.0300000000000002
aF7.0899999999999999
aF7.0899999999999999
aI1371400
aa(lp223
F7
aF7.2300000000000004
aF7.0599999999999996
aF7.0300000000000002
aF7.0300000000000002
aI1219600
aa(lp224
F7.0199999999999996
aF7.2400000000000002
aF7.1699999999999999
aF7.0599999999999996
aF7.0599999999999996
aI2464700
aa(lp225
F6.9699999999999998
aF7.1699999999999999
aF7.0199999999999996
aF7.1299999999999999
aF7.1299999999999999
aI2225300
aa(lp226
F6.8099999999999996
aF7.0800000000000001
aF6.8600000000000003
aF7.0300000000000002
aF7.0300000000000002
aI2342000
aa(lp227
F6.8399999999999999
aF6.9400000000000004
aF6.9299999999999997
aF6.8499999999999996
aF6.8499999999999996
aI1322000
aa(lp228
F6.9000000000000004
aF6.9800000000000004
aF6.9199999999999999
aF6.9199999999999999
aF6.9199999999999999
aI1316700
aa(lp229
F6.8799999999999999
aF6.9900000000000002
aF6.9400000000000004
aF6.96
aF6.96
aI1468000
aa(lp230
F6.8399999999999999
aF6.9699999999999998
aF6.8799999999999999
aF6.9400000000000004
aF6.9400000000000004
aI1022500
aa(lp231
F6.7800000000000002
aF6.9400000000000004
aF6.8799999999999999
aF6.8799999999999999
aF6.8799999999999999
aI1710300
aa(lp232
F6.6799999999999997
aF6.8499999999999996
aF6.7400000000000002
aF6.8099999999999996
aF6.8099999999999996
aI1078100
aa(lp233
F6.6900000000000004
aF6.7699999999999996
aF6.75
aF6.7400000000000002
aF6.7400000000000002
aI771200
aa(lp234
F6.6600000000000001
aF6.8099999999999996
aF6.8099999999999996
aF6.7000000000000002
aF6.7000000000000002
aI434700
aa(lp235
F6.5999999999999996
aF6.8499999999999996
aF6.6299999999999999
aF6.79
aF6.7699999999999996
aI748400
aa(lp236
F6.5300000000000002
aF6.6500000000000004
aF6.6100000000000003
aF6.6299999999999999
aF6.6100000000000003
aI498100
aa(lp237
F6.4699999999999998
aF6.6500000000000004
aF6.4699999999999998
aF6.5899999999999999
aF6.5700000000000003
aI541200
aa(lp238
F6.5800000000000001
aF6.8200000000000003
aF6.75
aF6.5899999999999999
aF6.5700000000000003
aI940100
aa(lp239
F6.7599999999999998
aF6.8099999999999996
aF6.7599999999999998
aF6.7800000000000002
aF6.7599999999999998
aI587400
aa(lp240
F6.7699999999999996
aF6.8799999999999999
aF6.8600000000000003
aF6.7699999999999996
aF6.75
aI727000
aa(lp241
F6.7999999999999998
aF6.9199999999999999
aF6.9199999999999999
aF6.8600000000000003
aF6.8399999999999999
aI1126300
aa(lp242
F6.7800000000000002
aF6.8499999999999996
aF6.7800000000000002
aF6.8499999999999996
aF6.8300000000000001
aI1125200
aa(lp243
F6.6600000000000001
aF7
aF6.6699999999999999
aF6.7999999999999998
aF6.7800000000000002
aI2604800
aa(lp244
F6.5999999999999996
aF6.7300000000000004
aF6.5999999999999996
aF6.7000000000000002
aF6.6799999999999997
aI634000
aa(lp245
F6.6699999999999999
aF6.7400000000000002
aF6.6799999999999997
aF6.7300000000000004
aF6.71
aI817700
aa(lp246
F6.6600000000000001
aF6.75
aF6.7000000000000002
aF6.6799999999999997
aF6.6600000000000001
aI684700
aa(lp247
F6.6600000000000001
aF6.7199999999999998
aF6.71
aF6.7000000000000002
aF6.6799999999999997
aI555700
aa(lp248
F6.6200000000000001
aF6.7000000000000002
aF6.6500000000000004
aF6.6900000000000004
aF6.6699999999999999
aI471000
aa(lp249
F6.5899999999999999
aF6.7699999999999996
aF6.7599999999999998
aF6.6500000000000004
aF6.6299999999999999
aI503200
aa(lp250
F6.6200000000000001
aF6.7400000000000002
aF6.6500000000000004
aF6.7000000000000002
aF6.6799999999999997
aI1011600
aa(lp251
F6.5999999999999996
aF6.5999999999999996
aF6.5999999999999996
aF6.5999999999999996
aF6.5800000000000001
aI0
aa(lp252
F6.54
aF6.6600000000000001
aF6.6299999999999999
aF6.5999999999999996
aF6.5800000000000001
aI677400
aa(lp253
F6.5999999999999996
aF6.7300000000000004
aF6.7300000000000004
aF6.5999999999999996
aF6.5800000000000001
aI1157600
aa(lp254
F6.6500000000000004
aF6.7400000000000002
aF6.6799999999999997
aF6.7300000000000004
aF6.71
aI1110000
aa(lp255
F6.6600000000000001
aF6.7300000000000004
aF6.6699999999999999
aF6.6799999999999997
aF6.6600000000000001
aI938100
aa(lp256
F6.6699999999999999
aF6.7300000000000004
aF6.6799999999999997
aF6.6799999999999997
aF6.6600000000000001
aI1235800
aa(lp257
F6.5800000000000001
aF6.7300000000000004
aF6.6799999999999997
aF6.6799999999999997
aF6.6600000000000001
aI780800
aa(lp258
F6.6900000000000004
aF6.79
aF6.7199999999999998
aF6.7000000000000002
aF6.6799999999999997
aI815700
aa(lp259
F6.6399999999999997
aF6.75
aF6.6699999999999999
aF6.7400000000000002
aF6.7199999999999998
aI512200
aa(lp260
F6.6600000000000001
aF6.8099999999999996
aF6.7999999999999998
aF6.71
aF6.6900000000000004
aI544100
aa(lp261
F6.5999999999999996
aF6.7699999999999996
aF6.6900000000000004
aF6.71
aF6.6900000000000004
aI588400
aa(lp262
F6.6600000000000001
aF6.75
aF6.6699999999999999
aF6.6900000000000004
aF6.6699999999999999
aI469600
aa(lp263
F6.6600000000000001
aF6.8600000000000003
aF6.8200000000000003
aF6.6600000000000001
aF6.6399999999999997
aI1002700
aa(lp264
F6.79
aF6.9400000000000004
aF6.9199999999999999
aF6.8099999999999996
aF6.79
aI1255600
aa(lp265
F6.8600000000000003
aF6.9900000000000002
aF6.9699999999999998
aF6.96
aF6.9400000000000004
aI1656600
aa(lp266
F6.8099999999999996
aF6.9800000000000004
aF6.8099999999999996
aF6.9699999999999998
aF6.9500000000000002
aI1748700
aa(lp267
F6.7300000000000004
aF6.9000000000000004
aF6.8399999999999999
aF6.8499999999999996
aF6.8300000000000001
aI802200
aa(lp268
F6.6500000000000004
aF6.9800000000000004
aF6.6500000000000004
aF6.9100000000000001
aF6.8899999999999997
aI1311200
aa(lp269
F6.5899999999999999
aF6.7300000000000004
aF6.7000000000000002
aF6.7000000000000002
aF6.6799999999999997
aI642300
aa(lp270
F6.6500000000000004
aF6.75
aF6.7000000000000002
aF6.7000000000000002
aF6.6799999999999997
aI667100
aa(lp271
F6.6299999999999999
aF6.7400000000000002
aF6.7400000000000002
aF6.6900000000000004
aF6.6699999999999999
aI738700
aa(lp272
F6.7599999999999998
aF6.7599999999999998
aF6.7599999999999998
aF6.7599999999999998
aF6.7400000000000002
aI0
aa(lp273
F6.7599999999999998
aF6.7599999999999998
aF6.7599999999999998
aF6.7599999999999998
aF6.7400000000000002
aI0
aa(lp274
F6.5899999999999999
aF6.7599999999999998
aF6.6200000000000001
aF6.7599999999999998
aF6.7400000000000002
aI617600
aa(lp275
F6.5300000000000002
aF6.6600000000000001
aF6.5800000000000001
aF6.6399999999999997
aF6.6200000000000001
aI997800
aa(lp276
F6.5599999999999996
aF6.71
aF6.7000000000000002
aF6.5999999999999996
aF6.5800000000000001
aI940800
aa(lp277
F6.7000000000000002
aF6.8399999999999999
aF6.7800000000000002
aF6.71
aF6.6900000000000004
aI1241100
aa(lp278
F6.7999999999999998
aF6.9199999999999999
aF6.9100000000000001
aF6.8099999999999996
aF6.79
aI964600
aa(lp279
F6.8600000000000003
aF6.9400000000000004
aF6.9199999999999999
aF6.9100000000000001
aF6.8899999999999997
aI729100
aa(lp280
F6.8499999999999996
aF6.9800000000000004
aF6.9500000000000002
aF6.9199999999999999
aF6.9000000000000004
aI1408700
aa(lp281
F6.9500000000000002
aF7.1200000000000001
aF7.0999999999999996
aF6.9800000000000004
aF6.96
aI1185500
aa(lp282
F7.0599999999999996
aF7.1500000000000004
aF7.1399999999999997
aF7.1299999999999999
aF7.1100000000000003
aI1075400
aa(lp283
F7.0700000000000003
aF7.1500000000000004
aF7.0999999999999996
aF7.1200000000000001
aF7.0999999999999996
aI1116000
aa(lp284
F7.04
aF7.1299999999999999
aF7.04
aF7.0999999999999996
aF7.0800000000000001
aI900900
aa(lp285
F7.0800000000000001
aF7.2400000000000002
aF7.1900000000000004
aF7.0999999999999996
aF7.0800000000000001
aI1240200
aa(lp286
F7.0800000000000001
aF7.25
aF7.2199999999999998
aF7.2000000000000002
aF7.1799999999999997
aI1204500
aa(lp287
F7.1399999999999997
aF7.2599999999999998
aF7.2599999999999998
aF7.2199999999999998
aF7.2000000000000002
aI1175600
aa(lp288
F7.1200000000000001
aF7.2999999999999998
aF7.21
aF7.2599999999999998
aF7.2400000000000002
aI3130300
aa(lp289
F7.1399999999999997
aF7.2300000000000004
aF7.21
aF7.2000000000000002
aF7.1799999999999997
aI987500
aa(lp290
F7.0800000000000001
aF7.21
aF7.0800000000000001
aF7.21
aF7.1900000000000004
aI1439700
aa(lp291
F7.1299999999999999
aF7.1299999999999999
aF7.1299999999999999
aF7.1299999999999999
aF7.1100000000000003
aI0
aa(lp292
F7.0099999999999998
aF7.1500000000000004
aF7.0999999999999996
aF7.1299999999999999
aF7.1100000000000003
aI1175300
aa(lp293
F6.9199999999999999
aF7.4500000000000002
aF6.9199999999999999
aF7.0999999999999996
aF7.0800000000000001
aI2313700
aa(lp294
F6.8099999999999996
aF6.9800000000000004
aF6.9100000000000001
aF6.9400000000000004
aF6.9199999999999999
aI929400
aa(lp295
F6.7999999999999998
aF6.9699999999999998
aF6.8200000000000003
aF6.9500000000000002
aF6.9299999999999997
aI981200
aa(lp296
F6.7699999999999996
aF6.9800000000000004
aF6.9800000000000004
aF6.8200000000000003
aF6.7999999999999998
aI1412100
aa(lp297
F7
aF7.1900000000000004
aF7.1100000000000003
aF7.0099999999999998
aF6.9900000000000002
aI1412100
aa(lp298
F7.0499999999999998
aF7.2599999999999998
aF7.0899999999999999
aF7.1100000000000003
aF7.0899999999999999
aI3383100
aa(lp299
F7.0300000000000002
aF7.1600000000000001
aF7.0999999999999996
aF7.0899999999999999
aF7.0700000000000003
aI1956600
aa(lp300
F7.0199999999999996
aF7.1100000000000003
aF7.0899999999999999
aF7.0499999999999998
aF7.0300000000000002
aI1455900
aa(lp301
F6.96
aF7.0899999999999999
aF7
aF7.0899999999999999
aF7.0700000000000003
aI1744800
aa(lp302
F6.7800000000000002
aF7.0099999999999998
aF6.8300000000000001
aF7
aF6.9800000000000004
aI1779400
aa(lp303
F6.8300000000000001
aF7.04
aF6.96
aF6.8499999999999996
aF6.8300000000000001
aI1388200
aa(lp304
F6.8499999999999996
aF7.0499999999999998
aF7.0499999999999998
aF6.96
aF6.9400000000000004
aI1612000
aa(lp305
F7.0099999999999998
aF7.0899999999999999
aF7.0800000000000001
aF7.0300000000000002
aF7.0099999999999998
aI1379600
aa(lp306
F6.96
aF7.0800000000000001
aF7.0800000000000001
aF7.0499999999999998
aF7.0300000000000002
aI1519200
aa(lp307
F6.9000000000000004
aF7.0700000000000003
aF6.9199999999999999
aF6.9900000000000002
aF6.9699999999999998
aI1676900
aa(lp308
F6.8600000000000003
aF6.9900000000000002
aF6.8899999999999997
aF6.9500000000000002
aF6.9299999999999997
aI1106900
aa(lp309
F6.7599999999999998
aF6.9199999999999999
aF6.9199999999999999
aF6.8600000000000003
aF6.8399999999999999
aI1209400
aa(lp310
F6.8099999999999996
aF7.0499999999999998
aF6.9400000000000004
aF6.9000000000000004
aF6.8799999999999999
aI1547500
aa(lp311
F6.9100000000000001
aF7.1900000000000004
aF7.1500000000000004
aF6.9299999999999997
aF6.9100000000000001
aI2254600
aa(lp312
F7.0700000000000003
aF7.4299999999999997
aF7.4299999999999997
aF7.1799999999999997
aF7.1600000000000001
aI3166100
aa(lp313
F7.3600000000000003
aF7.5800000000000001
aF7.3899999999999997
aF7.4299999999999997
aF7.4100000000000001
aI2508500
aa(lp314
F7.3399999999999999
aF7.46
aF7.4299999999999997
aF7.3899999999999997
aF7.3700000000000001
aI1983000
aa(lp315
F7.3099999999999996
aF7.6500000000000004
aF7.6500000000000004
aF7.4299999999999997
aF7.4100000000000001
aI3014700
aa(lp316
F7.5199999999999996
aF7.7400000000000002
aF7.54
aF7.6299999999999999
aF7.6100000000000003
aI5808000
aa(lp317
F7.3099999999999996
aF7.7800000000000002
aF7.46
aF7.71
aF7.6900000000000004
aI7605400
aa(lp318
F7.3600000000000003
aF7.7800000000000002
aF7.3899999999999997
aF7.54
aF7.5199999999999996
aI8711400
aa(lp319
F7.1100000000000003
aF7.46
aF7.2199999999999998
aF7.4500000000000002
aF7.4299999999999997
aI3561800
aa(lp320
F7.1699999999999999
aF7.5700000000000003
aF7.5
aF7.29
aF7.2699999999999996
aI5830000
aa(lp321
F7.2800000000000002
aF7.8200000000000003
aF7.5999999999999996
aF7.5800000000000001
aF7.5599999999999996
aI11267700
aa(lp322
F7.4199999999999999
aF8.2300000000000004
aF7.5300000000000002
aF7.8300000000000001
aF7.8099999999999996
aI18639600
aa(lp323
F7.2800000000000002
aF7.5700000000000003
aF7.4500000000000002
aF7.5300000000000002
aF7.5099999999999998
aI7357200
aa(lp324
F7.1799999999999997
aF7.5499999999999998
aF7.1799999999999997
aF7.4299999999999997
aF7.4100000000000001
aI11464800
aa(lp325
F6.96
aF7.2000000000000002
aF7.0800000000000001
aF7.1699999999999999
aF7.1500000000000004
aI4926300
aa(lp326
F6.7999999999999998
aF7.1399999999999997
aF6.8799999999999999
aF7.0999999999999996
aF7.0800000000000001
aI4995400
aa(lp327
F6.7800000000000002
aF6.9400000000000004
aF6.8499999999999996
aF6.9299999999999997
aF6.9100000000000001
aI1772600
aa(lp328
F6.8099999999999996
aF6.9800000000000004
aF6.9500000000000002
aF6.8499999999999996
aF6.8300000000000001
aI1408900
aa(lp329
F6.7800000000000002
aF7
aF6.9400000000000004
aF6.9400000000000004
aF6.9199999999999999
aI1732500
aa(lp330
F6.8399999999999999
aF6.96
aF6.96
aF6.8799999999999999
aF6.8600000000000003
aI850200
aa(lp331
F6.6900000000000004
aF6.9699999999999998
aF6.75
aF6.8600000000000003
aF6.8399999999999999
aI1441900
aa(lp332
F6.5300000000000002
aF6.6799999999999997
aF6.5700000000000003
aF6.6699999999999999
aF6.6500000000000004
aI462700
aa(lp333
F6.5899999999999999
aF6.5899999999999999
aF6.5899999999999999
aF6.5899999999999999
aF6.5700000000000003
aI0
aa(lp334
F6.5899999999999999
aF6.5899999999999999
aF6.5899999999999999
aF6.5899999999999999
aF6.5700000000000003
aI0
aa(lp335
F6.5899999999999999
aF6.5899999999999999
aF6.5899999999999999
aF6.5899999999999999
aF6.5700000000000003
aI0
aa(lp336
F6.5899999999999999
aF6.5899999999999999
aF6.5899999999999999
aF6.5899999999999999
aF6.5700000000000003
aI0
aa(lp337
F6.5
aF6.6399999999999997
aF6.5499999999999998
aF6.5899999999999999
aF6.5700000000000003
aI332300
aa(lp338
F6.5999999999999996
aF6.71
aF6.6399999999999997
aF6.6399999999999997
aF6.6200000000000001
aI625100
aa(lp339
F6.6299999999999999
aF6.7699999999999996
aF6.6399999999999997
aF6.6399999999999997
aF6.6200000000000001
aI434900
aa(lp340
F6.6299999999999999
aF6.7599999999999998
aF6.6699999999999999
aF6.6399999999999997
aF6.6200000000000001
aI424900
aa(lp341
F6.5199999999999996
aF6.7300000000000004
aF6.5999999999999996
aF6.6699999999999999
aF6.6500000000000004
aI716900
aa(lp342
F6.5499999999999998
aF6.7000000000000002
aF6.7000000000000002
aF6.5999999999999996
aF6.5800000000000001
aI683800
aa(lp343
F6.4199999999999999
aF6.6200000000000001
aF6.4199999999999999
aF6.5800000000000001
aF6.5599999999999996
aI589700
aa(lp344
F6.3300000000000001
aF6.46
aF6.3300000000000001
aF6.4199999999999999
aF6.4000000000000004
aI322900
aa(lp345
F6.3399999999999999
aF6.4500000000000002
aF6.4500000000000002
aF6.3600000000000003
aF6.3399999999999999
aI387300
aa(lp346
F6.3200000000000003
aF6.46
aF6.4500000000000002
aF6.4100000000000001
aF6.3899999999999997
aI287700
aa(lp347
F6.4299999999999997
aF6.5700000000000003
aF6.4299999999999997
aF6.4900000000000002
aF6.4699999999999998
aI438400
aa(lp348
F6.4000000000000004
aF6.4800000000000004
aF6.46
aF6.4699999999999998
aF6.4500000000000002
aI263400
aa(lp349
F6.3399999999999999
aF6.4900000000000002
aF6.3399999999999999
aF6.46
aF6.4400000000000004
aI324600
aa(lp350
F6.3099999999999996
aF6.4800000000000004
aF6.3600000000000003
aF6.3899999999999997
aF6.3700000000000001
aI522100
aa(lp351
F6.3099999999999996
aF6.4699999999999998
aF6.4500000000000002
aF6.3099999999999996
aF6.29
aI510000
aa(lp352
F6.4800000000000004
aF6.6299999999999999
aF6.5800000000000001
aF6.4900000000000002
aF6.4699999999999998
aI686900
aa(lp353
F6.5
aF6.7800000000000002
aF6.5
aF6.6399999999999997
aF6.6200000000000001
aI762700
aa(lp354
F6.4299999999999997
aF6.5800000000000001
aF6.4299999999999997
aF6.5499999999999998
aF6.5300000000000002
aI305200
aa(lp355
F6.4500000000000002
aF6.7300000000000004
aF6.7300000000000004
aF6.5099999999999998
aF6.4900000000000002
aI859000
aa(lp356
F6.6900000000000004
aF6.9100000000000001
aF6.8499999999999996
aF6.7300000000000004
aF6.71
aI696200
aa(lp357
F6.7699999999999996
aF6.9100000000000001
aF6.7800000000000002
aF6.8499999999999996
aF6.8300000000000001
aI850300
aa(lp358
F6.8200000000000003
aF6.8200000000000003
aF6.8200000000000003
aF6.8200000000000003
aF6.7999999999999998
aI0
aa(lp359
F6.7000000000000002
aF6.8499999999999996
aF6.75
aF6.8200000000000003
aF6.7999999999999998
aI658400
aa(lp360
F6.71
aF6.8300000000000001
aF6.7400000000000002
aF6.7999999999999998
aF6.7800000000000002
aI906400
aa(lp361
F6.5999999999999996
aF6.8200000000000003
aF6.6299999999999999
aF6.7300000000000004
aF6.71
aI932600
aa(lp362
F6.5999999999999996
aF6.7800000000000002
aF6.7800000000000002
aF6.6299999999999999
aF6.6100000000000003
aI1188500
aa(lp363
F6.5999999999999996
aF6.9000000000000004
aF6.7199999999999998
aF6.8200000000000003
aF6.7999999999999998
aI2033800
aa(lp364
F6.7000000000000002
aF6.9800000000000004
aF6.8200000000000003
aF6.71
aF6.6900000000000004
aI1571000
aa(lp365
F6.71
aF7.0599999999999996
aF7
aF6.7800000000000002
aF6.7599999999999998
aI1568700
aa(lp366
F6.96
aF7.1500000000000004
aF7.0999999999999996
aF7
aF6.9800000000000004
aI2623000
aa(lp367
F7
aF7.4800000000000004
aF7
aF7.2300000000000004
aF7.21
aI6079300
aa(lp368
F6.8399999999999999
aF6.9400000000000004
aF6.9299999999999997
aF6.8899999999999997
aF6.8700000000000001
aI437000
aa(lp369
F6.7999999999999998
aF6.9500000000000002
aF6.9500000000000002
aF6.8899999999999997
aF6.8700000000000001
aI515900
aa(lp370
F6.9000000000000004
aF7.1500000000000004
aF7.1200000000000001
aF6.9100000000000001
aF6.8899999999999997
aI853600
aa(lp371
F6.9500000000000002
aF7.1200000000000001
aF7.0099999999999998
aF7.0999999999999996
aF7.0800000000000001
aI839400
aa(lp372
F6.9500000000000002
aF7.1100000000000003
aF7.0300000000000002
aF7.0700000000000003
aF7.0499999999999998
aI506300
aa(lp373
F6.96
aF7.1299999999999999
aF7.1299999999999999
aF7.0099999999999998
aF6.9900000000000002
aI765400
aa(lp374
F7.0999999999999996
aF7.2300000000000004
aF7.1799999999999997
aF7.0999999999999996
aF7.0800000000000001
aI832500
aa(lp375
F7.1100000000000003
aF7.2199999999999998
aF7.2199999999999998
aF7.1799999999999997
aF7.1600000000000001
aI712600
aa(lp376
F7.0599999999999996
aF7.1900000000000004
aF7.1200000000000001
aF7.1500000000000004
aF7.1299999999999999
aI1351700
aa(lp377
F7.0099999999999998
aF7.1600000000000001
aF7.0999999999999996
aF7.0899999999999999
aF7.0700000000000003
aI1006400
aa(lp378
F6.8899999999999997
aF7.1399999999999997
aF6.8899999999999997
aF7.1100000000000003
aF7.0899999999999999
aI1389900
aa(lp379
F6.75
aF6.9500000000000002
aF6.8300000000000001
aF6.9400000000000004
aF6.9199999999999999
aI699100
aa(lp380
F6.6600000000000001
aF7.1200000000000001
aF7.1200000000000001
aF6.8300000000000001
aF6.8099999999999996
aI1250700
aa(lp381
F7.0700000000000003
aF7.2199999999999998
aF7.1900000000000004
aF7.1799999999999997
aF7.1600000000000001
aI1203000
aa(lp382
F7.0800000000000001
aF7.2000000000000002
aF7.1200000000000001
aF7.1500000000000004
aF7.1299999999999999
aI1214300
aa(lp383
F6.9500000000000002
aF7.1500000000000004
aF6.9500000000000002
aF7.1200000000000001
aF7.0999999999999996
aI1657500
aa(lp384
F6.8099999999999996
aF6.9500000000000002
aF6.8899999999999997
aF6.9199999999999999
aF6.9000000000000004
aI546700
aa(lp385
F6.8600000000000003
aF6.9800000000000004
aF6.8700000000000001
aF6.8899999999999997
aF6.8700000000000001
aI550700
aa(lp386
F6.8499999999999996
aF6.9400000000000004
aF6.8799999999999999
aF6.8700000000000001
aF6.8499999999999996
aI487300
aa(lp387
F6.8499999999999996
aF6.9800000000000004
aF6.9800000000000004
aF6.9400000000000004
aF6.9199999999999999
aI699600
aa(lp388
F6.9000000000000004
aF7.04
aF6.9699999999999998
aF7
aF6.9800000000000004
aI953300
aa(lp389
F6.9100000000000001
aF7.0300000000000002
aF6.9500000000000002
aF6.9100000000000001
aF6.8899999999999997
aI807600
aa(lp390
F6.75
aF7.0199999999999996
aF6.8499999999999996
aF6.9500000000000002
aF6.9299999999999997
aI1212500
aa(lp391
F6.6399999999999997
aF6.8799999999999999
aF6.6500000000000004
aF6.79
aF6.7699999999999996
aI1129500
aa(lp392
F6.5
aF6.6399999999999997
aF6.5
aF6.6299999999999999
aF6.6100000000000003
aI403300
aa(lp393
F6.5
aF6.6600000000000001
aF6.6600000000000001
aF6.5899999999999999
aF6.5700000000000003
aI593300
aa(lp394
F6.5
aF6.6200000000000001
aF6.5599999999999996
aF6.5899999999999999
aF6.5700000000000003
aI590600
aa(lp395
F6.4000000000000004
aF6.5899999999999999
aF6.5899999999999999
aF6.5599999999999996
aF6.54
aI702300
aa(lp396
F6.5
aF6.6600000000000001
aF6.6500000000000004
aF6.5199999999999996
aF6.5
aI852300
aa(lp397
F6.5999999999999996
aF6.8099999999999996
aF6.7599999999999998
aF6.6100000000000003
aF6.5899999999999999
aI880200
aa(lp398
F6.7400000000000002
aF6.9299999999999997
aF6.8600000000000003
aF6.7999999999999998
aF6.7800000000000002
aI832200
aa(lp399
F6.7300000000000004
aF6.9100000000000001
aF6.9100000000000001
aF6.8700000000000001
aF6.8499999999999996
aI827000
aa(lp400
F6.9100000000000001
aF6.9900000000000002
aF6.9900000000000002
aF6.96
aF6.9400000000000004
aI364500
aa(lp401
F6.7999999999999998
aF6.9400000000000004
aF6.8700000000000001
aF6.9100000000000001
aF6.8899999999999997
aI478800
aa(lp402
F6.7999999999999998
aF7.04
aF6.8399999999999999
aF6.8700000000000001
aF6.8499999999999996
aI756300
aa(lp403
F6.7000000000000002
aF6.9299999999999997
aF6.7800000000000002
aF6.8899999999999997
aF6.8700000000000001
aI894100
aa(lp404
F6.54
aF7.0099999999999998
aF6.9900000000000002
aF6.7199999999999998
aF6.7000000000000002
aI1187400
aa(lp405
F6.8600000000000003
aF7.1600000000000001
aF7.04
aF6.9199999999999999
aF6.9000000000000004
aI803600
aa(lp406
F7.0300000000000002
aF7.2300000000000004
aF7.2300000000000004
aF7.0499999999999998
aF7.0300000000000002
aI961300
aa(lp407
F7.1100000000000003
aF7.29
aF7.2199999999999998
aF7.1200000000000001
aF7.0999999999999996
aI751000
aa(lp408
F7.1600000000000001
aF7.6399999999999997
aF7.5899999999999999
aF7.2000000000000002
aF7.1799999999999997
aI2212400
aa(lp409
F7.5599999999999996
aF7.7400000000000002
aF7.6900000000000004
aF7.6200000000000001
aF7.5999999999999996
aI1783200
aa(lp410
F7.4800000000000004
aF7.7199999999999998
aF7.5700000000000003
aF7.5999999999999996
aF7.5800000000000001
aI1788000
aa(lp411
F7.3499999999999996
aF7.5999999999999996
aF7.4299999999999997
aF7.5800000000000001
aF7.5599999999999996
aI1192900
aa(lp412
F7.3700000000000001
aF7.54
aF7.4900000000000002
aF7.4199999999999999
aF7.4000000000000004
aI871400
aa(lp413
F7.3200000000000003
aF7.7199999999999998
aF7.7000000000000002
aF7.4400000000000004
aF7.4199999999999999
aI1747000
aa(lp414
F7.6500000000000004
aF7.8700000000000001
aF7.8399999999999999
aF7.7199999999999998
aF7.7000000000000002
aI1341400
aa(lp415
F7.6799999999999997
aF7.8700000000000001
aF7.7300000000000004
aF7.75
aF7.7300000000000004
aI1851000
aa(lp416
F7.5599999999999996
aF7.7800000000000002
aF7.5599999999999996
aF7.75
aF7.7300000000000004
aI1741800
aa(lp417
F7.54
aF7.75
aF7.7199999999999998
aF7.6100000000000003
aF7.5899999999999999
aI1908800
aa(lp418
F7.6500000000000004
aF7.8099999999999996
aF7.7699999999999996
aF7.6900000000000004
aF7.6699999999999999
aI2112700
aa(lp419
F7.6500000000000004
aF7.9000000000000004
aF7.6500000000000004
aF7.8300000000000001
aF7.8099999999999996
aI2334100
aa(lp420
F7.54
aF7.54
aF7.54
aF7.54
aF7.5199999999999996
aI0
aa(lp421
F7.54
aF7.54
aF7.54
aF7.54
aF7.5199999999999996
aI0
aa(lp422
F7.54
aF7.54
aF7.54
aF7.54
aF7.5199999999999996
aI0
aa(lp423
F7.54
aF7.54
aF7.54
aF7.54
aF7.5199999999999996
aI0
aa(lp424
F7.54
aF7.54
aF7.54
aF7.54
aF7.5199999999999996
aI0
aa(lp425
F7.4800000000000004
aF7.6600000000000001
aF7.5
aF7.54
aF7.5199999999999996
aI1791200
aa(lp426
F7.3399999999999999
aF7.79
aF7.3499999999999996
aF7.6100000000000003
aF7.5899999999999999
aI4153900
aa(lp427
F7.3300000000000001
aF7.5599999999999996
aF7.3600000000000003
aF7.3499999999999996
aF7.3300000000000001
aI2598400
aa(lp428
F7.2599999999999998
aF7.4500000000000002
aF7.3200000000000003
aF7.3700000000000001
aF7.3499999999999996
aI1256000
aa(lp429
F7.2199999999999998
aF7.3799999999999999
aF7.3300000000000001
aF7.3700000000000001
aF7.3499999999999996
aI1242800
aa(lp430
F7.21
aF7.3700000000000001
aF7.21
aF7.3399999999999999
aF7.3200000000000003
aI1205300
aa(lp431
F7.2000000000000002
aF7.2000000000000002
aF7.2000000000000002
aF7.2000000000000002
aF7.1799999999999997
aI0
aa(lp432
F7.1200000000000001
aF7.2400000000000002
aF7.2000000000000002
aF7.2000000000000002
aF7.1799999999999997
aI729900
aa(lp433
F7.1500000000000004
aF7.3600000000000003
aF7.3099999999999996
aF7.1699999999999999
aF7.1500000000000004
aI989300
aa(lp434
F7.29
aF7.5199999999999996
aF7.4900000000000002
aF7.3099999999999996
aF7.29
aI1790000
aa(lp435
F7.4000000000000004
aF7.6799999999999997
aF7.4100000000000001
aF7.4299999999999997
aF7.4100000000000001
aI2390100
aa(lp436
F7.3600000000000003
aF7.4800000000000004
aF7.4800000000000004
aF7.4299999999999997
aF7.4100000000000001
aI2178900
aa(lp437
F7.2999999999999998
aF7.9699999999999998
aF7.2999999999999998
aF7.54
aF7.5199999999999996
aI5108300
aa(lp438
F7.1799999999999997
aF7.3099999999999996
aF7.21
aF7.2999999999999998
aF7.2800000000000002
aI1818600
aa(lp439
F7.1299999999999999
aF7.3700000000000001
aF7.1500000000000004
aF7.21
aF7.1900000000000004
aI2256600
aa(lp440
F7.0499999999999998
aF7.2300000000000004
aF7.0800000000000001
aF7.1299999999999999
aF7.1100000000000003
aI1790900
aa(lp441
F7.04
aF7.1200000000000001
aF7.0899999999999999
aF7.0499999999999998
aF7.0300000000000002
aI1324800
aa(lp442
F7.04
aF7.2000000000000002
aF7.1200000000000001
aF7.0800000000000001
aF7.0599999999999996
aI1617700
aa(lp443
F7.0199999999999996
aF7.2699999999999996
aF7.1299999999999999
aF7.0700000000000003
aF7.0499999999999998
aI2411600
aa(lp444
F6.7999999999999998
aF7.0999999999999996
aF6.9400000000000004
aF7.0700000000000003
aF7.0499999999999998
aI2238700
aa(lp445
F6.8899999999999997
aF7.0300000000000002
aF7
aF6.9699999999999998
aF6.9500000000000002
aI1579200
aa(lp446
F6.9299999999999997
aF7.0800000000000001
aF7.0599999999999996
aF6.9800000000000004
aF6.96
aI2280600
aa(lp447
F7.0300000000000002
aF7.2300000000000004
aF7.2000000000000002
aF7.0899999999999999
aF7.0700000000000003
aI4443400
aa(lp448
F6.8799999999999999
aF7.2999999999999998
aF6.9199999999999999
aF7.2599999999999998
aF7.2400000000000002
aI5037800
aa(lp449
F6.7599999999999998
aF6.9100000000000001
aF6.7599999999999998
aF6.9000000000000004
aF6.8799999999999999
aI962300
aa(lp450
F6.6799999999999997
aF6.8499999999999996
aF6.8499999999999996
aF6.79
aF6.7699999999999996
aI1101300
aa(lp451
F6.79
aF6.9299999999999997
aF6.8399999999999999
aF6.8399999999999999
aF6.8200000000000003
aI689300
aa(lp452
F6.79
aF6.8499999999999996
aF6.8499999999999996
aF6.8399999999999999
aF6.8200000000000003
aI1179700
aa(lp453
F6.7999999999999998
aF6.9299999999999997
aF6.9100000000000001
aF6.8099999999999996
aF6.79
aI816000
aa(lp454
F6.6799999999999997
aF6.9299999999999997
aF6.75
aF6.9199999999999999
aF6.9000000000000004
aI1165300
aa(lp455
F6.7199999999999998
aF7.0999999999999996
aF6.9900000000000002
aF6.7800000000000002
aF6.7599999999999998
aI2173800
aa(lp456
F6.9000000000000004
aF7.3099999999999996
aF6.9100000000000001
aF7.0300000000000002
aF7.0099999999999998
aI4214100
aa(lp457
F6.7999999999999998
aF7.0099999999999998
aF6.9000000000000004
aF6.9900000000000002
aF6.9699999999999998
aI1684300
aa(lp458
F6.8099999999999996
aF6.9800000000000004
aF6.9000000000000004
aF6.9000000000000004
aF6.8799999999999999
aI1513100
aa(lp459
F6.7300000000000004
aF6.9199999999999999
aF6.79
aF6.8700000000000001
aF6.8499999999999996
aI2013200
aa(lp460
F6.5599999999999996
aF6.7800000000000002
aF6.5800000000000001
aF6.7800000000000002
aF6.7599999999999998
aI1790400
aa(lp461
F6.5300000000000002
aF6.6500000000000004
aF6.6299999999999999
aF6.5800000000000001
aF6.5599999999999996
aI1140900
aa(lp462
F6.6200000000000001
aF6.7599999999999998
aF6.7000000000000002
aF6.6299999999999999
aF6.6100000000000003
aI1074900
aa(lp463
F6.6200000000000001
aF6.8499999999999996
aF6.6600000000000001
aF6.7199999999999998
aF6.7000000000000002
aI1876500
aa(lp464
F6.4800000000000004
aF6.7699999999999996
aF6.5199999999999996
aF6.7199999999999998
aF6.7000000000000002
aI2371900
aa(lp465
F6.5
aF6.5999999999999996
aF6.5300000000000002
aF6.5300000000000002
aF6.5099999999999998
aI1030800
aa(lp466
F6.4299999999999997
aF6.5599999999999996
aF6.4299999999999997
aF6.5499999999999998
aF6.5300000000000002
aI1122900
aa(lp467
F6.3399999999999999
aF6.4900000000000002
aF6.3399999999999999
aF6.4000000000000004
aF6.3799999999999999
aI686300
aa(lp468
F6.2699999999999996
aF6.4500000000000002
aF6.2999999999999998
aF6.3300000000000001
aF6.3099999999999996
aI745200
aa(lp469
F6.2800000000000002
aF6.3799999999999999
aF6.3499999999999996
aF6.3099999999999996
aF6.29
aI748500
aa(lp470
F6.3300000000000001
aF6.4900000000000002
aF6.4900000000000002
aF6.4199999999999999
aF6.4000000000000004
aI798700
aa(lp471
F6.46
aF6.7000000000000002
aF6.6100000000000003
aF6.4699999999999998
aF6.4500000000000002
aI1561400
aa(lp472
F6.5
aF6.7699999999999996
aF6.5
aF6.6500000000000004
aF6.6299999999999999
aI1299100
aa(lp473
F6.4400000000000004
aF6.6699999999999999
aF6.4500000000000002
aF6.5700000000000003
aF6.5499999999999998
aI1051000
aa(lp474
F6.2300000000000004
aF6.5199999999999996
aF6.3200000000000003
aF6.4400000000000004
aF6.4199999999999999
aI984500
aa(lp475
F6.3200000000000003
aF6.7800000000000002
aF6.6600000000000001
aF6.3399999999999999
aF6.3200000000000003
aI1551100
aa(lp476
F6.6600000000000001
aF6.9000000000000004
aF6.8099999999999996
aF6.71
aF6.6900000000000004
aI902900
aa(lp477
F6.8200000000000003
aF7.0899999999999999
aF7.0599999999999996
aF6.8300000000000001
aF6.8099999999999996
aI1255300
aa(lp478
F6.9199999999999999
aF7.1399999999999997
aF6.9699999999999998
aF7.04
aF7.0199999999999996
aI1820500
aa(lp479
F6.7199999999999998
aF6.96
aF6.8399999999999999
aF6.9500000000000002
aF6.9299999999999997
aI1703200
aa(lp480
F6.8200000000000003
aF7.0099999999999998
aF6.9400000000000004
aF6.8399999999999999
aF6.8200000000000003
aI1986800
aa(lp481
F6.7800000000000002
aF7.0199999999999996
aF6.79
aF6.9299999999999997
aF6.9100000000000001
aI2720900
aa(lp482
F6.5700000000000003
aF6.8499999999999996
aF6.6600000000000001
aF6.8399999999999999
aF6.8200000000000003
aI1548500
aa(lp483
F6.3300000000000001
aF6.75
aF6.4800000000000004
aF6.6799999999999997
aF6.6600000000000001
aI1919500
aa(lp484
F6.5
aF6.9000000000000004
aF6.9000000000000004
aF6.5099999999999998
aF6.4900000000000002
aI2230300
aa(lp485
F6.8200000000000003
aF7.0300000000000002
aF7.0099999999999998
aF6.9299999999999997
aF6.9100000000000001
aI2956100
aa(lp486
F6.6799999999999997
aF7.1600000000000001
aF6.7300000000000004
aF7.0499999999999998
aF7.0300000000000002
aI6548100
aa(lp487
F6.5800000000000001
aF6.9400000000000004
aF6.6500000000000004
aF6.9400000000000004
aF6.9199999999999999
aI6635000
aa(lp488
F6.2300000000000004
aF6.3399999999999999
aF6.25
aF6.3099999999999996
aF6.29
aI644200
aa(lp489
F6.1100000000000003
aF6.3200000000000003
aF6.2000000000000002
aF6.29
aF6.2699999999999996
aI506400
aa(lp490
F6.0700000000000003
aF6.29
aF6.0700000000000003
aF6.2000000000000002
aF6.1799999999999997
aI910500
aa(lp491
F6.0999999999999996
aF6.46
aF6.3700000000000001
aF6.21
aF6.1900000000000004
aI1073000
aa(lp492
F6.2400000000000002
aF6.4000000000000004
aF6.3399999999999999
aF6.3700000000000001
aF6.3499999999999996
aI656500
aa(lp493
F6.0099999999999998
aF6.6799999999999997
aF6.6799999999999997
aF6.3399999999999999
aF6.3200000000000003
aI1390300
aa(lp494
F6.4100000000000001
aF7.04
aF7.04
aF6.5800000000000001
aF6.5599999999999996
aI1352300
aa(lp495
F6.8399999999999999
aF7.0999999999999996
aF7.0999999999999996
aF7
aF6.9800000000000004
aI933000
aa(lp496
F7.1100000000000003
aF7.2999999999999998
aF7.2699999999999996
aF7.1299999999999999
aF7.1100000000000003
aI1492700
aa(lp497
F7.2000000000000002
aF7.3499999999999996
aF7.3399999999999999
aF7.3099999999999996
aF7.29
aI1067600
aa(lp498
F7.3099999999999996
aF7.4900000000000002
aF7.46
aF7.3700000000000001
aF7.3499999999999996
aI1498700
aa(lp499
F7.4299999999999997
aF7.5999999999999996
aF7.5499999999999998
aF7.46
aF7.4400000000000004
aI1567500
aa(lp500
F7.4800000000000004
aF7.5700000000000003
aF7.5
aF7.5099999999999998
aF7.4900000000000002
aI719900
aa(lp501
F7.4500000000000002
aF7.79
aF7.79
aF7.4800000000000004
aF7.46
aI859400
aa(lp502
F7.7800000000000002
aF7.7800000000000002
aF7.7800000000000002
aF7.7800000000000002
aF7.7599999999999998
aI0
aa(lp503
F7.7800000000000002
aF7.7800000000000002
aF7.7800000000000002
aF7.7800000000000002
aF7.7599999999999998
aI0
aa(lp504
F7.7800000000000002
aF7.7800000000000002
aF7.7800000000000002
aF7.7800000000000002
aF7.7599999999999998
aI0
aa(lp505
F7.7599999999999998
aF8.0399999999999991
aF7.9500000000000002
aF7.7800000000000002
aF7.7599999999999998
aI1193700
aa(lp506
F7.9500000000000002
aF8.1500000000000004
aF8.1500000000000004
aF7.9699999999999998
aF7.9500000000000002
aI813000
aa(lp507
F8.0099999999999998
aF8.1500000000000004
aF8.0399999999999991
aF8.0800000000000001
aF8.0600000000000005
aI499600
aa(lp508
F8.0099999999999998
aF8.2200000000000006
aF8.1699999999999999
aF8.0500000000000007
aF8.0299999999999994
aI983800
aa(lp509
F8.1600000000000001
aF8.3200000000000003
aF8.3200000000000003
aF8.1699999999999999
aF8.1500000000000004
aI1143100
aa(lp510
F8.3100000000000005
aF8.4299999999999997
aF8.4299999999999997
aF8.3399999999999999
aF8.3000000000000007
aI1221900
aa(lp511
F8.3000000000000007
aF8.4399999999999995
aF8.3399999999999999
aF8.3499999999999996
aF8.3100000000000005
aI1448500
aa(lp512
F8.4100000000000001
aF8.5399999999999991
aF8.4900000000000002
aF8.4399999999999995
aF8.4000000000000004
aI3535700
aa(lp513
F8.2300000000000004
aF8.5500000000000007
aF8.3000000000000007
aF8.4399999999999995
aF8.4000000000000004
aI3872300
aa(lp514
F8.25
aF8.3499999999999996
aF8.3200000000000003
aF8.3100000000000005
aF8.2699999999999996
aI1736000
aa(lp515
F8.2899999999999991
aF8.3699999999999992
aF8.3699999999999992
aF8.3599999999999994
aF8.3200000000000003
aI1237700
aa(lp516
F8.3100000000000005
aF8.4900000000000002
aF8.4900000000000002
aF8.3300000000000001
aF8.2899999999999991
aI1119300
aa(lp517
F8.4499999999999993
aF8.5199999999999996
aF8.5099999999999998
aF8.4900000000000002
aF8.4499999999999993
aI1116600
aa(lp518
F8.4299999999999997
aF8.5299999999999994
aF8.5299999999999994
aF8.5199999999999996
aF8.4800000000000004
aI1319200
aa(lp519
F8.4199999999999999
aF8.5199999999999996
aF8.4900000000000002
aF8.5099999999999998
aF8.4700000000000006
aI1345300
aa(lp520
F8.3800000000000008
aF8.4900000000000002
aF8.4499999999999993
aF8.4499999999999993
aF8.4100000000000001
aI1335700
aa(lp521
F8.3499999999999996
aF8.4600000000000009
aF8.4499999999999993
aF8.4100000000000001
aF8.3699999999999992
aI825800
aa(lp522
F8.3100000000000005
aF8.4600000000000009
aF8.4600000000000009
aF8.4000000000000004
aF8.3599999999999994
aI554700
aa(lp523
F8.2699999999999996
aF8.4600000000000009
aF8.4499999999999993
aF8.4000000000000004
aF8.3599999999999994
aI713100
aa(lp524
F8.2699999999999996
aF8.4299999999999997
aF8.3399999999999999
aF8.4199999999999999
aF8.3800000000000008
aI827500
aa(lp525
F8.1500000000000004
aF8.5
aF8.1899999999999995
aF8.4000000000000004
aF8.3599999999999994
aI1687900
aa(lp526
F8.1300000000000008
aF8.2400000000000002
aF8.1699999999999999
aF8.1500000000000004
aF8.1099999999999994
aI600000
aa(lp527
F8.1600000000000001
aF8.2799999999999994
aF8.2799999999999994
aF8.2200000000000006
aF8.1799999999999997
aI327100
aa(lp528
F8.1899999999999995
aF8.2799999999999994
aF8.2799999999999994
aF8.2100000000000009
aF8.1699999999999999
aI523900
aa(lp529
F8.0899999999999999
aF8.25
aF8.0899999999999999
aF8.1600000000000001
aF8.1199999999999992
aI513500
aa(lp530
F8.0299999999999994
aF8.1400000000000006
aF8.0299999999999994
aF8.1099999999999994
aF8.0700000000000003
aI637100
aa(lp531
F7.96
aF8.1500000000000004
aF8
aF8.0500000000000007
aF8.0099999999999998
aI183300
aa(lp532
F7.9800000000000004
aF7.9800000000000004
aF7.9800000000000004
aF7.9800000000000004
aF7.9400000000000004
aI0
aa(lp533
F7.9800000000000004
aF7.9800000000000004
aF7.9800000000000004
aF7.9800000000000004
aF7.9400000000000004
aI0
aa(lp534
F7.9800000000000004
aF7.9800000000000004
aF7.9800000000000004
aF7.9800000000000004
aF7.9400000000000004
aI0
aa(lp535
F7.9299999999999997
aF8.0700000000000003
aF8
aF7.9800000000000004
aF7.9400000000000004
aI418600
aa(lp536
F7.9299999999999997
aF8.2200000000000006
aF8.1999999999999993
aF7.96
aF7.9199999999999999
aI591200
aa(lp537
F8
aF8.25
aF8.0099999999999998
aF8.2200000000000006
aF8.1799999999999997
aI443500
aa(lp538
F7.9800000000000004
aF8.2699999999999996
aF8.2599999999999998
aF8.0099999999999998
aF7.9699999999999998
aI672500
aa(lp539
F8.1600000000000001
aF8.3499999999999996
aF8.2799999999999994
aF8.2899999999999991
aF8.25
aI492400
aa(lp540
F8.1799999999999997
aF8.3800000000000008
aF8.1999999999999993
aF8.3499999999999996
aF8.3100000000000005
aI821300
aa(lp541
F8.1999999999999993
aF8.3200000000000003
aF8.2899999999999991
aF8.1999999999999993
aF8.1600000000000001
aI418200
aa(lp542
F8.2200000000000006
aF8.3499999999999996
aF8.3200000000000003
aF8.2899999999999991
aF8.25
aI312800
aa(lp543
F8.2200000000000006
aF8.3699999999999992
aF8.25
aF8.3200000000000003
aF8.2799999999999994
aI769500
aa(lp544
F8.0199999999999996
aF8.3900000000000006
aF8.0700000000000003
aF8.3000000000000007
aF8.2599999999999998
aI962300
aa(lp545
F8.0999999999999996
aF8.1999999999999993
aF8.1300000000000008
aF8.1300000000000008
aF8.0899999999999999
aI300700
aa(lp546
F8.1199999999999992
aF8.1999999999999993
aF8.1799999999999997
aF8.1300000000000008
aF8.0899999999999999
aI246000
aa(lp547
F8.1300000000000008
aF8.2899999999999991
aF8.1600000000000001
aF8.1699999999999999
aF8.1300000000000008
aI313800
aa(lp548
F8
aF8.2400000000000002
aF8
aF8.1799999999999997
aF8.1400000000000006
aI473200
aa(lp549
F7.7999999999999998
aF8.1099999999999994
aF7.9400000000000004
aF8.0700000000000003
aF8.0299999999999994
aI431200
aa(lp550
F8.0099999999999998
aF8.0099999999999998
aF8.0099999999999998
aF8.0099999999999998
aF7.9699999999999998
aI0
aa(lp551
F8.0099999999999998
aF8.0099999999999998
aF8.0099999999999998
aF8.0099999999999998
aF7.9699999999999998
aI0
aa(lp552
F7.9800000000000004
aF8.1899999999999995
aF8.1500000000000004
aF8.0099999999999998
aF7.9699999999999998
aI619800
aa(lp553
F8.1300000000000008
aF8.2799999999999994
aF8.2100000000000009
aF8.1400000000000006
aF8.0999999999999996
aI466700
aa(lp554
F8.1199999999999992
aF8.3000000000000007
aF8.1799999999999997
aF8.2100000000000009
aF8.1699999999999999
aI269800
aa(lp555
F8.0800000000000001
aF8.5500000000000007
aF8.0800000000000001
aF8.1799999999999997
aF8.1400000000000006
aI527300
aa(lp556
F8.0600000000000005
aF8.4600000000000009
aF8.4399999999999995
aF8.0800000000000001
aF8.0399999999999991
aI739400
aa(lp557
F8.4399999999999995
aF8.5500000000000007
aF8.5399999999999991
aF8.4600000000000009
aF8.4199999999999999
aI439900
aa(lp558
F8.3800000000000008
aF8.5500000000000007
aF8.5299999999999994
aF8.4499999999999993
aF8.4100000000000001
aI553300
aa(lp559
F8.4199999999999999
aF8.5500000000000007
aF8.4600000000000009
aF8.5299999999999994
aF8.4900000000000002
aI669100
aa(lp560
F8.4000000000000004
aF8.5500000000000007
aF8.5500000000000007
aF8.4600000000000009
aF8.4199999999999999
aI530100
aa(lp561
F8.4600000000000009
aF8.5899999999999999
aF8.5899999999999999
aF8.5199999999999996
aF8.4800000000000004
aI974600
aa(lp562
F8.3399999999999999
aF8.5500000000000007
aF8.3699999999999992
aF8.5299999999999994
aF8.4900000000000002
aI833100
aa(lp563
F8.3000000000000007
aF8.4299999999999997
aF8.3399999999999999
aF8.3200000000000003
aF8.2799999999999994
aI366700
aa(lp564
F8.3000000000000007
aF8.5600000000000005
aF8.3200000000000003
aF8.3200000000000003
aF8.2799999999999994
aI418100
aa(lp565
F8.3000000000000007
aF8.4600000000000009
aF8.4000000000000004
aF8.3599999999999994
aF8.3200000000000003
aI408000
aa(lp566
F8.3499999999999996
aF8.5600000000000005
aF8.5600000000000005
aF8.3599999999999994
aF8.3200000000000003
aI481000
aa(lp567
F8.3200000000000003
aF8.5999999999999996
aF8.5199999999999996
aF8.4900000000000002
aF8.4499999999999993
aI719200
aa(lp568
F8.4900000000000002
aF9.0899999999999999
aF8.9199999999999999
aF8.5700000000000003
aF8.5299999999999994
aI1534500
aa(lp569
F8.9700000000000006
aF9.0999999999999996
aF9.0999999999999996
aF8.9900000000000002
aF8.9399999999999995
aI730600
aa(lp570
F9.0399999999999991
aF9.1899999999999995
aF9.1899999999999995
aF9.0800000000000001
aF9.0299999999999994
aI679400
aa(lp571
F9.0500000000000007
aF9.2100000000000009
aF9.2100000000000009
aF9.1400000000000006
aF9.0899999999999999
aI1273600
aa(lp572
F9.0099999999999998
aF9.1999999999999993
aF9.1699999999999999
aF9.1799999999999997
aF9.1300000000000008
aI1384400
aa(lp573
F8.9499999999999993
aF9.1400000000000006
aF9.0199999999999996
aF9.0800000000000001
aF9.0299999999999994
aI832400
aa(lp574
F8.9600000000000009
aF9.2100000000000009
aF9.1999999999999993
aF9.0099999999999998
aF8.9600000000000009
aI1442200
aa(lp575
F9.1500000000000004
aF9.3399999999999999
aF9.2200000000000006
aF9.1999999999999993
aF9.1500000000000004
aI1386300
aa(lp576
F9.0399999999999991
aF9.2699999999999996
aF9.0399999999999991
aF9.1999999999999993
aF9.1500000000000004
aI2636500
aa(lp577
F9
aF9.1500000000000004
aF9.0500000000000007
aF9.0500000000000007
aF9
aI612200
aa(lp578
F9.0500000000000007
aF9.2100000000000009
aF9.1799999999999997
aF9.1099999999999994
aF9.0600000000000005
aI1089100
aa(lp579
F9.0800000000000001
aF9.2899999999999991
aF9.2400000000000002
aF9.2400000000000002
aF9.1899999999999995
aI1793000
aa(lp580
F9.1099999999999994
aF9.4900000000000002
aF9.1999999999999993
aF9.25
aF9.1999999999999993
aI3693500
aa(lp581
F9.0600000000000005
aF9.2400000000000002
aF9.2400000000000002
aF9.0999999999999996
aF9.0500000000000007
aI852200
aa(lp582
F9.1500000000000004
aF9.2699999999999996
aF9.1500000000000004
aF9.2400000000000002
aF9.1899999999999995
aI1443900
aa(lp583
F9.0999999999999996
aF9.2899999999999991
aF9.2400000000000002
aF9.1999999999999993
aF9.1500000000000004
aI603400
aa(lp584
F9.1799999999999997
aF9.2899999999999991
aF9.2899999999999991
aF9.2300000000000004
aF9.1799999999999997
aI970000
aa(lp585
F9.2300000000000004
aF9.2300000000000004
aF9.2300000000000004
aF9.2300000000000004
aF9.1799999999999997
aI0
aa(lp586
F9.2300000000000004
aF9.2300000000000004
aF9.2300000000000004
aF9.2300000000000004
aF9.1799999999999997
aI0
aa(lp587
F9.2300000000000004
aF9.2300000000000004
aF9.2300000000000004
aF9.2300000000000004
aF9.1799999999999997
aI0
aa(lp588
F9.2300000000000004
aF9.2300000000000004
aF9.2300000000000004
aF9.2300000000000004
aF9.1799999999999997
aI0
aa(lp589
F9.2300000000000004
aF9.2300000000000004
aF9.2300000000000004
aF9.2300000000000004
aF9.1799999999999997
aI0
aa(lp590
F9.1199999999999992
aF9.2599999999999998
aF9.2100000000000009
aF9.2300000000000004
aF9.1799999999999997
aI878300
aa(lp591
F9.0500000000000007
aF9.2100000000000009
aF9.1600000000000001
aF9.1500000000000004
aF9.0999999999999996
aI484300
aa(lp592
F9.0800000000000001
aF9.2799999999999994
aF9.0899999999999999
aF9.1699999999999999
aF9.1199999999999992
aI1235800
aa(lp593
F8.9800000000000004
aF9.0800000000000001
aF9
aF9.0800000000000001
aF9.0299999999999994
aI485200
aa(lp594
F9
aF9.1500000000000004
aF9.1500000000000004
aF9.1099999999999994
aF9.0600000000000005
aI802600
aa(lp595
F9.1099999999999994
aF9.2200000000000006
aF9.2200000000000006
aF9.1500000000000004
aF9.0999999999999996
aI410900
aa(lp596
F9.0899999999999999
aF9.2300000000000004
aF9.1799999999999997
aF9.1500000000000004
aF9.0999999999999996
aI449700
aa(lp597
F8.9700000000000006
aF9.2300000000000004
aF9.0999999999999996
aF9.1899999999999995
aF9.1400000000000006
aI808500
aa(lp598
F9.0899999999999999
aF9.2400000000000002
aF9.0899999999999999
aF9.1500000000000004
aF9.0999999999999996
aI1053400
aa(lp599
F9.0199999999999996
aF9.2599999999999998
aF9.0299999999999994
aF9.1999999999999993
aF9.1500000000000004
aI531800
aa(lp600
F8.8800000000000008
aF9.1799999999999997
aF9.0299999999999994
aF9.0800000000000001
aF9.0299999999999994
aI645500
aa(lp601
F8.9900000000000002
aF9.3200000000000003
aF9.2799999999999994
aF9.0199999999999996
aF8.9700000000000006
aI934300
aa(lp602
F9.0600000000000005
aF9.2899999999999991
aF9.2899999999999991
aF9.2300000000000004
aF9.1799999999999997
aI610500
aa(lp603
F9.1600000000000001
aF9.3599999999999994
aF9.3100000000000005
aF9.2400000000000002
aF9.1899999999999995
aI763700
aa(lp604
F9.25
aF9.3800000000000008
aF9.3599999999999994
aF9.3399999999999999
aF9.2899999999999991
aI715200
aa(lp605
F9.25
aF9.3800000000000008
aF9.3800000000000008
aF9.3499999999999996
aF9.3000000000000007
aI891400
aa(lp606
F9.2300000000000004
aF9.4499999999999993
aF9.4499999999999993
aF9.25
aF9.1999999999999993
aI785500
aa(lp607
F9.25
aF9.5099999999999998
aF9.5099999999999998
aF9.4499999999999993
aF9.4000000000000004
aI1797800
aa(lp608
F9.1500000000000004
aF10.06
aF9.1999999999999993
aF9.5600000000000005
aF9.5099999999999998
aI4465700
aa(lp609
F8.9000000000000004
aF9.2400000000000002
aF9.0199999999999996
aF9.1999999999999993
aF9.1500000000000004
aI1113900
aa(lp610
F8.9000000000000004
aF9.25
aF9.1500000000000004
aF8.9299999999999997
aF8.8800000000000008
aI685600
aa(lp611
F9
aF9.4399999999999995
aF9.0899999999999999
aF9.25
aF9.1999999999999993
aI1146200
aa(lp612
F8.9900000000000002
aF9.2200000000000006
aF9.1600000000000001
aF9.1199999999999992
aF9.0700000000000003
aI763200
aa(lp613
F8.9000000000000004
aF9.2400000000000002
aF9.0800000000000001
aF9.1400000000000006
aF9.0899999999999999
aI1044100
aa(lp614
F8.9199999999999999
aF9.1899999999999995
aF9
aF9.0800000000000001
aF9.0299999999999994
aI734400
aa(lp615
F9.0399999999999991
aF9.3399999999999999
aF9.3399999999999999
aF9.0500000000000007
aF9
aI763900
aa(lp616
F9.2100000000000009
aF9.2100000000000009
aF9.2100000000000009
aF9.2100000000000009
aF9.1600000000000001
aI0
aa(lp617
F9.2100000000000009
aF9.2100000000000009
aF9.2100000000000009
aF9.2100000000000009
aF9.1600000000000001
aI0
aa(lp618
F9.2100000000000009
aF9.2100000000000009
aF9.2100000000000009
aF9.2100000000000009
aF9.1600000000000001
aI0
aa(lp619
F9.1199999999999992
aF9.2599999999999998
aF9.1999999999999993
aF9.2100000000000009
aF9.1600000000000001
aI647700
aa(lp620
F9.0899999999999999
aF9.2699999999999996
aF9.1199999999999992
aF9.1600000000000001
aF9.1099999999999994
aI686100
aa(lp621
F9.1099999999999994
aF9.5199999999999996
aF9.5099999999999998
aF9.1699999999999999
aF9.1199999999999992
aI1491700
aa(lp622
F9.0299999999999994
aF9.2699999999999996
aF9.2699999999999996
aF9.1600000000000001
aF9.1099999999999994
aI690700
aa(lp623
F8.7599999999999998
aF9.2599999999999998
aF8.8100000000000005
aF9.0899999999999999
aF9.0399999999999991
aI2368700
aa(lp624
F8.7400000000000002
aF9.0399999999999991
aF8.8399999999999999
aF8.8599999999999994
aF8.8200000000000003
aI518500
aa(lp625
F8.8000000000000007
aF9.1699999999999999
aF9.1400000000000006
aF8.8300000000000001
aF8.7899999999999991
aI1221900
aa(lp626
F8.5199999999999996
aF9.5
aF8.6999999999999993
aF9.0500000000000007
aF9
aI2032100
aa(lp627
F8.6199999999999992
aF8.8399999999999999
aF8.75
aF8.6600000000000001
aF8.6199999999999992
aI616700
aa(lp628
F8.5
aF8.8599999999999994
aF8.5700000000000003
aF8.5899999999999999
aF8.5500000000000007
aI691900
aa(lp629
F8.5299999999999994
aF8.6500000000000004
aF8.5600000000000005
aF8.5700000000000003
aF8.5299999999999994
aI304500
aa(lp630
F8.1300000000000008
aF8.8800000000000008
aF8.2100000000000009
aF8.5500000000000007
aF8.5099999999999998
aI1169500
aa(lp631
F8.1199999999999992
aF8.3000000000000007
aF8.2699999999999996
aF8.1500000000000004
aF8.1099999999999994
aI201700
aa(lp632
F8.1400000000000006
aF8.3900000000000006
aF8.3100000000000005
aF8.1899999999999995
aF8.1500000000000004
aI266400
aa(lp633
F8.3000000000000007
aF8.5
aF8.5
aF8.3200000000000003
aF8.2799999999999994
aI285400
aa(lp634
F8.3100000000000005
aF8.5800000000000001
aF8.4000000000000004
aF8.4900000000000002
aF8.4499999999999993
aI712200
aa(lp635
F8.1099999999999994
aF8.4900000000000002
aF8.1099999999999994
aF8.3300000000000001
aF8.2899999999999991
aI613800
aa(lp636
F8.1099999999999994
aF8.3499999999999996
aF8.2400000000000002
aF8.1300000000000008
aF8.0899999999999999
aI384600
aa(lp637
F7.7999999999999998
aF8.6400000000000006
aF7.8899999999999997
aF8.2699999999999996
aF8.2300000000000004
aI907700
aa(lp638
F7.6900000000000004
aF7.8600000000000003
aF7.7599999999999998
aF7.8499999999999996
aF7.8099999999999996
aI318900
aa(lp639
F7.6600000000000001
aF7.96
aF7.9299999999999997
aF7.7699999999999996
aF7.7300000000000004
aI168200
aa(lp640
F7.6500000000000004
aF7.9900000000000002
aF7.6799999999999997
aF7.9000000000000004
aF7.8600000000000003
aI336900
aa(lp641
F7.7999999999999998
aF8.0899999999999999
aF8.0199999999999996
aF7.8099999999999996
aF7.7699999999999996
aI279500
aa(lp642
F7.9299999999999997
aF8.3200000000000003
aF8.3200000000000003
aF7.9400000000000004
aF7.9000000000000004
aI339300
aa(lp643
F8.3100000000000005
aF8.5999999999999996
aF8.5099999999999998
aF8.3200000000000003
aF8.2799999999999994
aI345900
aa(lp644
F8.5199999999999996
aF8.7400000000000002
aF8.7400000000000002
aF8.5700000000000003
aF8.5299999999999994
aI195000
aa(lp645
F8.6199999999999992
aF8.75
aF8.6799999999999997
aF8.6799999999999997
aF8.6400000000000006
aI187600
aa(lp646
F8.6899999999999995
aF8.8000000000000007
aF8.8000000000000007
aF8.6899999999999995
aF8.6500000000000004
aI161000
aa(lp647
F8.6799999999999997
aF8.8100000000000005
aF8.7200000000000006
aF8.8000000000000007
aF8.7599999999999998
aI347700
aa(lp648
F8.6699999999999999
aF8.8699999999999992
aF8.8699999999999992
aF8.7200000000000006
aF8.6799999999999997
aI208800
aa(lp649
F8.7100000000000009
aF8.9499999999999993
aF8.8800000000000008
aF8.75
aF8.7100000000000009
aI359100
aa(lp650
F8.8000000000000007
aF9.0299999999999994
aF9.0299999999999994
aF8.9299999999999997
aF8.8800000000000008
aI383000
aa(lp651
F9.1600000000000001
aF9.5299999999999994
aF9.5299999999999994
aF9.1999999999999993
aF9.1500000000000004
aI849600
aa(lp652
F9
aF9.1600000000000001
aF9.0199999999999996
aF9.1600000000000001
aF9.1099999999999994
aI255900
aa(lp653
F9.0600000000000005
aF9.2799999999999994
aF9.2799999999999994
aF9.0800000000000001
aF9.0299999999999994
aI306300
aa(lp654
F9.1600000000000001
aF9.3800000000000008
aF9.1600000000000001
aF9.3100000000000005
aF9.2599999999999998
aI127800
aa(lp655
F9.2599999999999998
aF9.4100000000000001
aF9.3499999999999996
aF9.2699999999999996
aF9.2200000000000006
aI168600
aa(lp656
F9.3000000000000007
aF9.5299999999999994
aF9.3599999999999994
aF9.3300000000000001
aF9.2799999999999994
aI195700
aa(lp657
F9.3200000000000003
aF9.5500000000000007
aF9.4399999999999995
aF9.4499999999999993
aF9.4000000000000004
aI200100
aa(lp658
F9.3300000000000001
aF9.5600000000000005
aF9.5099999999999998
aF9.4499999999999993
aF9.4000000000000004
aI302800
aa(lp659
F9.4700000000000006
aF9.6199999999999992
aF9.5999999999999996
aF9.5099999999999998
aF9.4600000000000009
aI230900
aa(lp660
F9.4800000000000004
aF9.6099999999999994
aF9.5099999999999998
aF9.5600000000000005
aF9.5099999999999998
aI171900
aa(lp661
F9.4199999999999999
aF9.6799999999999997
aF9.4199999999999999
aF9.5500000000000007
aF9.5
aI241700
aa(lp662
F9.3300000000000001
aF9.4399999999999995
aF9.4000000000000004
aF9.4299999999999997
aF9.3800000000000008
aI136500
aa(lp663
F9.2699999999999996
aF9.5299999999999994
aF9.3300000000000001
aF9.4100000000000001
aF9.3599999999999994
aI174600
aa(lp664
F9.25
aF9.5
aF9.25
aF9.3300000000000001
aF9.2799999999999994
aI294600
aa(lp665
F9.4199999999999999
aF9.75
aF9.6699999999999999
aF9.4299999999999997
aF9.3800000000000008
aI468400
aa(lp666
F9.6899999999999995
aF9.8000000000000007
aF9.8000000000000007
aF9.6899999999999995
aF9.6400000000000006
aI315400
aa(lp667
F9.6899999999999995
aF9.8499999999999996
aF9.8000000000000007
aF9.7300000000000004
aF9.6799999999999997
aI507100
aa(lp668
F9.7799999999999994
aF9.9800000000000004
aF9.9800000000000004
aF9.8000000000000007
aF9.75
aI433800
aa(lp669
F9.7200000000000006
aF9.9700000000000006
aF9.7799999999999994
aF9.9199999999999999
aF9.8699999999999992
aI496100
aa(lp670
F9.8000000000000007
aF9.9499999999999993
aF9.9000000000000004
aF9.8200000000000003
aF9.7699999999999996
aI395800
aa(lp671
F9.7200000000000006
aF9.9299999999999997
aF9.8699999999999992
aF9.9000000000000004
aF9.8499999999999996
aI547300
aa(lp672
F9.7200000000000006
aF9.9399999999999995
aF9.8000000000000007
aF9.8200000000000003
aF9.7699999999999996
aI344300
aa(lp673
F9.7100000000000009
aF9.8200000000000003
aF9.8100000000000005
aF9.7200000000000006
aF9.6699999999999999
aI548500
aa(lp674
F9.8000000000000007
aF10.029999999999999
aF9.9000000000000004
aF9.8200000000000003
aF9.7699999999999996
aI308800
aa(lp675
F9.9100000000000001
aF10.119999999999999
aF10.050000000000001
aF9.9900000000000002
aF9.9399999999999995
aI418600
aa(lp676
F9.9499999999999993
aF10.18
aF10.01
aF9.9499999999999993
aF9.9000000000000004
aI798700
aa(lp677
F9.9800000000000004
aF10.15
aF10.1
aF10.109999999999999
aF10.06
aI1187900
aa(lp678
F9.8000000000000007
aF10.16
aF9.8000000000000007
aF10.08
aF10.029999999999999
aI2508400
aa(lp679
F9.7100000000000009
aF9.8300000000000001
aF9.7699999999999996
aF9.7699999999999996
aF9.7200000000000006
aI274200
aa(lp680
F9.7699999999999996
aF9.7699999999999996
aF9.7699999999999996
aF9.7699999999999996
aF9.7200000000000006
aI0
aa(lp681
F9.7699999999999996
aF9.7699999999999996
aF9.7699999999999996
aF9.7699999999999996
aF9.7200000000000006
aI0
aa(lp682
F9.7699999999999996
aF9.7699999999999996
aF9.7699999999999996
aF9.7699999999999996
aF9.7200000000000006
aI0
aa(lp683
F9.7699999999999996
aF9.7699999999999996
aF9.7699999999999996
aF9.7699999999999996
aF9.7200000000000006
aI0
aa(lp684
F9.7699999999999996
aF9.7699999999999996
aF9.7699999999999996
aF9.7699999999999996
aF9.7200000000000006
aI0
aa(lp685
F9.6199999999999992
aF9.7899999999999991
aF9.6699999999999999
aF9.7699999999999996
aF9.7200000000000006
aI520200
aa(lp686
F9.4900000000000002
aF9.75
aF9.5899999999999999
aF9.6699999999999999
aF9.6199999999999992
aI581300
aa(lp687
F9.5
aF9.7200000000000006
aF9.7100000000000009
aF9.5899999999999999
aF9.5399999999999991
aI237000
aa(lp688
F9.4800000000000004
aF9.8000000000000007
aF9.8000000000000007
aF9.7200000000000006
aF9.6699999999999999
aI522300
aa(lp689
F9.4000000000000004
aF9.9199999999999999
aF9.5999999999999996
aF9.7200000000000006
aF9.6699999999999999
aI888900
aa(lp690
F9.1300000000000008
aF10.029999999999999
aF9.9600000000000009
aF9.6999999999999993
aF9.6500000000000004
aI1856100
aa(lp691
F10.029999999999999
aF10.5
aF10.26
aF10.039999999999999
aF9.9900000000000002
aI2065500
aa(lp692
F9.8100000000000005
aF10.58
aF9.8800000000000008
aF10.359999999999999
aF10.31
aI4700800
aa(lp693
F9.7300000000000004
aF9.9800000000000004
aF9.8800000000000008
aF9.9000000000000004
aF9.8499999999999996
aI442800
aa(lp694
F9.8000000000000007
aF10.279999999999999
aF10.15
aF9.9000000000000004
aF9.8499999999999996
aI862600
aa(lp695
F10.06
aF10.460000000000001
aF10.32
aF10.18
aF10.130000000000001
aI2098500
aa(lp696
F9.9800000000000004
aF10.51
aF10.140000000000001
aF10.33
aF10.279999999999999
aI2975100
aa(lp697
F10.01
aF10.18
aF10.119999999999999
aF10.109999999999999
aF10.06
aI484000
aa(lp698
F10.039999999999999
aF10.359999999999999
aF10.17
aF10.1
aF10.050000000000001
aI765200
aa(lp699
F10.029999999999999
aF10.25
aF10.1
aF10.18
aF10.130000000000001
aI670800
aa(lp700
F9.8699999999999992
aF10.19
aF9.9199999999999999
aF10.1
aF10.050000000000001
aI976000
aa(lp701
F9.7400000000000002
aF9.9499999999999993
aF9.8100000000000005
aF9.8499999999999996
aF9.8000000000000007
aI411800
aa(lp702
F9.6899999999999995
aF9.8900000000000006
aF9.6899999999999995
aF9.7100000000000009
aF9.6600000000000001
aI354000
aa(lp703
F9.5999999999999996
aF9.8100000000000005
aF9.5999999999999996
aF9.6600000000000001
aF9.6099999999999994
aI380800
aa(lp704
F9.5
aF9.8200000000000003
aF9.6799999999999997
aF9.7400000000000002
aF9.6899999999999995
aI318300
aa(lp705
F9.6600000000000001
aF9.7699999999999996
aF9.6699999999999999
aF9.6899999999999995
aF9.6400000000000006
aI111900
aa(lp706
F9.6300000000000008
aF9.9800000000000004
aF9.8699999999999992
aF9.6999999999999993
aF9.6500000000000004
aI393100
aa(lp707
F9.7400000000000002
aF9.9299999999999997
aF9.8499999999999996
aF9.8100000000000005
aF9.7599999999999998
aI161900
aa(lp708
F9.6600000000000001
aF10.029999999999999
aF9.6600000000000001
aF9.8499999999999996
aF9.8000000000000007
aI273600
aa(lp709
F9.6500000000000004
aF9.9399999999999995
aF9.9399999999999995
aF9.6600000000000001
aF9.6099999999999994
aI459600
aa(lp710
F9.9600000000000009
aF10.17
aF10.06
aF9.9600000000000009
aF9.9100000000000001
aI401100
aa(lp711
F9.9600000000000009
aF10.15
aF10.01
aF10.039999999999999
aF9.9900000000000002
aI481500
aa(lp712
F9.9600000000000009
aF10.17
aF10.17
aF10.029999999999999
aF9.9800000000000004
aI367400
aa(lp713
F9.9199999999999999
aF10.109999999999999
aF10.050000000000001
aF10
aF9.9499999999999993
aI428200
aa(lp714
F9.9000000000000004
aF10.15
aF10.15
aF10.02
aF9.9700000000000006
aI667600
aa(lp715
F10.17
aF10.380000000000001
aF10.300000000000001
aF10.23
aF10.18
aI506900
aa(lp716
F10.15
aF10.35
aF10.19
aF10.289999999999999
aF10.24
aI1006700
aa(lp717
F10.08
aF10.23
aF10.23
aF10.199999999999999
aF10.15
aI406300
aa(lp718
F10.1
aF10.27
aF10.220000000000001
aF10.23
aF10.18
aI628100
aa(lp719
F10.16
aF10.35
aF10.35
aF10.220000000000001
aF10.17
aI430400
aa(lp720
F10.23
aF10.4
aF10.4
aF10.369999999999999
aF10.32
aI583900
aa(lp721
F10.25
aF10.4
aF10.4
aF10.380000000000001
aF10.33
aI581700
aa(lp722
F10.279999999999999
aF10.460000000000001
aF10.43
aF10.369999999999999
aF10.32
aI577900
aa(lp723
F10.23
aF10.48
aF10.35
aF10.380000000000001
aF10.33
aI1148800
aa(lp724
F10.109999999999999
aF10.369999999999999
aF10.119999999999999
aF10.31
aF10.26
aI912200
aa(lp725
F10.08
aF10.27
aF10.27
aF10.199999999999999
aF10.15
aI579000
aa(lp726
F10.01
aF10.199999999999999
aF10.199999999999999
aF10.1
aF10.050000000000001
aI560700
aa(lp727
F9.8300000000000001
aF10.18
aF9.8699999999999992
aF10.06
aF10.01
aI459200
aa(lp728
F9.7300000000000004
aF9.9800000000000004
aF9.9700000000000006
aF9.7699999999999996
aF9.7200000000000006
aI285100
aa(lp729
F9.6799999999999997
aF10
aF10
aF9.7899999999999991
aF9.7400000000000002
aI458200
aa(lp730
F9.9800000000000004
aF10.220000000000001
aF10.130000000000001
aF10
aF9.9499999999999993
aI342100
aa(lp731
F10.07
aF10.25
aF10.199999999999999
aF10.140000000000001
aF10.09
aI424000
aa(lp732
F10
aF10.25
aF10.1
aF10.09
aF10.039999999999999
aI619400
aa(lp733
F9.6099999999999994
aF10.65
aF9.6799999999999997
aF10.15
aF10.1
aI1404200
aa(lp734
F9.4600000000000009
aF9.7799999999999994
aF9.6999999999999993
aF9.6799999999999997
aF9.6300000000000008
aI458100
aa(lp735
F9.6500000000000004
aF9.7899999999999991
aF9.6600000000000001
aF9.6500000000000004
aF9.5999999999999996
aI361500
aa(lp736
F9.5399999999999991
aF9.8100000000000005
aF9.6300000000000008
aF9.7400000000000002
aF9.6899999999999995
aI461900
aa(lp737
F9.4600000000000009
aF9.75
aF9.75
aF9.6199999999999992
aF9.5700000000000003
aI561100
aa(lp738
F9.6999999999999993
aF9.8800000000000008
aF9.6999999999999993
aF9.7300000000000004
aF9.6799999999999997
aI453900
aa(lp739
F9.7200000000000006
aF10.4
aF10.279999999999999
aF9.7699999999999996
aF9.7200000000000006
aI1113900
aa(lp740
F10.23
aF10.449999999999999
aF10.26
aF10.34
aF10.289999999999999
aI1047700
aa(lp741
F10.23
aF10.44
aF10.42
aF10.34
aF10.289999999999999
aI988300
aa(lp742
F10.15
aF10.4
aF10.15
aF10.359999999999999
aF10.31
aI771600
aa(lp743
F10.039999999999999
aF10.369999999999999
aF10.18
aF10.24
aF10.19
aI1195100
aa(lp744
F9.9499999999999993
aF10.300000000000001
aF10.27
aF10
aF9.9499999999999993
aI582100
aa(lp745
F10.09
aF10.380000000000001
aF10.35
aF10.32
aF10.27
aI958600
aa(lp746
F10.01
aF10.279999999999999
aF10.220000000000001
aF10.119999999999999
aF10.07
aI563300
aa(lp747
F10.1
aF10.42
aF10.1
aF10.23
aF10.18
aI487500
aa(lp748
F9.9000000000000004
aF10.49
aF10.18
aF10.16
aF10.109999999999999
aI1012400
aa(lp749
F9.9399999999999995
aF10.19
aF10.18
aF10.109999999999999
aF10.06
aI705600
aa(lp750
F9.5600000000000005
aF10.09
aF9.5800000000000001
aF9.9800000000000004
aF9.9299999999999997
aI1305200
aa(lp751
F9.5099999999999998
aF10.1
aF10.029999999999999
aF9.5800000000000001
aF9.5299999999999994
aI896900
aa(lp752
F10
aF10.300000000000001
aF10.300000000000001
aF10.02
aF9.9700000000000006
aI837000
aa(lp753
F9.8200000000000003
aF10.279999999999999
aF10.119999999999999
aF10.140000000000001
aF10.09
aI952500
aa(lp754
F10.109999999999999
aF10.359999999999999
aF10.300000000000001
aF10.109999999999999
aF10.06
aI621500
aa(lp755
F10.27
aF10.27
aF10.27
aF10.27
aF10.220000000000001
aI0
aa(lp756
F10.130000000000001
aF10.359999999999999
aF10.34
aF10.27
aF10.220000000000001
aI499100
aa(lp757
F10.210000000000001
aF10.380000000000001
aF10.210000000000001
aF10.31
aF10.26
aI615400
aa(lp758
F10.19
aF10.619999999999999
aF10.619999999999999
aF10.31
aF10.26
aI1288500
aa(lp759
F10.359999999999999
aF10.65
aF10.58
aF10.49
aF10.44
aI1253500
aa(lp760
F10.34
aF10.77
aF10.4
aF10.460000000000001
aF10.41
aI1848500
aa(lp761
F10.199999999999999
aF10.43
aF10.300000000000001
aF10.279999999999999
aF10.23
aI1055200
aa(lp762
F10.199999999999999
aF10.43
aF10.199999999999999
aF10.35
aF10.300000000000001
aI604100
aa(lp763
F10.18
aF10.359999999999999
aF10.31
aF10.199999999999999
aF10.15
aI763300
aa(lp764
F10.07
aF10.68
aF10.210000000000001
aF10.43
aF10.380000000000001
aI2091200
aa(lp765
F10.17
aF10.57
aF10.449999999999999
aF10.19
aF10.140000000000001
aI1151300
aa(lp766
F10.41
aF10.75
aF10.67
aF10.449999999999999
aF10.4
aI626500
aa(lp767
F10.359999999999999
aF10.65
aF10.630000000000001
aF10.52
aF10.380000000000001
aI1248500
aa(lp768
F10.32
aF10.539999999999999
aF10.44
aF10.449999999999999
aF10.31
aI1087800
aa(lp769
F10.44
aF10.880000000000001
aF10.76
aF10.449999999999999
aF10.31
aI1855800
aa(lp770
F10.94
aF11.34
aF11.16
aF11.01
aF10.859999999999999
aI2530200
aa(lp771
F11.1
aF11.449999999999999
aF11.279999999999999
aF11.199999999999999
aF11.050000000000001
aI2335500
aa(lp772
F11.06
aF11.35
aF11.35
aF11.289999999999999
aF11.140000000000001
aI2899000
aa(lp773
F11.050000000000001
aF11.449999999999999
aF11.25
aF11.279999999999999
aF11.130000000000001
aI4889900
aa(lp774
F10.710000000000001
aF11.279999999999999
aF11.199999999999999
aF11.15
aF11
aI2141000
aa(lp775
F11
aF11.390000000000001
aF11.390000000000001
aF11.109999999999999
aF10.960000000000001
aI3561300
aa(lp776
F10.77
aF11.289999999999999
aF10.93
aF11.23
aF11.08
aI4822000
aa(lp777
F10.880000000000001
aF11.279999999999999
aF10.98
aF11
aF10.85
aI3180600
aa(lp778
F10.869999999999999
aF11.25
aF10.970000000000001
aF10.98
aF10.83
aI3545300
aa(lp779
F10.32
aF11
aF10.390000000000001
aF10.91
aF10.76
aI3767000
aa(lp780
F10.380000000000001
aF10.85
aF10.83
aF10.390000000000001
aF10.25
aI2475200
aa(lp781
F10.710000000000001
aF11.08
aF10.970000000000001
aF11
aF10.85
aI3202900
aa(lp782
F10.720000000000001
aF11.17
aF11.050000000000001
aF10.99
aF10.84
aI3950800
aa(lp783
F10.449999999999999
aF11.15
aF10.51
aF11.08
aF10.93
aI5852400
aa(lp784
F10.51
aF10.9
aF10.890000000000001
aF10.6
aF10.460000000000001
aI1886500
aa(lp785
F10.710000000000001
aF11.15
aF11
aF10.859999999999999
aF10.710000000000001
aI3943700
aa(lp786
F10.48
aF11.07
aF10.710000000000001
aF11.039999999999999
aF10.890000000000001
aI7056500
aa(lp787
F10.15
aF10.83
aF10.25
aF10.720000000000001
aF10.57
aI5543200
aa(lp788
F10.15
aF10.42
aF10.17
aF10.279999999999999
aF10.140000000000001
aI1601900
aa(lp789
F10.029999999999999
aF10.18
aF10.17
aF10.17
aF10.029999999999999
aI790800
aa(lp790
F10.09
aF10.279999999999999
aF10.23
aF10.210000000000001
aF10.07
aI658600
aa(lp791
F10.07
aF10.210000000000001
aF10.07
aF10.210000000000001
aF10.07
aI859800
aa(lp792
F9.9199999999999999
aF10.19
aF9.9199999999999999
aF10.109999999999999
aF9.9700000000000006
aI945600
aa(lp793
F9.8800000000000008
aF9.8800000000000008
aF9.8800000000000008
aF9.8800000000000008
aF9.75
aI0
aa(lp794
F9.8800000000000008
aF9.8800000000000008
aF9.8800000000000008
aF9.8800000000000008
aF9.75
aI0
aa(lp795
F9.8200000000000003
aF10
aF10
aF9.8800000000000008
aF9.75
aI561800
aa(lp796
F9.9100000000000001
aF10.07
aF10.07
aF10
aF9.8599999999999994
aI818600
aa(lp797
F9.75
aF10.08
aF9.9000000000000004
aF10.08
aF9.9399999999999995
aI1061200
aa(lp798
F9.5
aF10.210000000000001
aF10.119999999999999
aF9.9000000000000004
aF9.7599999999999998
aI1382900
aa(lp799
F10.18
aF10.42
aF10.42
aF10.199999999999999
aF10.06
aI1678000
aa(lp800
F10.140000000000001
aF10.5
aF10.18
aF10.449999999999999
aF10.31
aI2695600
aa(lp801
F9.9499999999999993
aF10.140000000000001
aF10.050000000000001
aF10.119999999999999
aF9.9800000000000004
aI1028100
aa(lp802
F9.8000000000000007
aF9.8000000000000007
aF9.8000000000000007
aF9.8000000000000007
aF9.6699999999999999
aI0
aa(lp803
F9.8000000000000007
aF10.08
aF9.9800000000000004
aF9.8000000000000007
aF9.6699999999999999
aI563200
aa(lp804
F9.8000000000000007
aF10.06
aF10
aF10.02
aF9.8800000000000008
aI533600
aa(lp805
F9.9600000000000009
aF10.08
aF10
aF10.02
aF9.8800000000000008
aI742000
aa(lp806
F9.8000000000000007
aF10
aF9.8800000000000008
aF10
aF9.8599999999999994
aI875100
aa(lp807
F9.6999999999999993
aF10.050000000000001
aF9.8800000000000008
aF9.8800000000000008
aF9.75
aI626400
aa(lp808
F9.3900000000000006
aF10
aF9.5299999999999994
aF9.9299999999999997
aF9.7899999999999991
aI540000
aa(lp809
F9.5
aF9.7699999999999996
aF9.6500000000000004
aF9.6199999999999992
aF9.4900000000000002
aI312500
aa(lp810
F9.6500000000000004
aF9.8200000000000003
aF9.8000000000000007
aF9.8000000000000007
aF9.6699999999999999
aI647300
aa(lp811
F9.4000000000000004
aF9.9399999999999995
aF9.4399999999999995
aF9.8499999999999996
aF9.7200000000000006
aI633400
aa(lp812
F9.3800000000000008
aF9.3800000000000008
aF9.3800000000000008
aF9.3800000000000008
aF9.25
aI0
aa(lp813
F9.3800000000000008
aF9.3800000000000008
aF9.3800000000000008
aF9.3800000000000008
aF9.25
aI0
aa(lp814
F9.3800000000000008
aF9.3800000000000008
aF9.3800000000000008
aF9.3800000000000008
aF9.25
aI0
aa(lp815
F9.3000000000000007
aF9.5299999999999994
aF9.4600000000000009
aF9.3800000000000008
aF9.25
aI441300
aa(lp816
F9.3100000000000005
aF9.6799999999999997
aF9.5199999999999996
aF9.3599999999999994
aF9.2300000000000004
aI558500
aa(lp817
F9.5299999999999994
aF10.18
aF10.18
aF9.5399999999999991
aF9.4100000000000001
aI986500
aa(lp818
F10.06
aF10.23
aF10.06
aF10.16
aF10.02
aI621300
aa(lp819
F9.8599999999999994
aF10.109999999999999
aF9.9000000000000004
aF10.050000000000001
aF9.9100000000000001
aI457100
aa(lp820
F9.9199999999999999
aF10.210000000000001
aF10.09
aF9.9700000000000006
aF9.8300000000000001
aI915800
aa(lp821
F10.09
aF10.34
aF10.220000000000001
aF10.24
aF10.1
aI640700
aa(lp822
F10.109999999999999
aF10.369999999999999
aF10.369999999999999
aF10.23
aF10.09
aI805200
aa(lp823
F10.210000000000001
aF10.56
aF10.5
aF10.220000000000001
aF10.08
aI1176200
aa(lp824
F10.26
aF10.58
aF10.4
aF10.57
aF10.43
aI1072800
aa(lp825
F10.19
aF10.449999999999999
aF10.19
aF10.43
aF10.289999999999999
aI1106700
aa(lp826
F10.07
aF10.529999999999999
aF10.460000000000001
aF10.31
aF10.17
aI1754100
aa(lp827
F10.35
aF11.199999999999999
aF11.15
aF10.449999999999999
aF10.31
aI2660300
aa(lp828
F10.880000000000001
aF11.15
aF10.949999999999999
aF11.130000000000001
aF10.98
aI1766300
aa(lp829
F10.800000000000001
aF10.98
aF10.960000000000001
aF10.94
aF10.789999999999999
aI1339900
aa(lp830
F10.779999999999999
aF11
aF10.9
aF10.970000000000001
aF10.82
aI1790800
aa(lp831
F10.699999999999999
aF10.99
aF10.699999999999999
aF10.85
aF10.699999999999999
aI1830400
aa(lp832
F10.67
aF11
aF10.880000000000001
aF10.75
aF10.6
aI4236100
aa(lp833
F10.880000000000001
aF11.470000000000001
aF11
aF11.109999999999999
aF10.960000000000001
aI7063500
aa(lp834
F10.539999999999999
aF11.16
aF10.57
aF11.06
aF10.91
aI5361900
aa(lp835
F10.34
aF10.57
aF10.34
aF10.52
aF10.380000000000001
aI1390800
aa(lp836
F10.220000000000001
aF10.390000000000001
aF10.300000000000001
aF10.300000000000001
aF10.16
aI700300
aa(lp837
F10.24
aF10.460000000000001
aF10.41
aF10.26
aF10.119999999999999
aI928300
aa(lp838
F10.279999999999999
aF10.5
aF10.4
aF10.44
aF10.300000000000001
aI1773500
aa(lp839
F10.48
aF10.74
aF10.529999999999999
aF10.5
aF10.359999999999999
aI2580900
aa(lp840
F10.41
aF10.65
aF10.52
aF10.609999999999999
aF10.470000000000001
aI1709100
aa(lp841
F10.35
aF10.57
aF10.41
aF10.539999999999999
aF10.4
aI2042400
aa(lp842
F10.1
aF10.44
aF10.199999999999999
aF10.44
aF10.300000000000001
aI2391800
aa(lp843
F9.9399999999999995
aF10.220000000000001
aF10.17
aF10.199999999999999
aF10.06
aI1304000
aa(lp844
F10.16
aF10.4
aF10.369999999999999
aF10.17
aF10.029999999999999
aI1113400
aa(lp845
F10.130000000000001
aF10.27
aF10.18
aF10.26
aF10.119999999999999
aI1108600
aa(lp846
F10.07
aF10.279999999999999
aF10.24
aF10.19
aF10.050000000000001
aI1164000
aa(lp847
F9.9700000000000006
aF10.220000000000001
aF10.029999999999999
aF10.210000000000001
aF10.07
aI1493900
aa(lp848
F9.9199999999999999
aF10.1
aF10.06
aF10.02
aF9.8800000000000008
aI713300
aa(lp849
F9.8100000000000005
aF10.130000000000001
aF10
aF10.050000000000001
aF9.9100000000000001
aI1125800
aa(lp850
F9.8800000000000008
aF10.18
aF9.8800000000000008
aF10.01
aF9.8699999999999992
aI1679000
aa(lp851
F9.8800000000000008
aF9.8800000000000008
aF9.8800000000000008
aF9.8800000000000008
aF9.75
aI0
aa(lp852
F9.6199999999999992
aF9.9100000000000001
aF9.7100000000000009
aF9.8800000000000008
aF9.75
aI1096000
aa(lp853
F9.5099999999999998
aF9.8599999999999994
aF9.8599999999999994
aF9.6600000000000001
aF9.5299999999999994
aI695100
aa(lp854
F9.7400000000000002
aF9.9199999999999999
aF9.8499999999999996
aF9.8399999999999999
aF9.7100000000000009
aI911700
aa(lp855
F9.5600000000000005
aF9.8699999999999992
aF9.5700000000000003
aF9.8300000000000001
aF9.6999999999999993
aI918300
aa(lp856
F9.4700000000000006
aF9.6799999999999997
aF9.4700000000000006
aF9.6500000000000004
aF9.5199999999999996
aI634600
aa(lp857
F9.4000000000000004
aF9.6999999999999993
aF9.5999999999999996
aF9.4700000000000006
aF9.3399999999999999
aI556400
aa(lp858
F9.4399999999999995
aF9.6699999999999999
aF9.5199999999999996
aF9.5999999999999996
aF9.4700000000000006
aI350600
aa(lp859
F9.5299999999999994
aF9.7599999999999998
aF9.7599999999999998
aF9.5399999999999991
aF9.4100000000000001
aI547000
aa(lp860
F9.6799999999999997
aF9.6799999999999997
aF9.6799999999999997
aF9.6799999999999997
aF9.5500000000000007
aI0
aa(lp861
F9.6799999999999997
aF9.6799999999999997
aF9.6799999999999997
aF9.6799999999999997
aF9.5500000000000007
aI0
aa(lp862
F9.6799999999999997
aF9.6799999999999997
aF9.6799999999999997
aF9.6799999999999997
aF9.5500000000000007
aI0
aa(lp863
F9.6799999999999997
aF9.6799999999999997
aF9.6799999999999997
aF9.6799999999999997
aF9.5500000000000007
aI0
aa(lp864
F9.6799999999999997
aF9.6799999999999997
aF9.6799999999999997
aF9.6799999999999997
aF9.5500000000000007
aI0
aa(lp865
F9.5
aF9.7100000000000009
aF9.5
aF9.6799999999999997
aF9.5500000000000007
aI516900
aa(lp866
F9.3699999999999992
aF9.6799999999999997
aF9.3699999999999992
aF9.5
aF9.3699999999999992
aI540200
aa(lp867
F9.3000000000000007
aF9.8200000000000003
aF9.7799999999999994
aF9.3599999999999994
aF9.2300000000000004
aI682400
aa(lp868
F9.0399999999999991
aF9.8499999999999996
aF9.0399999999999991
aF9.6899999999999995
aF9.5600000000000005
aI786400
aa(lp869
F9
aF9.5399999999999991
aF9.4199999999999999
aF9
aF8.8800000000000008
aI603500
aa(lp870
F9.3200000000000003
aF9.9100000000000001
aF9.8100000000000005
aF9.4299999999999997
aF9.3000000000000007
aI855300
aa(lp871
F9.8000000000000007
aF10.02
aF9.8000000000000007
aF9.8599999999999994
aF9.7300000000000004
aI736500
aa(lp872
F9.7699999999999996
aF9.9800000000000004
aF9.8499999999999996
aF9.8699999999999992
aF9.7400000000000002
aI1132700
aa(lp873
F9.4600000000000009
aF9.9100000000000001
aF9.5299999999999994
aF9.8800000000000008
aF9.75
aI1220900
aa(lp874
F9.0299999999999994
aF9.5299999999999994
aF9.1600000000000001
aF9.5199999999999996
aF9.3900000000000006
aI634500
aa(lp875
F8.8100000000000005
aF9.1600000000000001
aF8.8800000000000008
aF9.1600000000000001
aF9.0299999999999994
aI488600
aa(lp876
F8.9199999999999999
aF9.3800000000000008
aF9.2599999999999998
aF8.9299999999999997
aF8.8100000000000005
aI409800
aa(lp877
F9.3399999999999999
aF9.75
aF9.6999999999999993
aF9.3499999999999996
aF9.2200000000000006
aI649600
aa(lp878
F9.2100000000000009
aF9.7200000000000006
aF9.2100000000000009
aF9.6600000000000001
aF9.5299999999999994
aI1786000
aa(lp879
F9.2100000000000009
aF9.7200000000000006
aF9.2100000000000009
aF9.6600000000000001
aF9.5299999999999994
aI1786000
aa(lp880
F9.2100000000000009
aF9.7200000000000006
aF9.2100000000000009
aF9.6600000000000001
aF9.5299999999999994
aI1786000
aa(lp881
F8.8000000000000007
aF9.2899999999999991
aF8.8900000000000006
aF9.2799999999999994
aF9.1500000000000004
aI977500
aa(lp882
F8.6899999999999995
aF9.1999999999999993
aF9.1999999999999993
aF8.9499999999999993
aF8.8300000000000001
aI1089600
aa(lp883
F9
aF9.7799999999999994
aF9.7799999999999994
aF9.25
aF9.1199999999999992
aI645200
aa(lp884
F9.6199999999999992
aF9.8800000000000008
aF9.7899999999999991
aF9.6600000000000001
aF9.5299999999999994
aI397200
aa(lp885
F9.6699999999999999
aF9.9600000000000009
aF9.7100000000000009
aF9.8100000000000005
aF9.6799999999999997
aI656400
aa(lp886
F9.5299999999999994
aF9.9399999999999995
aF9.8499999999999996
aF9.7599999999999998
aF9.6300000000000008
aI782400
aa(lp887
F9.9000000000000004
aF10.31
aF10.220000000000001
aF9.9499999999999993
aF9.8100000000000005
aI521900
aa(lp888
F10.050000000000001
aF10.35
aF10.1
aF10.18
aF10.039999999999999
aI712300
aa(lp889
F9.9299999999999997
aF10.25
aF10.25
aF10.15
aF10.01
aI903000
aa(lp890
F9.8699999999999992
aF10.279999999999999
aF9.8699999999999992
aF10.26
aF10.119999999999999
aI799900
aa(lp891
F9.6999999999999993
aF10.35
aF10.35
aF9.8699999999999992
aF9.7400000000000002
aI1439700
aa(lp892
F10.42
aF10.85
aF10.800000000000001
aF10.42
aF10.279999999999999
aI1015000
aa(lp893
F10.529999999999999
aF10.91
aF10.640000000000001
aF10.85
aF10.699999999999999
aI2674600
aa(lp894
F10.4
aF10.76
aF10.4
aF10.75
aF10.6
aI2238800
aa(lp895
F10.18
aF10.43
aF10.199999999999999
aF10.4
aF10.26
aI885100
aa(lp896
F10.199999999999999
aF10.6
aF10.51
aF10.44
aF10.300000000000001
aI1164600
aa(lp897
F10.52
aF10.77
aF10.6
aF10.59
aF10.449999999999999
aI683700
aa(lp898
F10.4
aF10.9
aF10.779999999999999
aF10.58
aF10.44
aI1010700
aa(lp899
F10.75
aF11.34
aF11.34
aF10.800000000000001
aF10.65
aI844900
aa(lp900
F11.119999999999999
aF11.52
aF11.119999999999999
aF11.220000000000001
aF11.07
aI1144300
aa(lp901
F11.109999999999999
aF11.4
aF11.390000000000001
aF11.140000000000001
aF10.99
aI1063800
aa(lp902
F10.800000000000001
aF11.66
aF11.66
aF10.949999999999999
aF10.800000000000001
aI1229000
aa(lp903
F11.460000000000001
aF11.69
aF11.6
aF11.68
aF11.52
aI1169100
aa(lp904
F11.24
aF11.74
aF11.25
aF11.58
aF11.42
aI1795300
aa(lp905
F11.02
aF11.289999999999999
aF11.07
aF11.19
aF11.039999999999999
aI759900
aa(lp906
F10.970000000000001
aF11.17
aF11.17
aF11.09
aF10.94
aI881900
aa(lp907
F11.16
aF11.48
aF11.359999999999999
aF11.17
aF11.02
aI488000
aa(lp908
F11.140000000000001
aF11.380000000000001
aF11.140000000000001
aF11.32
aF11.17
aI469500
aa(lp909
F11.199999999999999
aF11.58
aF11.449999999999999
aF11.35
aF11.199999999999999
aI637800
aa(lp910
F11.380000000000001
aF11.91
aF11.779999999999999
aF11.449999999999999
aF11.289999999999999
aI918900
aa(lp911
F11.81
aF12.050000000000001
aF11.81
aF11.859999999999999
aF11.699999999999999
aI576800
aa(lp912
F11.75
aF12.35
aF12.33
aF11.949999999999999
aF11.789999999999999
aI1695500
aa(lp913
F12.19
aF12.35
aF12.33
aF12.33
aF12.16
aI1276000
aa(lp914
F12.01
aF12.26
aF12.01
aF12.25
aF12.08
aI1128900
aa(lp915
F11.9
aF12.02
aF11.91
aF11.970000000000001
aF11.81
aI641200
aa(lp916
F11.859999999999999
aF12.06
aF12.02
aF11.880000000000001
aF11.720000000000001
aI957500
aa(lp917
F11.800000000000001
aF12.130000000000001
aF12.1
aF12.109999999999999
aF11.94
aI1176600
aa(lp918
F11.9
aF12.33
aF12.300000000000001
aF11.93
aF11.77
aI2304600
aa(lp919
F12.27
aF12.74
aF12.470000000000001
aF12.33
aF12.16
aI3319200
aa(lp920
F12.34
aF12.880000000000001
aF12.41
aF12.49
aF12.32
aI5915000
aa(lp921
F12.18
aF12.880000000000001
aF12.34
aF12.42
aF12.25
aI5744700
aa(lp922
F11.6
aF12.380000000000001
aF11.699999999999999
aF12.34
aF12.17
aI2905600
aa(lp923
F11.52
aF11.859999999999999
aF11.68
aF11.85
aF11.69
aI1396800
aa(lp924
F11.609999999999999
aF11.869999999999999
aF11.640000000000001
aF11.74
aF11.58
aI1536800
aa(lp925
F11.35
aF11.68
aF11.5
aF11.640000000000001
aF11.48
aI1475200
aa(lp926
F11.26
aF11.58
aF11.4
aF11.31
aF11.16
aI1054500
aa(lp927
F11.15
aF11.48
aF11.15
aF11.4
aF11.24
aI1269500
aa(lp928
F11.06
aF11.35
aF11.18
aF11.300000000000001
aF11.15
aI1087500
aa(lp929
F10.609999999999999
aF11.02
aF10.800000000000001
aF11.02
aF10.869999999999999
aI597400
aa(lp930
F10.76
aF11.27
aF10.970000000000001
aF10.800000000000001
aF10.65
aI525800
aa(lp931
F10.81
aF11.380000000000001
aF11.380000000000001
aF10.960000000000001
aF10.81
aI761100
aa(lp932
F11.199999999999999
aF11.550000000000001
aF11.44
aF11.41
aF11.25
aI508800
aa(lp933
F11.23
aF11.699999999999999
aF11.699999999999999
aF11.42
aF11.26
aI872000
aa(lp934
F11.65
aF11.859999999999999
aF11.85
aF11.76
aF11.6
aI811300
aa(lp935
F11.6
aF11.81
aF11.74
aF11.76
aF11.6
aI846500
aa(lp936
F11.56
aF11.84
aF11.68
aF11.77
aF11.609999999999999
aI1094000
aa(lp937
F11.17
aF11.76
aF11.300000000000001
aF11.640000000000001
aF11.48
aI1624600
aa(lp938
F11.18
aF11.48
aF11.380000000000001
aF11.300000000000001
aF11.15
aI635400
aa(lp939
F11.18
aF11.5
aF11.32
aF11.18
aF11.029999999999999
aI466100
aa(lp940
F11.199999999999999
aF11.800000000000001
aF11.800000000000001
aF11.32
aF11.17
aI1270800
aa(lp941
F11.98
aF12.65
aF12.51
aF12.01
aF11.85
aI1191200
aa(lp942
F12.31
aF12.68
aF12.51
aF12.51
aF12.34
aI568800
aa(lp943
F12.42
aF13.199999999999999
aF12.460000000000001
aF12.449999999999999
aF12.279999999999999
aI915900
aa(lp944
F12.18
aF12.48
aF12.18
aF12.44
aF12.27
aI645000
aa(lp945
F12.52
aF12.93
aF12.9
aF12.56
aF12.390000000000001
aI964200
aa(lp946
F12.609999999999999
aF13.01
aF12.67
aF12.99
aF12.81
aI1194400
aa(lp947
F12.44
aF12.699999999999999
aF12.44
aF12.66
aF12.49
aI611200
aa(lp948
F12.4
aF12.82
aF12.82
aF12.460000000000001
aF12.289999999999999
aI731400
aa(lp949
F12.66
aF12.9
aF12.73
aF12.720000000000001
aF12.550000000000001
aI591100
aa(lp950
F12.619999999999999
aF12.81
aF12.699999999999999
aF12.66
aF12.49
aI732500
aa(lp951
F12.300000000000001
aF12.68
aF12.6
aF12.68
aF12.51
aI716000
aa(lp952
F12.35
aF12.66
aF12.66
aF12.58
aF12.41
aI484200
aa(lp953
F12.66
aF13.01
aF12.800000000000001
aF12.789999999999999
aF12.619999999999999
aI544400
aa(lp954
F12.75
aF13.16
aF13.109999999999999
aF12.800000000000001
aF12.630000000000001
aI762600
aa(lp955
F12.85
aF13.130000000000001
aF12.880000000000001
aF13.06
aF12.880000000000001
aI805300
aa(lp956
F12.6
aF12.92
aF12.74
aF12.800000000000001
aF12.630000000000001
aI591300
aa(lp957
F12.75
aF13.15
aF13
aF12.76
aF12.59
aI976700
aa(lp958
F13.130000000000001
aF13.5
aF13.49
aF13.17
aF12.99
aI895400
aa(lp959
F13.4
aF13.720000000000001
aF13.529999999999999
aF13.460000000000001
aF13.279999999999999
aI805300
aa(lp960
F13.31
aF13.609999999999999
aF13.52
aF13.529999999999999
aF13.35
aI694100
aa(lp961
F13.449999999999999
aF13.800000000000001
aF13.6
aF13.48
aF13.300000000000001
aI1083300
aa(lp962
F13.550000000000001
aF13.85
aF13.85
aF13.58
aF13.390000000000001
aI1210900
aa(lp963
F13.720000000000001
aF13.92
aF13.789999999999999
aF13.82
aF13.630000000000001
aI1481500
aa(lp964
F13.48
aF13.92
aF13.550000000000001
aF13.859999999999999
aF13.67
aI1893400
aa(lp965
F13.57
aF13.9
aF13.779999999999999
aF13.58
aF13.390000000000001
aI1749600
aa(lp966
F13.449999999999999
aF13.880000000000001
aF13.59
aF13.710000000000001
aF13.52
aI1782500
aa(lp967
F13.57
aF14.19
aF13.9
aF13.59
aF13.4
aI2882000
aa(lp968
F13.75
aF14.69
aF13.81
aF14.050000000000001
aF13.859999999999999
aI5363600
aa(lp969
F14.18
aF14.880000000000001
aF14.539999999999999
aF14.41
aF14.210000000000001
aI8673500
aa(lp970
F13.630000000000001
aF15.16
aF13.68
aF14.710000000000001
aF14.51
aI10124300
aa(lp971
F13.48
aF13.82
aF13.81
aF13.789999999999999
aF13.6
aI3289700
aa(lp972
F13.300000000000001
aF13.75
aF13.460000000000001
aF13.699999999999999
aF13.51
aI2802200
aa(lp973
F13.220000000000001
aF13.48
aF13.26
aF13.41
aF13.23
aI1978400
aa(lp974
F12.33
aF13.210000000000001
aF12.33
aF13.18
aF13
aI1691300
aa(lp975
F12.800000000000001
aF13.08
aF13.029999999999999
aF12.83
aF12.65
aI1641400
aa(lp976
F12.07
aF12.85
aF12.300000000000001
aF12.69
aF12.52
aI2052900
aa(lp977
F12.289999999999999
aF13.51
aF13.449999999999999
aF12.699999999999999
aF12.529999999999999
aI2439200
aa(lp978
F13
aF13.92
aF13.460000000000001
aF13.640000000000001
aF13.449999999999999
aI1791700
aa(lp979
F13.800000000000001
aF14.16
aF14.029999999999999
aF13.949999999999999
aF13.76
aI1634400
aa(lp980
F13.720000000000001
aF14.08
aF13.75
aF14.06
aF13.869999999999999
aI1214400
aa(lp981
F13.58
aF14
aF14
aF13.869999999999999
aF13.68
aI1432700
aa(lp982
F13.75
aF14.119999999999999
aF13.84
aF14
aF13.81
aI1289400
aa(lp983
F13.73
aF14.24
aF14.15
aF13.890000000000001
aF13.699999999999999
aI1651600
aa(lp984
F14.050000000000001
aF14.199999999999999
aF14.08
aF14.15
aF13.960000000000001
aI1467800
aa(lp985
F14.01
aF14.34
aF14.279999999999999
aF14.289999999999999
aF14.09
aI3996100
aa(lp986
F13.880000000000001
aF14.289999999999999
aF14.199999999999999
aF14.289999999999999
aF14.09
aI2431000
aa(lp987
F14.15
aF15.1
aF15.1
aF14.199999999999999
aF14.01
aI4609900
aa(lp988
F15.18
aF15.73
aF15.609999999999999
aF15.220000000000001
aF15.01
aI4912300
aa(lp989
F15.34
aF15.789999999999999
aF15.449999999999999
aF15.640000000000001
aF15.43
aI8618500
aa(lp990
F15.15
aF15.57
aF15.19
aF15.550000000000001
aF15.34
aI4093000
aa(lp991
F15.09
aF15.32
aF15.32
aF15.18
aF14.970000000000001
aI2061300
aa(lp992
F15
aF15.4
aF15.220000000000001
aF15.369999999999999
aF15.16
aI2847800
aa(lp993
F14.91
aF15.23
aF15.07
aF15.210000000000001
aF15
aI2807400
aa(lp994
F14.85
aF15.09
aF14.880000000000001
aF15.08
aF14.869999999999999
aI2134600
aa(lp995
F14.5
aF14.9
aF14.6
aF14.869999999999999
aF14.67
aI2526200
aa(lp996
F14.550000000000001
aF15
aF15
aF14.6
aF14.4
aI2439200
aa(lp997
F14.859999999999999
aF15.17
aF15.029999999999999
aF15.08
aF14.869999999999999
aI2204400
aa(lp998
F14.779999999999999
aF15.23
aF15.06
aF14.92
aF14.720000000000001
aI2898400
aa(lp999
F15.130000000000001
aF15.48
aF15.300000000000001
aF15.15
aF14.94
aI3781900
aa(lp1000
F15.19
aF15.6
aF15.6
aF15.32
aF15.109999999999999
aI2703700
aa(lp1001
F15.109999999999999
aF15.56
aF15.390000000000001
aF15.529999999999999
aF15.32
aI4635300
aa(lp1002
F14.880000000000001
aF15.289999999999999
aF14.92
aF15.27
aF15.06
aI3439000
aa(lp1003
F14.74
aF14.970000000000001
aF14.92
aF14.91
aF14.710000000000001
aI1922700
aa(lp1004
F14.77
aF14.99
aF14.82
aF14.92
aF14.720000000000001
aI2330100
aa(lp1005
F14.73
aF15.199999999999999
aF15.140000000000001
aF14.81
aF14.609999999999999
aI1846300
aa(lp1006
F15.029999999999999
aF15.4
aF15.35
aF15.119999999999999
aF14.91
aI2197800
aa(lp1007
F15.130000000000001
aF15.5
aF15.289999999999999
aF15.34
aF15.130000000000001
aI3390400
aa(lp1008
F14.859999999999999
aF15.460000000000001
aF14.99
aF15.289999999999999
aF15.08
aI3185800
aa(lp1009
F14.6
aF15.08
aF14.6
aF15.02
aF14.81
aI975400
aa(lp1010
F14.56
aF14.81
aF14.67
aF14.720000000000001
aF14.52
aI609800
aa(lp1011
F14.34
aF14.74
aF14.6
aF14.67
aF14.470000000000001
aI669700
aa(lp1012
F14.140000000000001
aF14.699999999999999
aF14.56
aF14.51
aF14.31
aI1122200
aa(lp1013
F14.6
aF15.09
aF14.859999999999999
aF14.83
aF14.630000000000001
aI1038400
aa(lp1014
F14.949999999999999
aF15.49
aF15.27
aF14.960000000000001
aF14.76
aI1400500
aa(lp1015
F14.720000000000001
aF15.5
aF14.94
aF15.33
aF15.119999999999999
aI2010900
aa(lp1016
F14.619999999999999
aF15.06
aF14.85
aF14.880000000000001
aF14.68
aI1078400
aa(lp1017
F14.4
aF15.029999999999999
aF14.5
aF14.880000000000001
aF14.68
aI1384800
aa(lp1018
F14.630000000000001
aF15.08
aF15.07
aF14.640000000000001
aF14.44
aI1569900
aa(lp1019
F14.619999999999999
aF15.199999999999999
aF14.69
aF15.07
aF14.859999999999999
aI2424600
aa(lp1020
F14.4
aF15.199999999999999
aF15
aF14.99
aF14.789999999999999
aI3816800
aa(lp1021
F13.65
aF14.98
aF13.65
aF14.710000000000001
aF14.51
aI4139400
aa(lp1022
F13.43
aF13.779999999999999
aF13.699999999999999
aF13.619999999999999
aF13.43
aI1229300
aa(lp1023
F13.66
aF13.960000000000001
aF13.869999999999999
aF13.949999999999999
aF13.76
aI1376100
aa(lp1024
F13.41
aF13.869999999999999
aF13.49
aF13.859999999999999
aF13.67
aI1807800
aa(lp1025
F13.359999999999999
aF13.83
aF13.82
aF13.460000000000001
aF13.279999999999999
aI1195700
aa(lp1026
F13.710000000000001
aF14.800000000000001
aF14.73
aF13.76
aF13.57
aI2103400
aa(lp1027
F14.699999999999999
aF15.050000000000001
aF14.699999999999999
aF14.720000000000001
aF14.52
aI1024400
aa(lp1028
F14.619999999999999
aF14.99
aF14.92
aF14.69
aF14.49
aI1256500
aa(lp1029
F14.66
aF14.98
aF14.800000000000001
aF14.91
aF14.710000000000001
aI1273100
aa(lp1030
F14.779999999999999
aF15.32
aF15.32
aF14.83
aF14.630000000000001
aI1779000
aa(lp1031
F15.300000000000001
aF15.83
aF15.75
aF15.35
aF15.140000000000001
aI2247000
aa(lp1032
F15.699999999999999
aF16.399999999999999
aF16.260000000000002
aF15.75
aF15.539999999999999
aI3091000
aa(lp1033
F16.109999999999999
aF16.399999999999999
aF16.280000000000001
aF16.300000000000001
aF16.079999999999998
aI1629900
aa(lp1034
F16
aF16.530000000000001
aF16.239999999999998
aF16.309999999999999
aF16.09
aI2891700
aa(lp1035
F15.800000000000001
aF16.48
aF15.9
aF16.280000000000001
aF16.059999999999999
aI3272000
aa(lp1036
F15.51
aF15.970000000000001
aF15.75
aF15.9
aF15.68
aI2039400
aa(lp1037
F15.81
aF16.09
aF15.93
aF15.82
aF15.6
aI2113600
aa(lp1038
F15.67
aF16.109999999999999
aF15.98
aF16.07
aF15.85
aI2776300
aa(lp1039
F15.75
aF16.239999999999998
aF15.800000000000001
aF15.859999999999999
aF15.640000000000001
aI2425800
aa(lp1040
F15.720000000000001
aF16.149999999999999
aF15.880000000000001
aF15.83
aF15.609999999999999
aI1955800
aa(lp1041
F15.32
aF16.120000000000001
aF15.51
aF15.699999999999999
aF15.49
aI3025700
aa(lp1042
F15.609999999999999
aF16
aF16
aF15.73
aF15.52
aI3238700
aa(lp1043
F15.48
aF17.18
aF17.18
aF16.25
aF16.030000000000001
aI6910700
aa(lp1044
F16.640000000000001
aF17.460000000000001
aF17.210000000000001
aF17.199999999999999
aF16.969999999999999
aI3982900
aa(lp1045
F16.77
aF17.899999999999999
aF16.879999999999999
aF17.48
aF17.239999999999998
aI7154700
aa(lp1046
F16.559999999999999
aF17.399999999999999
aF16.719999999999999
aF16.949999999999999
aF16.719999999999999
aI5357100
aa(lp1047
F16.399999999999999
aF17.23
aF16.949999999999999
aF16.719999999999999
aF16.489999999999998
aI4211900
aa(lp1048
F16.91
aF18
aF17.350000000000001
aF16.949999999999999
aF16.719999999999999
aI6156400
aa(lp1049
F16.960000000000001
aF18.120000000000001
aF17.649999999999999
aF17.629999999999999
aF17.390000000000001
aI8488100
aa(lp1050
F17.050000000000001
aF17.899999999999999
aF17.550000000000001
aF17.600000000000001
aF17.359999999999999
aI7812100
aa(lp1051
F16.59
aF17.940000000000001
aF16.850000000000001
aF17.579999999999998
aF17.34
aI15468600
aa(lp1052
F16.440000000000001
aF17
aF16.82
aF16.579999999999998
aF16.350000000000001
aI5297500
aa(lp1053
F16.25
aF17.050000000000001
aF16.66
aF16.760000000000002
aF16.530000000000001
aI7627800
aa(lp1054
F16.010000000000002
aF17.050000000000001
aF16.199999999999999
aF16.780000000000001
aF16.550000000000001
aI14800200
aa(lp1055
F15.35
aF16.079999999999998
aF15.529999999999999
aF16.010000000000002
aF15.789999999999999
aI10115400
aa(lp1056
F14.9
aF15.300000000000001
aF14.9
aF15.289999999999999
aF15.08
aI3950400
aa(lp1057
F14.699999999999999
aF14.91
aF14.91
aF14.9
aF14.699999999999999
aI1963400
aa(lp1058
F14.800000000000001
aF15.199999999999999
aF15.07
aF14.890000000000001
aF14.69
aI2048400
aa(lp1059
F14.880000000000001
aF15.460000000000001
aF14.949999999999999
aF15.16
aF14.949999999999999
aI4070100
aa(lp1060
F14.609999999999999
aF14.949999999999999
aF14.720000000000001
aF14.92
aF14.720000000000001
aI2104400
aa(lp1061
F14.68
aF14.94
aF14.880000000000001
aF14.710000000000001
aF14.51
aI2174900
aa(lp1062
F14.630000000000001
aF14.970000000000001
aF14.800000000000001
aF14.859999999999999
aF14.66
aI1356500
aa(lp1063
F14.5
aF14.880000000000001
aF14.75
aF14.859999999999999
aF14.66
aI1213300
aa(lp1064
F14.59
aF14.880000000000001
aF14.699999999999999
aF14.619999999999999
aF14.42
aI1627500
aa(lp1065
F14.58
aF15.1
aF15.050000000000001
aF14.68
aF14.48
aI3077000
aa(lp1066
F15.02
aF15.779999999999999
aF15.699999999999999
aF15.039999999999999
aF14.83
aI4517800
aa(lp1067
F15.59
aF16.039999999999999
aF15.83
aF15.640000000000001
aF15.43
aI3392900
aa(lp1068
F15.57
aF16.030000000000001
aF15.800000000000001
aF15.83
aF15.609999999999999
aI3622400
aa(lp1069
F15.76
aF15.960000000000001
aF15.869999999999999
aF15.800000000000001
aF15.58
aI2506800
aa(lp1070
F15.49
aF15.859999999999999
aF15.630000000000001
aF15.85
aF15.630000000000001
aI2674200
aa(lp1071
F15.42
aF15.800000000000001
aF15.75
aF15.59
aF15.380000000000001
aI1909400
aa(lp1072
F15.42
aF15.869999999999999
aF15.5
aF15.710000000000001
aF15.5
aI2810500
aa(lp1073
F15.32
aF15.699999999999999
aF15.390000000000001
aF15.52
aF15.31
aI2995900
aa(lp1074
F15.25
aF15.699999999999999
aF15.699999999999999
aF15.289999999999999
aF15.08
aI3532500
aa(lp1075
F15.4
aF15.85
aF15.57
aF15.81
aF15.59
aI5206300
aa(lp1076
F15.199999999999999
aF15.9
aF15.890000000000001
aF15.529999999999999
aF15.32
aI5739800
aa(lp1077
F15.710000000000001
aF16.300000000000001
aF16.149999999999999
aF16
aF15.779999999999999
aI4198700
aa(lp1078
F15.85
aF16.550000000000001
aF16.100000000000001
aF16.190000000000001
aF15.970000000000001
aI7251600
aa(lp1079
F15.83
aF16.34
aF16.100000000000001
aF15.890000000000001
aF15.67
aI6391700
aa(lp1080
F15.35
aF16.390000000000001
aF15.529999999999999
aF16.190000000000001
aF15.970000000000001
aI12935000
aa(lp1081
F14.98
aF15.449999999999999
aF15.029999999999999
aF15.43
aF15.220000000000001
aI5678700
aa(lp1082
F14.93
aF15.1
aF15
aF15.07
aF14.859999999999999
aI3892900
aa(lp1083
F14.65
aF15.08
aF14.67
aF14.970000000000001
aF14.77
aI2456700
aa(lp1084
F14.69
aF15.15
aF15.1
aF14.699999999999999
aF14.5
aI3087400
aa(lp1085
F14.720000000000001
aF15.17
aF14.85
aF15.140000000000001
aF14.93
aI3658600
aa(lp1086
F14.779999999999999
aF15.050000000000001
aF15.029999999999999
aF14.880000000000001
aF14.68
aI3616500
aa(lp1087
F14.52
aF15.039999999999999
aF14.73
aF15.039999999999999
aF14.83
aI3479900
aa(lp1088
F14.460000000000001
aF14.74
aF14.699999999999999
aF14.65
aF14.449999999999999
aI1558300
aa(lp1089
F14.41
aF14.789999999999999
aF14.460000000000001
aF14.69
aF14.49
aI2598300
aa(lp1090
F14.31
aF14.58
aF14.31
aF14.460000000000001
aF14.26
aI2535000
aa(lp1091
F14.390000000000001
aF15.050000000000001
aF15.050000000000001
aF14.4
aF14.199999999999999
aI3863100
aa(lp1092
F14.710000000000001
aF15.199999999999999
aF14.710000000000001
aF15
aF14.800000000000001
aI3102700
aa(lp1093
F14.73
aF15.16
aF15.140000000000001
aF14.74
aF14.539999999999999
aI3535900
aa(lp1094
F15
aF15.31
aF15.300000000000001
aF15.140000000000001
aF14.93
aI3644100
aa(lp1095
F14.65
aF15.34
aF14.800000000000001
aF15.32
aF15.109999999999999
aI6022200
aa(lp1096
F14.800000000000001
aF15.279999999999999
aF15.02
aF14.84
aF14.640000000000001
aI5045600
aa(lp1097
F14.83
aF15.09
aF14.98
aF15.029999999999999
aF14.82
aI4726800
aa(lp1098
F14.699999999999999
aF15.380000000000001
aF14.699999999999999
aF14.970000000000001
aF14.77
aI6109100
aa(lp1099
F14.369999999999999
aF14.77
aF14.550000000000001
aF14.74
aF14.539999999999999
aI3482000
aa(lp1100
F14.199999999999999
aF14.85
aF14.26
aF14.66
aF14.460000000000001
aI4292900
aa(lp1101
F14.43
aF14.85
aF14.75
aF14.460000000000001
aF14.26
aI3771300
aa(lp1102
F14.15
aF15.050000000000001
aF14.24
aF14.83
aF14.630000000000001
aI7477400
aa(lp1103
F13.710000000000001
aF14.380000000000001
aF13.800000000000001
aF14.25
aF14.06
aI5940600
aa(lp1104
F13.58
aF14.19
aF13.699999999999999
aF13.859999999999999
aF13.67
aI7087100
aa(lp1105
F13.23
aF13.83
aF13.300000000000001
aF13.81
aF13.619999999999999
aI5493300
aa(lp1106
F12.85
aF13.35
aF12.92
aF13.32
aF13.140000000000001
aI3293400
aa(lp1107
F12.81
aF13.1
aF13.09
aF12.92
aF12.74
aI2150500
aa(lp1108
F12.75
aF13.15
aF12.76
aF13.119999999999999
aF12.94
aI4263700
aa(lp1109
F12.73
aF13.449999999999999
aF13.449999999999999
aF12.789999999999999
aF12.619999999999999
aI3532400
aa(lp1110
F13.029999999999999
aF13.539999999999999
aF13.109999999999999
aF13.449999999999999
aF13.27
aI3888200
aa(lp1111
F12.85
aF13.16
aF13
aF13.119999999999999
aF12.94
aI1998800
aa(lp1112
F12.800000000000001
aF13.74
aF13.73
aF13.09
aF12.91
aI5292300
aa(lp1113
F14.029999999999999
aF14.300000000000001
aF14.26
aF14.140000000000001
aF13.949999999999999
aI4051700
aa(lp1114
F13.99
aF14.449999999999999
aF14.050000000000001
aF14.26
aF14.07
aI4679200
aa(lp1115
F14.119999999999999
aF15.300000000000001
aF15.300000000000001
aF14.300000000000001
aF14.1
aI12364300
aa(lp1116
F15.449999999999999
aF15.859999999999999
aF15.640000000000001
aF15.69
aF15.48
aI2760000
aa(lp1117
F15.449999999999999
aF15.789999999999999
aF15.56
aF15.65
aF15.44
aI2755700
aa(lp1118
F15.58
aF15.99
aF15.949999999999999
aF15.68
aF15.470000000000001
aI2602900
aa(lp1119
F15.83
aF16.149999999999999
aF16.010000000000002
aF15.949999999999999
aF15.73
aI2297100
aa(lp1120
F15.9
aF16.280000000000001
aF16.059999999999999
aF16.149999999999999
aF15.93
aI1966300
aa(lp1121
F15.68
aF16.149999999999999
aF15.68
aF16.030000000000001
aF15.81
aI2079300
aa(lp1122
F15.449999999999999
aF15.76
aF15.75
aF15.67
aF15.460000000000001
aI1752200
aa(lp1123
F15.4
aF15.75
aF15.460000000000001
aF15.720000000000001
aF15.51
aI1941600
aa(lp1124
F15.449999999999999
aF16.120000000000001
aF15.9
aF15.470000000000001
aF15.26
aI2895700
aa(lp1125
F15.880000000000001
aF16.75
aF16.5
aF16
aF15.779999999999999
aI2561700
aa(lp1126
F16.260000000000002
aF16.66
aF16.260000000000002
aF16.420000000000002
aF16.199999999999999
aI2258800
aa(lp1127
F16.550000000000001
aF17.170000000000002
aF16.879999999999999
aF16.620000000000001
aF16.390000000000001
aI4067800
aa(lp1128
F17.059999999999999
aF17.5
aF17.469999999999999
aF17.140000000000001
aF16.91
aI3669600
aa(lp1129
F16.93
aF17.48
aF17.210000000000001
aF17.390000000000001
aF17.149999999999999
aI4216300
aa(lp1130
F16.850000000000001
aF17.879999999999999
aF17.84
aF17.219999999999999
aF16.98
aI6198700
aa(lp1131
F17.140000000000001
aF17.710000000000001
aF17.18
aF17.539999999999999
aF17.300000000000001
aI5795500
aa(lp1132
F17.129999999999999
aF17.469999999999999
aF17.129999999999999
aF17.199999999999999
aF16.969999999999999
aI3952900
aa(lp1133
F17.129999999999999
aF17.52
aF17.399999999999999
aF17.18
aF16.949999999999999
aI4287400
aa(lp1134
F17.059999999999999
aF17.449999999999999
aF17.190000000000001
aF17.41
aF17.170000000000002
aI5042600
aa(lp1135
F16.670000000000002
aF17.300000000000001
aF16.670000000000002
aF17.219999999999999
aF16.98
aI6369000
aa(lp1136
F16.309999999999999
aF16.850000000000001
aF16.309999999999999
aF16.640000000000001
aF16.41
aI3000900
aa(lp1137
F16.609999999999999
aF17.09
aF16.649999999999999
aF16.640000000000001
aF16.41
aI3140100
aa(lp1138
F16.699999999999999
aF17.25
aF16.800000000000001
aF16.829999999999998
aF16.600000000000001
aI3590500
aa(lp1139
F16.359999999999999
aF16.899999999999999
aF16.609999999999999
aF16.809999999999999
aF16.579999999999998
aI3422900
aa(lp1140
F16.600000000000001
aF17.350000000000001
aF17.149999999999999
aF16.73
aF16.5
aI5977700
aa(lp1141
F17.149999999999999
aF17.93
aF17.82
aF17.289999999999999
aF17.050000000000001
aI9005800
aa(lp1142
F17.5
aF18.190000000000001
aF17.780000000000001
aF17.59
aF17.350000000000001
aI12322000
aa(lp1143
F17
aF17.890000000000001
aF17.149999999999999
aF17.59
aF17.350000000000001
aI10482200
aa(lp1144
F17.52
aF17.52
aF17.52
aF17.52
aF17.280000000000001
aI0
aa(lp1145
F17.079999999999998
aF17.690000000000001
aF17.530000000000001
aF17.52
aF17.280000000000001
aI10967400
aa(lp1146
F16.350000000000001
aF17.5
aF16.66
aF17.420000000000002
aF17.18
aI12185000
aa(lp1147
F16.510000000000002
aF16.800000000000001
aF16.75
aF16.690000000000001
aF16.460000000000001
aI6310300
aa(lp1148
F15.880000000000001
aF16.579999999999998
aF15.970000000000001
aF16.510000000000002
aF16.280000000000001
aI4872700
aa(lp1149
F15.75
aF16.379999999999999
aF16.379999999999999
aF15.98
aF15.76
aI4695300
aa(lp1150
F16.199999999999999
aF16.73
aF16.399999999999999
aF16.460000000000001
aF16.239999999999998
aI5776900
aa(lp1151
F15.880000000000001
aF16.530000000000001
aF16.16
aF16.5
aF16.27
aI4708600
aa(lp1152
F15.609999999999999
aF16.390000000000001
aF16.100000000000001
aF16.02
aF15.800000000000001
aI4624300
aa(lp1153
F15.800000000000001
aF16.539999999999999
aF16.140000000000001
aF16.079999999999998
aF15.859999999999999
aI4383200
aa(lp1154
F16.300000000000001
aF17.190000000000001
aF16.649999999999999
aF16.550000000000001
aF16.32
aI9725800
aa(lp1155
F15.9
aF16.440000000000001
aF16.18
aF16.359999999999999
aF16.140000000000001
aI5377600
aa(lp1156
F15.880000000000001
aF17.57
aF17.199999999999999
aF16.09
aF15.869999999999999
aI11961400
aa(lp1157
F17.350000000000001
aF18.219999999999999
aF17.75
aF17.399999999999999
aF17.16
aI11106600
aa(lp1158
F17.600000000000001
aF18.170000000000002
aF17.800000000000001
aF17.82
aF17.579999999999998
aI10205600
aa(lp1159
F16.800000000000001
aF18.649999999999999
aF16.91
aF17.98
aF17.73
aI19661600
aa(lp1160
F16.710000000000001
aF17.09
aF17.050000000000001
aF16.98
aF16.75
aI10939100
aa(lp1161
F16.449999999999999
aF17.100000000000001
aF16.739999999999998
aF16.98
aF16.75
aI13473000
aa(lp1162
F16.399999999999999
aF16.829999999999998
aF16.41
aF16.66
aF16.43
aI6662700
aa(lp1163
F16.100000000000001
aF17
aF16.52
aF16.41
aF16.190000000000001
aI8983500
aa(lp1164
F16.530000000000001
aF17.149999999999999
aF16.899999999999999
aF16.559999999999999
aF16.329999999999998
aI12991300
aa(lp1165
F16.469999999999999
aF17.25
aF16.57
aF17.140000000000001
aF16.91
aI15427600
aa(lp1166
F16.280000000000001
aF16.93
aF16.68
aF16.489999999999998
aF16.260000000000002
aI8403100
aa(lp1167
F16.280000000000001
aF16.93
aF16.68
aF16.41
aF16.190000000000001
aI8571200
aa(lp1168
F15.619999999999999
aF17.02
aF15.880000000000001
aF16.59
aF16.359999999999999
aI15007700
aa(lp1169
F15.800000000000001
aF16.34
aF16.280000000000001
aF15.92
aF15.699999999999999
aI9155700
aa(lp1170
F15.58
aF16.289999999999999
aF16.219999999999999
aF16.260000000000002
aF16.039999999999999
aI12389400
aa(lp1171
F16.199999999999999
aF16.760000000000002
aF16.449999999999999
aF16.25
aF16.030000000000001
aI11411400
aa(lp1172
F16.109999999999999
aF17.199999999999999
aF16.27
aF16.609999999999999
aF16.379999999999999
aI15589300
aa(lp1173
F15.970000000000001
aF16.760000000000002
aF16.239999999999998
aF16.440000000000001
aF16.219999999999999
aI20327600
aa(lp1174
F16.859999999999999
aF18.25
aF17.260000000000002
aF16.989999999999998
aF16.760000000000002
aI35425900
aa(lp1175
F15
aF16.75
aF15.300000000000001
aF16.75
aF16.52
aI31380600
aa(lp1176
F14.880000000000001
aF15.48
aF14.98
aF15.23
aF15.02
aI19723100
aa(lp1177
F14.68
aF15.31
aF15.06
aF14.789999999999999
aF14.59
aI20098700
aa(lp1178
F15
aF15.75
aF15.4
aF15.43
aF15.220000000000001
aI34087400
aa(lp1179
F16.25
aF17.199999999999999
aF16.98
aF16.25
aF16.030000000000001
aI50514700
aa(lp1180
F14.57
aF19.210000000000001
aF15.880000000000001
aF18.050000000000001
aF17.800000000000001
aI74397000
aa.