(lp1
(lp2
F26.300000000000001
aF27.879999999999999
aF26.789999999999999
aF26.670000000000002
aF26.670000000000002
aI86250800
aa(lp3
F25.91
aF28.5
aF27.879999999999999
aF27.079999999999998
aF27.079999999999998
aI131942400
aa(lp4
F28.219999999999999
aF30.52
aF28.68
aF28.68
aF28.68
aI251737100
aa(lp5
F25.100000000000001
aF28.399999999999999
aF25.100000000000001
aF28.399999999999999
aF28.399999999999999
aI213525200
aa(lp6
F25.82
aF25.82
aF25.82
aF25.82
aF25.82
aI0
aa(lp7
F24.510000000000002
aF26
aF25.02
aF25.82
aF25.82
aI126234200
aa(lp8
F24.350000000000001
aF26.300000000000001
aF25.949999999999999
aF24.420000000000002
aF24.420000000000002
aI123927000
aa(lp9
F25.66
aF29.460000000000001
aF26.050000000000001
aF27.059999999999999
aF27.059999999999999
aI226174200
aa(lp10
F27.120000000000001
aF27.120000000000001
aF27.120000000000001
aF27.120000000000001
aF27.120000000000001
aI7782900
aa(lp11
F30.129999999999999
aF30.129999999999999
aF30.129999999999999
aF30.129999999999999
aF30.129999999999999
aI11054900
aa(lp12
F33.479999999999997
aF33.479999999999997
aF33.479999999999997
aF33.479999999999997
aF33.479999999999997
aI0
aa(lp13
F30.109999999999999
aF33.479999999999997
aF30.579999999999998
aF33.479999999999997
aF33.479999999999997
aI192911200
aa(lp14
F29.059999999999999
aF31.199999999999999
aF29.710000000000001
aF30.440000000000001
aF30.440000000000001
aI61662600
aa(lp15
F29.68
aF31.989999999999998
aF31.699999999999999
aF29.859999999999999
aF29.859999999999999
aI90892000
aa(lp16
F32
aF33.979999999999997
aF33
aF32.210000000000001
aF32.210000000000001
aI94272900
aa(lp17
F31.309999999999999
aF32.700000000000003
aF31.5
aF32.130000000000003
aF32.130000000000003
aI71767900
aa(lp18
F32.280000000000001
aF33.829999999999998
aF33.5
aF32.460000000000001
aF32.460000000000001
aI96867800
aa(lp19
F32.899999999999999
aF34.549999999999997
aF33.740000000000002
aF33.490000000000002
aF33.490000000000002
aI106571000
aa(lp20
F32
aF35
aF35
aF33.539999999999999
aF33.539999999999999
aI151155300
aa(lp21
F32.670000000000002
aF32.670000000000002
aF32.670000000000002
aF32.670000000000002
aF32.670000000000002
aI3847700
aa(lp22
F29.699999999999999
aF29.699999999999999
aF29.699999999999999
aF29.699999999999999
aF29.699999999999999
aI0
aa(lp23
F29.699999999999999
aF29.699999999999999
aF29.699999999999999
aF29.699999999999999
aF29.699999999999999
aI0
aa(lp24
F29.699999999999999
aF29.699999999999999
aF29.699999999999999
aF29.699999999999999
aF29.699999999999999
aI0
aa(lp25
F29.699999999999999
aF29.699999999999999
aF29.699999999999999
aF29.699999999999999
aF29.699999999999999
aI0
aa(lp26
F29.699999999999999
aF29.699999999999999
aF29.699999999999999
aF29.699999999999999
aF29.699999999999999
aI0
aa(lp27
F29.699999999999999
aF29.699999999999999
aF29.699999999999999
aF29.699999999999999
aF29.699999999999999
aI0
aa(lp28
F29.699999999999999
aF29.699999999999999
aF29.699999999999999
aF29.699999999999999
aF29.699999999999999
aI0
aa(lp29
F28.989999999999998
aF31.280000000000001
aF31.199999999999999
aF29.699999999999999
aF29.699999999999999
aI93462900
aa(lp30
F29.399999999999999
aF31.149999999999999
aF29.399999999999999
aF30.800000000000001
aF30.800000000000001
aI100483500
aa(lp31
F29.02
aF29.02
aF29.02
aF29.02
aF29.02
aI0
aa(lp32
F28.600000000000001
aF29.280000000000001
aF28.98
aF29.02
aF29.02
aI62473200
aa(lp33
F29.100000000000001
aF30
aF29.989999999999998
aF29.34
aF29.34
aI66290800
aa(lp34
F29
aF29.879999999999999
aF29.329999999999998
aF29.68
aF29.68
aI71104400
aa(lp35
F28.710000000000001
aF30.739999999999998
aF29.010000000000002
aF29.559999999999999
aF29.559999999999999
aI98139600
aa(lp36
F28.609999999999999
aF30.100000000000001
aF30.010000000000002
aF29.18
aF29.18
aI124906300
aa(lp37
F30.100000000000001
aF31.890000000000001
aF31.399999999999999
aF30.489999999999998
aF30.489999999999998
aI91088800
aa(lp38
F30.059999999999999
aF34.469999999999999
aF32.450000000000003
aF31.510000000000002
aF31.510000000000002
aI186058200
aa(lp39
F27.789999999999999
aF31.48
aF28.34
aF31.48
aF31.48
aI151701100
aa(lp40
F27.800000000000001
aF29.68
aF28.5
aF28.620000000000001
aF28.620000000000001
aI141649200
aa(lp41
F27.859999999999999
aF29.789999999999999
aF28.300000000000001
aF28.940000000000001
aF28.940000000000001
aI127250600
aa(lp42
F27.050000000000001
aF28.379999999999999
aF27.649999999999999
aF27.66
aF27.66
aI144884000
aa(lp43
F25.859999999999999
aF28.300000000000001
aF26.199999999999999
aF27.620000000000001
aF27.620000000000001
aI201813700
aa(lp44
F24.600000000000001
aF27
aF24.800000000000001
aF26.370000000000001
aF26.370000000000001
aI159828400
aa(lp45
F24.949999999999999
aF26.100000000000001
aF25.859999999999999
aF25.77
aF25.77
aI120836000
aa(lp46
F24.5
aF26.489999999999998
aF24.899999999999999
aF25.780000000000001
aF25.780000000000001
aI159690900
aa(lp47
F24
aF24.920000000000002
aF24.16
aF24.649999999999999
aF24.649999999999999
aI80045200
aa(lp48
F23.850000000000001
aF27.359999999999999
aF27.359999999999999
aF24.829999999999998
aF24.829999999999998
aI137671800
aa(lp49
F24.399999999999999
aF25.390000000000001
aF25
aF24.870000000000001
aF24.870000000000001
aI102573200
aa(lp50
F24
aF25.280000000000001
aF24.75
aF24.879999999999999
aF24.879999999999999
aI100240800
aa(lp51
F23.010000000000002
aF25.350000000000001
aF23.699999999999999
aF24.829999999999998
aF24.829999999999998
aI123758300
aa(lp52
F23.550000000000001
aF25.27
aF25.09
aF24.199999999999999
aF24.199999999999999
aI123001200
aa(lp53
F24.289999999999999
aF25.879999999999999
aF25.5
aF25.210000000000001
aF25.210000000000001
aI150568600
aa(lp54
F25.5
aF27.66
aF26.5
aF25.77
aF25.77
aI175315600
aa(lp55
F25.41
aF27.949999999999999
aF25.460000000000001
aF26.59
aF26.59
aI281989500
aa(lp56
F22.550000000000001
aF25.41
aF23.350000000000001
aF25.41
aF25.41
aI241951700
aa(lp57
F22.199999999999999
aF23.300000000000001
aF22.989999999999998
aF23.100000000000001
aF23.100000000000001
aI148653800
aa(lp58
F22
aF23.02
aF22.399999999999999
aF22.789999999999999
aF22.789999999999999
aI141635600
aa(lp59
F21.699999999999999
aF23.84
aF23.5
aF22.5
aF22.5
aI134440700
aa(lp60
F23.23
aF23.23
aF23.23
aF23.23
aF23.23
aI0
aa(lp61
F23.23
aF23.23
aF23.23
aF23.23
aF23.23
aI0
aa(lp62
F23.23
aF23.23
aF23.23
aF23.23
aF23.23
aI0
aa(lp63
F23.23
aF23.23
aF23.23
aF23.23
aF23.23
aI0
aa(lp64
F23.23
aF23.23
aF23.23
aF23.23
aF23.23
aI0
aa(lp65
F22.699999999999999
aF23.59
aF23.350000000000001
aF23.23
aF23.23
aI169455100
aa(lp66
F22.350000000000001
aF24.140000000000001
aF23.350000000000001
aF23.210000000000001
aF23.210000000000001
aI218687600
aa(lp67
F22.559999999999999
aF23.68
aF23.059999999999999
aF23.18
aF23.18
aI218920800
aa(lp68
F22.5
aF23.719999999999999
aF23.010000000000002
aF22.969999999999999
aF22.969999999999999
aI334859200
aa(lp69
F19.420000000000002
aF21.559999999999999
aF19.579999999999998
aF21.559999999999999
aF21.559999999999999
aI224723400
aa(lp70
F17.77
aF20.600000000000001
aF20.600000000000001
aF19.600000000000001
aF19.600000000000001
aI391890600
aa(lp71
F18.780000000000001
aF18.780000000000001
aF18.780000000000001
aF18.780000000000001
aF18.780000000000001
aI41083200
aa(lp72
F17.07
aF17.07
aF17.07
aF17.07
aF17.07
aI29462300
aa(lp73
F15.52
aF15.52
aF15.52
aF15.52
aF15.52
aI4078300
aa(lp74
F14.109999999999999
aF14.109999999999999
aF14.109999999999999
aF14.109999999999999
aF14.109999999999999
aI2835200
aa(lp75
F12.83
aF12.83
aF12.83
aF12.83
aF12.83
aI1563600
aa(lp76
F11.66
aF11.66
aF11.66
aF11.66
aF11.66
aI2424900
aa(lp77
F10.6
aF10.6
aF10.6
aF10.6
aF10.6
aI2476000
aa(lp78
F9.6400000000000006
aF9.6400000000000006
aF9.6400000000000006
aF9.6400000000000006
aF9.6400000000000006
aI1619000
aa(lp79
F8.7599999999999998
aF8.7599999999999998
aF8.7599999999999998
aF8.7599999999999998
aF8.7599999999999998
aI645200
aa(lp80
F7.96
aF7.96
aF7.96
aF7.96
aF7.96
aI1004600
aa(lp81
F7.2400000000000002
aF7.2400000000000002
aF7.2400000000000002
aF7.2400000000000002
aF7.2400000000000002
aI568900
aa(lp82
F6.5800000000000001
aF6.5800000000000001
aF6.5800000000000001
aF6.5800000000000001
aF6.5800000000000001
aI384800
aa(lp83
F5.9800000000000004
aF5.9800000000000004
aF5.9800000000000004
aF5.9800000000000004
aF5.9800000000000004
aI0
aa(lp84
F5.9800000000000004
aF5.9800000000000004
aF5.9800000000000004
aF5.9800000000000004
aF5.9800000000000004
aI0
aa(lp85
F5.9800000000000004
aF5.9800000000000004
aF5.9800000000000004
aF5.9800000000000004
aF5.9800000000000004
aI0
aa(lp86
F5.9800000000000004
aF5.9800000000000004
aF5.9800000000000004
aF5.9800000000000004
aF5.9800000000000004
aI0
aa(lp87
F5.9800000000000004
aF5.9800000000000004
aF5.9800000000000004
aF5.9800000000000004
aF5.9800000000000004
aI0
aa(lp88
F5.9800000000000004
aF5.9800000000000004
aF5.9800000000000004
aF5.9800000000000004
aF5.9800000000000004
aI0
aa(lp89
F5.9800000000000004
aF5.9800000000000004
aF5.9800000000000004
aF5.9800000000000004
aF5.9800000000000004
aI0
aa(lp90
F5.9800000000000004
aF5.9800000000000004
aF5.9800000000000004
aF5.9800000000000004
aF5.9800000000000004
aI0
aa(lp91
F5.9800000000000004
aF5.9800000000000004
aF5.9800000000000004
aF5.9800000000000004
aF5.9800000000000004
aI0
aa(lp92
F5.9800000000000004
aF5.9800000000000004
aF5.9800000000000004
aF5.9800000000000004
aF5.9800000000000004
aI0
aa(lp93
F5.9800000000000004
aF5.9800000000000004
aF5.9800000000000004
aF5.9800000000000004
aF5.9800000000000004
aI0
aa(lp94
F5.9800000000000004
aF5.9800000000000004
aF5.9800000000000004
aF5.9800000000000004
aF5.9800000000000004
aI0
aa(lp95
F5.9800000000000004
aF5.9800000000000004
aF5.9800000000000004
aF5.9800000000000004
aF5.9800000000000004
aI0
aa(lp96
F5.9800000000000004
aF5.9800000000000004
aF5.9800000000000004
aF5.9800000000000004
aF5.9800000000000004
aI0
aa(lp97
F5.9800000000000004
aF5.9800000000000004
aF5.9800000000000004
aF5.9800000000000004
aF5.9800000000000004
aI0
aa(lp98
F5.9800000000000004
aF5.9800000000000004
aF5.9800000000000004
aF5.9800000000000004
aF5.9800000000000004
aI0
aa(lp99
F5.9800000000000004
aF5.9800000000000004
aF5.9800000000000004
aF5.9800000000000004
aF5.9800000000000004
aI0
aa(lp100
F5.9800000000000004
aF5.9800000000000004
aF5.9800000000000004
aF5.9800000000000004
aF5.9800000000000004
aI0
aa(lp101
F5.9800000000000004
aF5.9800000000000004
aF5.9800000000000004
aF5.9800000000000004
aF5.9800000000000004
aI0
aa(lp102
F5.9800000000000004
aF5.9800000000000004
aF5.9800000000000004
aF5.9800000000000004
aF5.9800000000000004
aI0
aa(lp103
F5.9800000000000004
aF5.9800000000000004
aF5.9800000000000004
aF5.9800000000000004
aF5.9800000000000004
aI0
aa(lp104
F5.9800000000000004
aF5.9800000000000004
aF5.9800000000000004
aF5.9800000000000004
aF5.9800000000000004
aI0
aa(lp105
F5.9800000000000004
aF5.9800000000000004
aF5.9800000000000004
aF5.9800000000000004
aF5.9800000000000004
aI0
aa(lp106
F5.9800000000000004
aF5.9800000000000004
aF5.9800000000000004
aF5.9800000000000004
aF5.9800000000000004
aI0
aa(lp107
F5.9800000000000004
aF5.9800000000000004
aF5.9800000000000004
aF5.9800000000000004
aF5.9800000000000004
aI0
aa(lp108
F5.9800000000000004
aF5.9800000000000004
aF5.9800000000000004
aF5.9800000000000004
aF5.9800000000000004
aI0
aa(lp109
F5.9800000000000004
aF5.9800000000000004
aF5.9800000000000004
aF5.9800000000000004
aF5.9800000000000004
aI0
aa(lp110
F5.9800000000000004
aF5.9800000000000004
aF5.9800000000000004
aF5.9800000000000004
aF5.9800000000000004
aI0
aa(lp111
F5.9800000000000004
aF5.9800000000000004
aF5.9800000000000004
aF5.9800000000000004
aF5.9800000000000004
aI0
aa(lp112
F5.9800000000000004
aF5.9800000000000004
aF5.9800000000000004
aF5.9800000000000004
aF5.9800000000000004
aI0
aa(lp113
F5.9800000000000004
aF5.9800000000000004
aF5.9800000000000004
aF5.9800000000000004
aF5.9800000000000004
aI0
aa(lp114
F5.9800000000000004
aF5.9800000000000004
aF5.9800000000000004
aF5.9800000000000004
aF5.9800000000000004
aI0
aa(lp115
F5.9800000000000004
aF5.9800000000000004
aF5.9800000000000004
aF5.9800000000000004
aF5.9800000000000004
aI0
aa(lp116
F5.9800000000000004
aF5.9800000000000004
aF5.9800000000000004
aF5.9800000000000004
aF5.9800000000000004
aI0
aa(lp117
F5.9800000000000004
aF5.9800000000000004
aF5.9800000000000004
aF5.9800000000000004
aF5.9800000000000004
aI0
aa(lp118
F5.9800000000000004
aF5.9800000000000004
aF5.9800000000000004
aF5.9800000000000004
aF5.9800000000000004
aI0
aa(lp119
F5.9800000000000004
aF5.9800000000000004
aF5.9800000000000004
aF5.9800000000000004
aF5.9800000000000004
aI0
aa(lp120
F5.9800000000000004
aF5.9800000000000004
aF5.9800000000000004
aF5.9800000000000004
aF5.9800000000000004
aI0
aa(lp121
F5.9800000000000004
aF5.9800000000000004
aF5.9800000000000004
aF5.9800000000000004
aF5.9800000000000004
aI0
aa(lp122
F5.9800000000000004
aF5.9800000000000004
aF5.9800000000000004
aF5.9800000000000004
aF5.9800000000000004
aI0
aa(lp123
F5.9800000000000004
aF5.9800000000000004
aF5.9800000000000004
aF5.9800000000000004
aF5.9800000000000004
aI0
aa(lp124
F5.9800000000000004
aF5.9800000000000004
aF5.9800000000000004
aF5.9800000000000004
aF5.9800000000000004
aI0
aa(lp125
F5.9800000000000004
aF5.9800000000000004
aF5.9800000000000004
aF5.9800000000000004
aF5.9800000000000004
aI0
aa(lp126
F5.9800000000000004
aF5.9800000000000004
aF5.9800000000000004
aF5.9800000000000004
aF5.9800000000000004
aI0
aa(lp127
F5.9800000000000004
aF5.9800000000000004
aF5.9800000000000004
aF5.9800000000000004
aF5.9800000000000004
aI0
aa(lp128
F5.9800000000000004
aF5.9800000000000004
aF5.9800000000000004
aF5.9800000000000004
aF5.9800000000000004
aI0
aa(lp129
F5.9800000000000004
aF5.9800000000000004
aF5.9800000000000004
aF5.9800000000000004
aF5.9800000000000004
aI0
aa(lp130
F5.9800000000000004
aF5.9800000000000004
aF5.9800000000000004
aF5.9800000000000004
aF5.9800000000000004
aI0
aa(lp131
F5.9800000000000004
aF5.9800000000000004
aF5.9800000000000004
aF5.9800000000000004
aF5.9800000000000004
aI0
aa(lp132
F5.9800000000000004
aF5.9800000000000004
aF5.9800000000000004
aF5.9800000000000004
aF5.9800000000000004
aI0
aa(lp133
F5.9800000000000004
aF5.9800000000000004
aF5.9800000000000004
aF5.9800000000000004
aF5.9800000000000004
aI0
aa(lp134
F5.9800000000000004
aF5.9800000000000004
aF5.9800000000000004
aF5.9800000000000004
aF5.9800000000000004
aI0
aa(lp135
F5.9800000000000004
aF5.9800000000000004
aF5.9800000000000004
aF5.9800000000000004
aF5.9800000000000004
aI0
aa(lp136
F5.9800000000000004
aF5.9800000000000004
aF5.9800000000000004
aF5.9800000000000004
aF5.9800000000000004
aI0
aa(lp137
F5.9800000000000004
aF5.9800000000000004
aF5.9800000000000004
aF5.9800000000000004
aF5.9800000000000004
aI0
aa(lp138
F5.9800000000000004
aF5.9800000000000004
aF5.9800000000000004
aF5.9800000000000004
aF5.9800000000000004
aI0
aa(lp139
F5.9800000000000004
aF5.9800000000000004
aF5.9800000000000004
aF5.9800000000000004
aF5.9800000000000004
aI0
aa(lp140
F5.9800000000000004
aF5.9800000000000004
aF5.9800000000000004
aF5.9800000000000004
aF5.9800000000000004
aI0
aa(lp141
F5.9800000000000004
aF5.9800000000000004
aF5.9800000000000004
aF5.9800000000000004
aF5.9800000000000004
aI0
aa(lp142
F5.9800000000000004
aF5.9800000000000004
aF5.9800000000000004
aF5.9800000000000004
aF5.9800000000000004
aI0
aa(lp143
F5.9800000000000004
aF5.9800000000000004
aF5.9800000000000004
aF5.9800000000000004
aF5.9800000000000004
aI0
aa(lp144
F5.9800000000000004
aF5.9800000000000004
aF5.9800000000000004
aF5.9800000000000004
aF5.9800000000000004
aI0
aa(lp145
F5.9800000000000004
aF5.9800000000000004
aF5.9800000000000004
aF5.9800000000000004
aF5.9800000000000004
aI0
aa(lp146
F5.9800000000000004
aF5.9800000000000004
aF5.9800000000000004
aF5.9800000000000004
aF5.9800000000000004
aI0
aa(lp147
F5.9800000000000004
aF5.9800000000000004
aF5.9800000000000004
aF5.9800000000000004
aF5.9800000000000004
aI0
aa(lp148
F5.9800000000000004
aF5.9800000000000004
aF5.9800000000000004
aF5.9800000000000004
aF5.9800000000000004
aI0
aa(lp149
F5.9800000000000004
aF5.9800000000000004
aF5.9800000000000004
aF5.9800000000000004
aF5.9800000000000004
aI0
aa(lp150
F5.9800000000000004
aF5.9800000000000004
aF5.9800000000000004
aF5.9800000000000004
aF5.9800000000000004
aI0
aa(lp151
F5.9800000000000004
aF5.9800000000000004
aF5.9800000000000004
aF5.9800000000000004
aF5.9800000000000004
aI0
aa(lp152
F5.9800000000000004
aF5.9800000000000004
aF5.9800000000000004
aF5.9800000000000004
aF5.9800000000000004
aI0
aa(lp153
F5.9800000000000004
aF5.9800000000000004
aF5.9800000000000004
aF5.9800000000000004
aF5.9800000000000004
aI0
aa(lp154
F5.9800000000000004
aF5.9800000000000004
aF5.9800000000000004
aF5.9800000000000004
aF5.9800000000000004
aI0
aa(lp155
F5.9800000000000004
aF5.9800000000000004
aF5.9800000000000004
aF5.9800000000000004
aF5.9800000000000004
aI0
aa(lp156
F5.9800000000000004
aF5.9800000000000004
aF5.9800000000000004
aF5.9800000000000004
aF5.9800000000000004
aI0
aa(lp157
F5.9800000000000004
aF5.9800000000000004
aF5.9800000000000004
aF5.9800000000000004
aF5.9800000000000004
aI0
aa(lp158
F5.9800000000000004
aF5.9800000000000004
aF5.9800000000000004
aF5.9800000000000004
aF5.9800000000000004
aI0
aa(lp159
F5.9800000000000004
aF5.9800000000000004
aF5.9800000000000004
aF5.9800000000000004
aF5.9800000000000004
aI0
aa(lp160
F5.9800000000000004
aF5.9800000000000004
aF5.9800000000000004
aF5.9800000000000004
aF5.9800000000000004
aI0
aa(lp161
F5.9800000000000004
aF5.9800000000000004
aF5.9800000000000004
aF5.9800000000000004
aF5.9800000000000004
aI0
aa(lp162
F5.9800000000000004
aF5.9800000000000004
aF5.9800000000000004
aF5.9800000000000004
aF5.9800000000000004
aI0
aa(lp163
F5.9800000000000004
aF5.9800000000000004
aF5.9800000000000004
aF5.9800000000000004
aF5.9800000000000004
aI0
aa(lp164
F5.9800000000000004
aF5.9800000000000004
aF5.9800000000000004
aF5.9800000000000004
aF5.9800000000000004
aI0
aa(lp165
F5.9800000000000004
aF5.9800000000000004
aF5.9800000000000004
aF5.9800000000000004
aF5.9800000000000004
aI0
aa(lp166
F5.9800000000000004
aF5.9800000000000004
aF5.9800000000000004
aF5.9800000000000004
aF5.9800000000000004
aI0
aa(lp167
F5.9800000000000004
aF5.9800000000000004
aF5.9800000000000004
aF5.9800000000000004
aF5.9800000000000004
aI0
aa(lp168
F5.9800000000000004
aF5.9800000000000004
aF5.9800000000000004
aF5.9800000000000004
aF5.9800000000000004
aI0
aa(lp169
F5.9800000000000004
aF5.9800000000000004
aF5.9800000000000004
aF5.9800000000000004
aF5.9800000000000004
aI0
aa(lp170
F5.9800000000000004
aF5.9800000000000004
aF5.9800000000000004
aF5.9800000000000004
aF5.9800000000000004
aI0
aa(lp171
F5.9800000000000004
aF5.9800000000000004
aF5.9800000000000004
aF5.9800000000000004
aF5.9800000000000004
aI0
aa(lp172
F5.9800000000000004
aF5.9800000000000004
aF5.9800000000000004
aF5.9800000000000004
aF5.9800000000000004
aI0
aa(lp173
F5.9800000000000004
aF5.9800000000000004
aF5.9800000000000004
aF5.9800000000000004
aF5.9800000000000004
aI0
aa(lp174
F5.9800000000000004
aF5.9800000000000004
aF5.9800000000000004
aF5.9800000000000004
aF5.9800000000000004
aI0
aa(lp175
F5.9800000000000004
aF5.9800000000000004
aF5.9800000000000004
aF5.9800000000000004
aF5.9800000000000004
aI0
aa(lp176
F5.9800000000000004
aF5.9800000000000004
aF5.9800000000000004
aF5.9800000000000004
aF5.9800000000000004
aI0
aa(lp177
F5.9800000000000004
aF5.9800000000000004
aF5.9800000000000004
aF5.9800000000000004
aF5.9800000000000004
aI0
aa(lp178
F5.9800000000000004
aF5.9800000000000004
aF5.9800000000000004
aF5.9800000000000004
aF5.9800000000000004
aI0
aa(lp179
F5.9800000000000004
aF5.9800000000000004
aF5.9800000000000004
aF5.9800000000000004
aF5.9800000000000004
aI0
aa(lp180
F5.9800000000000004
aF5.9800000000000004
aF5.9800000000000004
aF5.9800000000000004
aF5.9800000000000004
aI0
aa(lp181
F5.9800000000000004
aF5.9800000000000004
aF5.9800000000000004
aF5.9800000000000004
aF5.9800000000000004
aI0
aa(lp182
F5.9800000000000004
aF5.9800000000000004
aF5.9800000000000004
aF5.9800000000000004
aF5.9800000000000004
aI0
aa(lp183
F5.9800000000000004
aF5.9800000000000004
aF5.9800000000000004
aF5.9800000000000004
aF5.9800000000000004
aI0
aa(lp184
F5.9800000000000004
aF5.9800000000000004
aF5.9800000000000004
aF5.9800000000000004
aF5.9800000000000004
aI0
aa(lp185
F5.9800000000000004
aF5.9800000000000004
aF5.9800000000000004
aF5.9800000000000004
aF5.9800000000000004
aI0
aa(lp186
F5.9800000000000004
aF5.9800000000000004
aF5.9800000000000004
aF5.9800000000000004
aF5.9800000000000004
aI0
aa(lp187
F5.9800000000000004
aF5.9800000000000004
aF5.9800000000000004
aF5.9800000000000004
aF5.9800000000000004
aI0
aa(lp188
F5.9800000000000004
aF5.9800000000000004
aF5.9800000000000004
aF5.9800000000000004
aF5.9800000000000004
aI0
aa(lp189
F5.9800000000000004
aF5.9800000000000004
aF5.9800000000000004
aF5.9800000000000004
aF5.9800000000000004
aI0
aa(lp190
F5.9800000000000004
aF5.9800000000000004
aF5.9800000000000004
aF5.9800000000000004
aF5.9800000000000004
aI0
aa(lp191
F5.9800000000000004
aF5.9800000000000004
aF5.9800000000000004
aF5.9800000000000004
aF5.9800000000000004
aI0
aa(lp192
F5.9800000000000004
aF5.9800000000000004
aF5.9800000000000004
aF5.9800000000000004
aF5.9800000000000004
aI0
aa(lp193
F5.9800000000000004
aF5.9800000000000004
aF5.9800000000000004
aF5.9800000000000004
aF5.9800000000000004
aI0
aa(lp194
F5.9800000000000004
aF5.9800000000000004
aF5.9800000000000004
aF5.9800000000000004
aF5.9800000000000004
aI0
aa(lp195
F5.9800000000000004
aF5.9800000000000004
aF5.9800000000000004
aF5.9800000000000004
aF5.9800000000000004
aI0
aa(lp196
F5.9800000000000004
aF5.9800000000000004
aF5.9800000000000004
aF5.9800000000000004
aF5.9800000000000004
aI0
aa(lp197
F5.9800000000000004
aF5.9800000000000004
aF5.9800000000000004
aF5.9800000000000004
aF5.9800000000000004
aI0
aa(lp198
F5.9800000000000004
aF5.9800000000000004
aF5.9800000000000004
aF5.9800000000000004
aF5.9800000000000004
aI0
aa(lp199
F5.9800000000000004
aF5.9800000000000004
aF5.9800000000000004
aF5.9800000000000004
aF5.9800000000000004
aI0
aa(lp200
F5.9800000000000004
aF5.9800000000000004
aF5.9800000000000004
aF5.9800000000000004
aF5.9800000000000004
aI0
aa(lp201
F5.9800000000000004
aF5.9800000000000004
aF5.9800000000000004
aF5.9800000000000004
aF5.9800000000000004
aI0
aa(lp202
F5.9800000000000004
aF5.9800000000000004
aF5.9800000000000004
aF5.9800000000000004
aF5.9800000000000004
aI0
aa(lp203
F5.9800000000000004
aF5.9800000000000004
aF5.9800000000000004
aF5.9800000000000004
aF5.9800000000000004
aI0
aa(lp204
F5.9800000000000004
aF5.9800000000000004
aF5.9800000000000004
aF5.9800000000000004
aF5.9800000000000004
aI0
aa(lp205
F5.9800000000000004
aF5.9800000000000004
aF5.9800000000000004
aF5.9800000000000004
aF5.9800000000000004
aI0
aa(lp206
F5.9800000000000004
aF5.9800000000000004
aF5.9800000000000004
aF5.9800000000000004
aF5.9800000000000004
aI0
aa(lp207
F5.9800000000000004
aF5.9800000000000004
aF5.9800000000000004
aF5.9800000000000004
aF5.9800000000000004
aI0
aa(lp208
F5.9800000000000004
aF5.9800000000000004
aF5.9800000000000004
aF5.9800000000000004
aF5.9800000000000004
aI0
aa(lp209
F5.9800000000000004
aF5.9800000000000004
aF5.9800000000000004
aF5.9800000000000004
aF5.9800000000000004
aI0
aa(lp210
F5.9800000000000004
aF5.9800000000000004
aF5.9800000000000004
aF5.9800000000000004
aF5.9800000000000004
aI0
aa(lp211
F5.9800000000000004
aF5.9800000000000004
aF5.9800000000000004
aF5.9800000000000004
aF5.9800000000000004
aI0
aa(lp212
F5.9800000000000004
aF5.9800000000000004
aF5.9800000000000004
aF5.9800000000000004
aF5.9800000000000004
aI0
aa(lp213
F5.9800000000000004
aF5.9800000000000004
aF5.9800000000000004
aF5.9800000000000004
aF5.9800000000000004
aI0
aa(lp214
F5.9800000000000004
aF5.9800000000000004
aF5.9800000000000004
aF5.9800000000000004
aF5.9800000000000004
aI0
aa(lp215
F5.9800000000000004
aF5.9800000000000004
aF5.9800000000000004
aF5.9800000000000004
aF5.9800000000000004
aI0
aa(lp216
F5.9800000000000004
aF5.9800000000000004
aF5.9800000000000004
aF5.9800000000000004
aF5.9800000000000004
aI0
aa(lp217
F5.9100000000000001
aF6.04
aF5.9100000000000001
aF5.9800000000000004
aF5.9800000000000004
aI11578900
aa(lp218
F5.9400000000000004
aF6.0300000000000002
aF6
aF5.9699999999999998
aF5.9699999999999998
aI13107700
aa(lp219
F6
aF6.0800000000000001
aF6.0700000000000003
aF6.0199999999999996
aF6.0199999999999996
aI16213900
aa(lp220
F6.0300000000000002
aF6.1200000000000001
aF6.0999999999999996
aF6.0700000000000003
aF6.0700000000000003
aI15974200
aa(lp221
F6.0099999999999998
aF6.0999999999999996
aF6.0700000000000003
aF6.0999999999999996
aF6.0999999999999996
aI20391800
aa(lp222
F5.96
aF6.2300000000000004
aF5.9699999999999998
aF6.0700000000000003
aF6.0700000000000003
aI36264600
aa(lp223
F5.9000000000000004
aF6.0800000000000001
aF5.9000000000000004
aF5.9900000000000002
aF5.9900000000000002
aI23562300
aa(lp224
F5.8600000000000003
aF6.0999999999999996
aF6.0599999999999996
aF5.8899999999999997
aF5.8899999999999997
aI25507600
aa(lp225
F5.9500000000000002
aF6.1100000000000003
aF6.0199999999999996
aF6.0700000000000003
aF6.0700000000000003
aI22041400
aa(lp226
F6.0199999999999996
aF6.1399999999999997
aF6.1100000000000003
aF6.0700000000000003
aF6.0700000000000003
aI18852800
aa(lp227
F6.0800000000000001
aF6.2000000000000002
aF6.1799999999999997
aF6.1100000000000003
aF6.1100000000000003
aI23249900
aa(lp228
F6.1399999999999997
aF6.25
aF6.1699999999999999
aF6.1699999999999999
aF6.1699999999999999
aI30658000
aa(lp229
F6.1200000000000001
aF6.29
aF6.2800000000000002
aF6.1900000000000004
aF6.1900000000000004
aI42513600
aa(lp230
F5.9100000000000001
aF6.3700000000000001
aF5.9400000000000004
aF6.2800000000000002
aF6.2800000000000002
aI92704000
aa(lp231
F5.8300000000000001
aF5.9100000000000001
aF5.8499999999999996
aF5.8700000000000001
aF5.8700000000000001
aI31728000
aa(lp232
F5.8700000000000001
aF5.9900000000000002
aF5.9400000000000004
aF5.8799999999999999
aF5.8799999999999999
aI53854900
aa(lp233
F5.8200000000000003
aF6
aF5.8499999999999996
aF5.9699999999999998
aF5.9699999999999998
aI37117500
aa(lp234
F5.8600000000000003
aF6.0300000000000002
aF6
aF5.9100000000000001
aF5.9100000000000001
aI19986100
aa(lp235
F5.9800000000000004
aF6.1299999999999999
aF6.0599999999999996
aF6
aF6
aI26981300
aa(lp236
F5.9299999999999997
aF6.1699999999999999
aF5.9800000000000004
aF6.0599999999999996
aF6.0599999999999996
aI19715300
aa(lp237
F5.8600000000000003
aF6
aF5.9100000000000001
aF5.9800000000000004
aF5.9800000000000004
aI14589300
aa(lp238
F5.8499999999999996
aF6.2000000000000002
aF6.1500000000000004
aF5.9100000000000001
aF5.9100000000000001
aI32407900
aa(lp239
F6.1200000000000001
aF6.2599999999999998
aF6.1399999999999997
aF6.1900000000000004
aF6.1900000000000004
aI17458300
aa(lp240
F6.1799999999999997
aF6.3200000000000003
aF6.3099999999999996
aF6.2000000000000002
aF6.2000000000000002
aI33835600
aa(lp241
F6.0800000000000001
aF6.4100000000000001
aF6.3200000000000003
aF6.3700000000000001
aF6.3700000000000001
aI66968700
aa(lp242
F6.3300000000000001
aF6.4400000000000004
aF6.3399999999999999
aF6.3700000000000001
aF6.3700000000000001
aI28737300
aa(lp243
F6.3300000000000001
aF6.5099999999999998
aF6.4299999999999997
aF6.3799999999999999
aF6.3799999999999999
aI36326100
aa(lp244
F6.3099999999999996
aF6.8200000000000003
aF6.8200000000000003
aF6.5599999999999996
aF6.5599999999999996
aI84030700
aa(lp245
F6.8300000000000001
aF7
aF6.96
aF6.9699999999999998
aF6.9699999999999998
aI28119900
aa(lp246
F6.9299999999999997
aF7.1299999999999999
aF7.0499999999999998
aF6.9500000000000002
aF6.9500000000000002
aI23575700
aa(lp247
F7.04
aF7.1900000000000004
aF7.1399999999999997
aF7.0800000000000001
aF7.0800000000000001
aI18812100
aa(lp248
F7
aF7.1699999999999999
aF7.04
aF7.1500000000000004
aF7.1500000000000004
aI17060700
aa(lp249
F6.9299999999999997
aF7.0999999999999996
aF7.0700000000000003
aF7.0199999999999996
aF7.0199999999999996
aI16030400
aa(lp250
F7.0499999999999998
aF7.2000000000000002
aF7.1100000000000003
aF7.0499999999999998
aF7.0499999999999998
aI21266000
aa(lp251
F7.1900000000000004
aF7.1900000000000004
aF7.1900000000000004
aF7.1900000000000004
aF7.1900000000000004
aI0
aa(lp252
F7
aF7.29
aF7.0899999999999999
aF7.1900000000000004
aF7.1900000000000004
aI28546600
aa(lp253
F7.0599999999999996
aF7.3899999999999997
aF7.3499999999999996
aF7.1100000000000003
aF7.1100000000000003
aI52364100
aa(lp254
F7.1399999999999997
aF7.5
aF7.2000000000000002
aF7.4199999999999999
aF7.4199999999999999
aI60859300
aa(lp255
F7.1900000000000004
aF7.3399999999999999
aF7.21
aF7.2199999999999998
aF7.2199999999999998
aI24827600
aa(lp256
F7.1600000000000001
aF7.29
aF7.2199999999999998
aF7.2599999999999998
aF7.2599999999999998
aI27293400
aa(lp257
F6.9199999999999999
aF7.3300000000000001
aF6.9299999999999997
aF7.2699999999999996
aF7.2699999999999996
aI38819900
aa(lp258
F6.9900000000000002
aF7.2199999999999998
aF7.1500000000000004
aF6.9900000000000002
aF6.9900000000000002
aI22290500
aa(lp259
F6.9800000000000004
aF7.1900000000000004
aF7.1600000000000001
aF7.1799999999999997
aF7.1799999999999997
aI13213900
aa(lp260
F7.0300000000000002
aF7.2800000000000002
aF7.0599999999999996
aF7.1299999999999999
aF7.1299999999999999
aI20239700
aa(lp261
F6.8600000000000003
aF7.0899999999999999
aF6.9299999999999997
aF7.0499999999999998
aF7.0499999999999998
aI15069500
aa(lp262
F6.7999999999999998
aF6.9900000000000002
aF6.9900000000000002
aF6.96
aF6.96
aI14593300
aa(lp263
F7
aF7.2199999999999998
aF7.1600000000000001
aF7.0199999999999996
aF7.0199999999999996
aI22056500
aa(lp264
F7.0800000000000001
aF7.2400000000000002
aF7.1799999999999997
aF7.1500000000000004
aF7.1500000000000004
aI18501100
aa(lp265
F6.9800000000000004
aF7.2800000000000002
aF7
aF7.2400000000000002
aF7.2400000000000002
aI32325300
aa(lp266
F6.8300000000000001
aF7.1399999999999997
aF6.8799999999999999
aF7.04
aF7.04
aI26462200
aa(lp267
F6.5999999999999996
aF6.9000000000000004
aF6.8600000000000003
aF6.75
aF6.75
aI17568500
aa(lp268
F6.6900000000000004
aF7.0899999999999999
aF6.7400000000000002
aF6.8899999999999997
aF6.8899999999999997
aI20583000
aa(lp269
F6.7199999999999998
aF7.0700000000000003
aF7.0700000000000003
aF6.7599999999999998
aF6.7599999999999998
aI24268200
aa(lp270
F6.9199999999999999
aF7.2300000000000004
aF7
aF7.0999999999999996
aF7.0999999999999996
aI21904600
aa(lp271
F6.7300000000000004
aF7.0300000000000002
aF6.7699999999999996
aF7.0099999999999998
aF7.0099999999999998
aI24533900
aa(lp272
F6.8300000000000001
aF6.8300000000000001
aF6.8300000000000001
aF6.8300000000000001
aF6.8300000000000001
aI0
aa(lp273
F6.8300000000000001
aF6.8300000000000001
aF6.8300000000000001
aF6.8300000000000001
aF6.8300000000000001
aI0
aa(lp274
F6.7000000000000002
aF6.9299999999999997
aF6.75
aF6.8300000000000001
aF6.8300000000000001
aI14664200
aa(lp275
F7.1399999999999997
aF7.3499999999999996
aF7.2000000000000002
aF7.3200099999999999
aF6.6545500000000004
aI15955000
aa(lp276
F7
aF7.2599999999999998
aF7.0700000000000003
aF7.25
aF6.59091
aI20461800
aa(lp277
F7.0199999999999996
aF7.4400000000000004
aF7.3099999999999996
aF7.0800000000000001
aF6.4363599999999996
aI24888800
aa(lp278
F7.2800000000000002
aF7.8600000000000003
aF7.8300000000000001
aF7.2999999999999998
aF6.6363599999999998
aI37654700
aa(lp279
F7.7800000000000002
aF8.2100000000000009
aF8.0999999999999996
aF7.8600000000000003
aF7.1454500000000003
aI31440500
aa(lp280
F7.7600100000000003
aF8.2200000000000006
aF7.7600100000000003
aF8.1699999999999999
aF7.42727
aI36002700
aa(lp281
F7.71
aF8.1300000000000008
aF7.8099999999999996
aF7.8700099999999997
aF7.1545500000000004
aI27423700
aa(lp282
F7.8799999999999999
aF8.1500000000000004
aF7.9900000000000002
aF7.9900000000000002
aF7.2636399999999997
aI35306900
aa(lp283
F7.9500000000000002
aF8.5999999999999996
aF8.5899999999999999
aF7.9699999999999998
aF7.2454499999999999
aI52797000
aa(lp284
F8.1199999999999992
aF8.6099999999999994
aF8.2599999999999998
aF8.5
aF7.7272699999999999
aI57642900
aa(lp285
F7.8099999999999996
aF8.6899999999999995
aF7.9199999999999999
aF8.3900000000000006
aF7.6272700000000002
aI82225900
aa(lp286
F7.8300000000000001
aF8.0700000000000003
aF7.9199999999999999
aF7.9000000000000004
aF7.1818200000000001
aI21321800
aa(lp287
F7.7000000000000002
aF8.1899899999999999
aF7.7999999999999998
aF8.0199999999999996
aF7.2909100000000002
aI40116500
aa(lp288
F7.5400099999999997
aF7.98001
aF7.6500000000000004
aF7.8799999999999999
aF7.16364
aI31849300
aa(lp289
F7.5999999999999996
aF7.8700099999999997
aF7.5999999999999996
aF7.6200000000000001
aF6.92727
aI21253100
aa(lp290
F7.4100000000000001
aF7.5899999999999999
aF7.4800000000000004
aF7.5400099999999997
aF6.8545499999999997
aI14513800
aa(lp291
F7.5
aF7.5
aF7.5
aF7.5
aF6.8181799999999999
aI0
aa(lp292
F7.2000000000000002
aF7.6200000000000001
aF7.2800000000000002
aF7.5
aF6.8181799999999999
aI26391900
aa(lp293
F7.0599999999999996
aF7.6500000000000004
aF7.0800000000000001
aF7.3700000000000001
aF6.7000000000000002
aI28615500
aa(lp294
F6.9800000000000004
aF7.1600000000000001
aF7.0800000000000001
aF7.04
aF6.4000000000000004
aI10925600
aa(lp295
F6.7300000000000004
aF7.2000000000000002
aF6.8099999999999996
aF7.1600000000000001
aF6.5090899999999996
aI13316800
aa(lp296
F6.6900000000000004
aF6.9100000000000001
aF6.8800100000000004
aF6.8099999999999996
aF6.1909099999999997
aI9337100
aa(lp297
F6.7000000000000002
aF7.2199999999999998
aF7.1399999999999997
aF6.8499999999999996
aF6.2272699999999999
aI19319300
aa(lp298
F7.1000100000000002
aF7.3600000000000003
aF7.3200099999999999
aF7.1399999999999997
aF6.4909100000000004
aI9944100
aa(lp299
F7.2599999999999998
aF7.4900000000000002
aF7.4000000000000004
aF7.3300000000000001
aF6.66364
aI7978500
aa(lp300
F7.2999999999999998
aF7.46
aF7.4000000000000004
aF7.4000000000000004
aF6.7272699999999999
aI12907800
aa(lp301
F7.2599999999999998
aF7.71
aF7.3300000000000001
aF7.4300100000000002
aF6.7545500000000001
aI21092900
aa(lp302
F6.9000000000000004
aF7.3899999999999997
aF7.0199999999999996
aF7.3600000000000003
aF6.6909099999999997
aI15954900
aa(lp303
F7.0499999999999998
aF7.4199999999999999
aF7.2999999999999998
aF7.0800000000000001
aF6.4363599999999996
aI13638400
aa(lp304
F7.1799999999999997
aF7.4900000000000002
aF7.2000000000000002
aF7.3499999999999996
aF6.6818200000000001
aI17372800
aa(lp305
F7.0300000000000002
aF7.2599999999999998
aF7.0300000000000002
aF7.2000000000000002
aF6.5454499999999998
aI16329600
aa(lp306
F6.5899999999999999
aF7.2300000000000004
aF6.5899999999999999
aF7.1600000000000001
aF6.5090899999999996
aI29776600
aa(lp307
F7.2699999999999996
aF7.4699999999999998
aF7.4400000000000004
aF7.3200099999999999
aF6.6545500000000004
aI10416600
aa(lp308
F7.2800000000000002
aF7.5199999999999996
aF7.2999999999999998
aF7.4900000000000002
aF6.8090900000000003
aI12761600
aa(lp309
F6.9800000000000004
aF7.5099999999999998
aF7.4500000000000002
aF7.2999999999999998
aF6.6363599999999998
aI19363400
aa(lp310
F7.3300000000000001
aF7.5700000000000003
aF7.4900000000000002
aF7.4800000000000004
aF6.7999999999999998
aI17673000
aa(lp311
F7.4000000000000004
aF8.1799999999999997
aF8.0399999999999991
aF7.5400099999999997
aF6.8545499999999997
aI36085900
aa(lp312
F7.9100000000000001
aF8.3800000000000008
aF8.1999999999999993
aF7.9699999999999998
aF7.2454499999999999
aI22990300
aa(lp313
F8.1199999999999992
aF8.4600000000000009
aF8.3000000000000007
aF8.1600000000000001
aF7.4181800000000004
aI24048700
aa(lp314
F7.8700099999999997
aF8.3699999999999992
aF7.9100000000000001
aF8.2400000000000002
aF7.4909100000000004
aI35363000
aa(lp315
F7.4300100000000002
aF8.1500000000000004
aF7.4699999999999998
aF7.98001
aF7.2545500000000001
aI40025600
aa(lp316
F7.2100099999999996
aF7.5299899999999997
aF7.3300000000000001
aF7.5199999999999996
aF6.83636
aI16954500
aa(lp317
F7.0599999999999996
aF7.5299899999999997
aF7.3799999999999999
aF7.3600000000000003
aF6.6909099999999997
aI26184000
aa(lp318
F7.3799999999999999
aF7.7999999999999998
aF7.6699999999999999
aF7.4699999999999998
aF6.7909100000000002
aI22185700
aa(lp319
F7.2800000000000002
aF7.6100000000000003
aF7.5599999999999996
aF7.5
aF6.8181799999999999
aI32954500
aa(lp320
F7.7600100000000003
aF8.5999999999999996
aF8.25
aF7.7999999999999998
aF7.09091
aI46062100
aa(lp321
F8.0199999999999996
aF8.2200000000000006
aF8.0800000000000001
aF8.2200000000000006
aF7.4727300000000003
aI20216100
aa(lp322
F7.9900000000000002
aF8.2799999999999994
aF8.25
aF8.1300000000000008
aF7.3909099999999999
aI26103800
aa(lp323
F8
aF8.4499999999999993
aF8.1999999999999993
aF8.3000000000000007
aF7.5454499999999998
aI40772100
aa(lp324
F7.9699999999999998
aF8.4600000000000009
aF8.1999999999999993
aF8.1799999999999997
aF7.4363599999999996
aI35943700
aa(lp325
F8.0899999999999999
aF8.4600000000000009
aF8.4499999999999993
aF8.25
aF7.5
aI39596000
aa(lp326
F8.0899999999999999
aF8.6300000000000008
aF8.1500000000000004
aF8.4800000000000004
aF7.7090899999999998
aI57082500
aa(lp327
F7.9500000000000002
aF8.3300000000000001
aF8.1500000000000004
aF8.1799999999999997
aF7.4363599999999996
aI65359900
aa(lp328
F8.0500000000000007
aF8.6699999999999999
aF8.6500000000000004
aF8.0600000000000005
aF7.3272700000000004
aI69714200
aa(lp329
F8.51999
aF8.8600100000000008
aF8.7200000000000006
aF8.7899999999999991
aF7.9909100000000004
aI51598800
aa(lp330
F8.5
aF8.9700100000000003
aF8.8499999999999996
aF8.8000000000000007
aF8
aI68612700
aa(lp331
F8.6699999999999999
aF9.0899999999999999
aF9
aF8.9399999999999995
aF8.1272699999999993
aI112126600
aa(lp332
F8.3800000000000008
aF8.8200000000000003
aF8.5
aF8.8200000000000003
aF8.0181799999999992
aI105664000
aa(lp333
F8.0199999999999996
aF8.0199999999999996
aF8.0199999999999996
aF8.0199999999999996
aF7.2909100000000002
aI0
aa(lp334
F8.0199999999999996
aF8.0199999999999996
aF8.0199999999999996
aF8.0199999999999996
aF7.2909100000000002
aI0
aa(lp335
F8.0199999999999996
aF8.0199999999999996
aF8.0199999999999996
aF8.0199999999999996
aF7.2909100000000002
aI0
aa(lp336
F8.0199999999999996
aF8.0199999999999996
aF8.0199999999999996
aF8.0199999999999996
aF7.2909100000000002
aI0
aa(lp337
F7.4900000000000002
aF8.0199999999999996
aF7.4900000000000002
aF8.0199999999999996
aF7.2909100000000002
aI51989100
aa(lp338
F7.0899900000000002
aF7.4500000000000002
aF7.2000000000000002
aF7.29
aF6.6272700000000002
aI40789000
aa(lp339
F6.8099999999999996
aF7.0899900000000002
aF6.9199999999999999
aF7.0599999999999996
aF6.4181800000000004
aI24053500
aa(lp340
F6.75
aF7.0700000000000003
aF6.8399999999999999
aF6.8899999999999997
aF6.2636399999999997
aI39726600
aa(lp341
F6.4900000000000002
aF7.2000000000000002
aF6.5700000000000003
aF6.8899999999999997
aF6.2636399999999997
aI55250700
aa(lp342
F6.4500000000000002
aF6.6799999999999997
aF6.5300000000000002
aF6.5700000000000003
aF5.9727300000000003
aI35207700
aa(lp343
F6.4500000000000002
aF6.7700100000000001
aF6.5999999999999996
aF6.6399999999999997
aF6.0363600000000002
aI56509400
aa(lp344
F5.9800000000000004
aF6.6399999999999997
aF6
aF6.6399999999999997
aF6.0363600000000002
aI67848800
aa(lp345
F5.8099999999999996
aF6.1299999999999999
aF5.8900100000000002
aF6.04
aF5.4909100000000004
aI14815700
aa(lp346
F5.8900100000000002
aF6
aF5.9699999999999998
aF5.9199999999999999
aF5.3818200000000003
aI9127800
aa(lp347
F5.8399999999999999
aF5.9900000000000002
aF5.9299999999999997
aF5.9500000000000002
aF5.40909
aI12755600
aa(lp348
F5.7999999999999998
aF5.9500000000000002
aF5.8200000000000003
aF5.9299999999999997
aF5.3909099999999999
aI13249000
aa(lp349
F5.7000000000000002
aF5.8200000000000003
aF5.7599999999999998
aF5.8099999999999996
aF5.2818199999999997
aI8139000
aa(lp350
F5.5999999999999996
aF5.8300000000000001
aF5.6200000000000001
aF5.7599999999999998
aF5.2363600000000003
aI11504700
aa(lp351
F5.6299999999999999
aF6.0300000000000002
aF5.96
aF5.6799999999999997
aF5.16364
aI12310300
aa(lp352
F5.9299999999999997
aF6.1600000000000001
aF6.0800000000000001
aF5.9800000000000004
aF5.4363599999999996
aI15479200
aa(lp353
F5.9800000000000004
aF6.1900000000000004
aF6
aF6.1299999999999999
aF5.57273
aI20548800
aa(lp354
F5.9100000000000001
aF6.0899999999999999
aF5.9299999999999997
aF5.9800000000000004
aF5.4363599999999996
aI11171000
aa(lp355
F5.9000000000000004
aF6.1100099999999999
aF6.1100099999999999
aF5.9199999999999999
aF5.3818200000000003
aI16468800
aa(lp356
F6.0300000000000002
aF6.2000000000000002
aF6.1500000000000004
aF6.1699999999999999
aF5.6090900000000001
aI17401300
aa(lp357
F6.0999999999999996
aF6.4800000000000004
aF6.46
aF6.1500000000000004
aF5.59091
aI65264300
aa(lp358
F6.6799999999999997
aF6.6799999999999997
aF6.6799999999999997
aF6.6799999999999997
aF6.07273
aI0
aa(lp359
F6.4100000000000001
aF6.75
aF6.4699999999999998
aF6.6799999999999997
aF6.07273
aI21733200
aa(lp360
F6.29
aF6.5999999999999996
aF6.3600000000000003
aF6.5
aF5.90909
aI16318900
aa(lp361
F6.0700000000000003
aF6.4699999999999998
aF6.0700000000000003
aF6.3899999999999997
aF5.8090900000000003
aI17582400
aa(lp362
F6.0999999999999996
aF6.3399999999999999
aF6.2599999999999998
aF6.1200000000000001
aF5.5636400000000004
aI9858300
aa(lp363
F6.0099999999999998
aF6.2599999999999998
aF6.0899999999999999
aF6.25
aF5.6818200000000001
aI9057700
aa(lp364
F5.9900000000000002
aF6.1600000000000001
aF6.0599999999999996
aF6.0899999999999999
aF5.5363600000000002
aI8933700
aa(lp365
F5.7999999999999998
aF6.3600000000000003
aF6.3399999999999999
aF6.0800000000000001
aF5.5272699999999997
aI15729200
aa(lp366
F6.2599999999999998
aF6.5
aF6.4199999999999999
aF6.3600000000000003
aF5.7818199999999997
aI16431100
aa(lp367
F6.4000000000000004
aF6.6799999999999997
aF6.6500000000000004
aF6.4000000000000004
aF5.8181799999999999
aI12992800
aa(lp368
F6.5700000000000003
aF6.7700100000000001
aF6.71
aF6.5800000000000001
aF5.9818199999999999
aI9517400
aa(lp369
F6.6699999999999999
aF6.8499999999999996
aF6.7800000000000002
aF6.71
aF6.0999999999999996
aI15282800
aa(lp370
F6.5999999999999996
aF6.9500000000000002
aF6.7700100000000001
aF6.8200000000000003
aF6.2000000000000002
aI24865000
aa(lp371
F6.7300000000000004
aF7
aF6.9500000000000002
aF6.7700100000000001
aF6.1545500000000004
aI33091700
aa(lp372
F7.1000100000000002
aF7.4400000000000004
aF7.2000000000000002
aF7.1100000000000003
aF6.4636399999999998
aI37123700
aa(lp373
F7.1299999999999999
aF7.6200000000000001
aF7.6100000000000003
aF7.3399999999999999
aF6.6727299999999996
aI58813400
aa(lp374
F7.4000000000000004
aF7.7600100000000003
aF7.4800000000000004
aF7.7199999999999998
aF7.0181800000000001
aI39180600
aa(lp375
F7.1600000000000001
aF7.5899999999999999
aF7.2599999999999998
aF7.5099999999999998
aF6.8272700000000004
aI28522300
aa(lp376
F7.0199999999999996
aF7.3499999999999996
aF7.25
aF7.29
aF6.6272700000000002
aI15640900
aa(lp377
F7.2000000000000002
aF7.3899999999999997
aF7.3600000000000003
aF7.25
aF6.59091
aI14077200
aa(lp378
F7.0700000000000003
aF7.4500000000000002
aF7.0800000000000001
aF7.3700000000000001
aF6.7000000000000002
aI33108000
aa(lp379
F6.75
aF7.1799999999999997
aF6.8300000000000001
aF7.1000100000000002
aF6.4545500000000002
aI20420400
aa(lp380
F6.6699999999999999
aF7.2400000000000002
aF6.8700000000000001
aF7
aF6.3636400000000002
aI31239000
aa(lp381
F6.8099999999999996
aF7.0499999999999998
aF6.8700000000000001
aF7.0199999999999996
aF6.3818200000000003
aI16894000
aa(lp382
F6.8399999999999999
aF6.9800000000000004
aF6.9000000000000004
aF6.8700000000000001
aF6.2454499999999999
aI14080400
aa(lp383
F6.7000000000000002
aF6.96
aF6.7300000000000004
aF6.9000000000000004
aF6.2727300000000001
aI13130900
aa(lp384
F6.6100000000000003
aF6.79
aF6.71
aF6.7400000000000002
aF6.1272700000000002
aI11845200
aa(lp385
F6.6200000000000001
aF7.04
aF6.8800100000000004
aF6.7000000000000002
aF6.09091
aI18737400
aa(lp386
F6.7999999999999998
aF7.1699999999999999
aF7.1299999999999999
aF6.8200000000000003
aF6.2000000000000002
aI17531500
aa(lp387
F7.0099999999999998
aF7.2400000000000002
aF7.2000000000000002
aF7.1500000000000004
aF6.5
aI17680400
aa(lp388
F7.0499999999999998
aF7.2699999999999996
aF7.0499999999999998
aF7.2599999999999998
aF6.5999999999999996
aI17498900
aa(lp389
F7
aF7.3099999999999996
aF7.2999999999999998
aF7.1200000000000001
aF6.4727300000000003
aI23266900
aa(lp390
F6.6200000000000001
aF7.2000000000000002
aF6.6600099999999998
aF7.1900000000000004
aF6.5363600000000002
aI30408900
aa(lp391
F6.4100000000000001
aF6.9000000000000004
aF6.46
aF6.6600099999999998
aF6.0545499999999999
aI23462300
aa(lp392
F6.0599999999999996
aF6.5499999999999998
aF6.1600000000000001
aF6.4900000000000002
aF5.9000000000000004
aI17930200
aa(lp393
F6.2000000000000002
aF6.4199999999999999
aF6.3499999999999996
aF6.2000000000000002
aF5.6363599999999998
aI10572300
aa(lp394
F6.1399999999999997
aF6.4299999999999997
aF6.2999999999999998
aF6.3399999999999999
aF5.7636399999999997
aI12546200
aa(lp395
F6.2000000000000002
aF6.5399900000000004
aF6.4400000000000004
aF6.2999999999999998
aF5.7272699999999999
aI12253900
aa(lp396
F6.4199999999999999
aF6.9000000000000004
aF6.8399999999999999
aF6.4299999999999997
aF5.8454499999999996
aI20258800
aa(lp397
F6.8700000000000001
aF7.0899900000000002
aF7.0300000000000002
aF6.8899999999999997
aF6.2636399999999997
aI11883500
aa(lp398
F7
aF7.2800000000000002
aF7.1000100000000002
aF7.0300000000000002
aF6.3909099999999999
aI17590000
aa(lp399
F6.8099999999999996
aF7.1699999999999999
aF6.9500000000000002
aF7.1399999999999997
aF6.4909100000000004
aI16979500
aa(lp400
F6.7300000000000004
aF6.9500000000000002
aF6.75
aF6.8600000000000003
aF6.2363600000000003
aI9915300
aa(lp401
F6.5800000000000001
aF6.9000000000000004
aF6.8600000000000003
aF6.7599999999999998
aF6.1454500000000003
aI14561200
aa(lp402
F6.79
aF7.1000100000000002
aF7.0300000000000002
aF6.9000000000000004
aF6.2727300000000001
aI17746100
aa(lp403
F6.7999999999999998
aF7.25
aF7.1799999999999997
aF7.1399999999999997
aF6.4909100000000004
aI19279500
aa(lp404
F6.7599999999999998
aF7.7000000000000002
aF7.5800000000000001
aF7.1500000000000004
aF6.5
aI30055400
aa(lp405
F7.2999999999999998
aF7.6100000000000003
aF7.4900000000000002
aF7.4699999999999998
aF6.7909100000000002
aI13853400
aa(lp406
F7.2300000000000004
aF7.7400000000000002
aF7.71
aF7.5899999999999999
aF6.9000000000000004
aI22894600
aa(lp407
F7.04
aF7.7699999999999996
aF7.1500000000000004
aF7.71
aF7.0090899999999996
aI28494900
aa(lp408
F7.04
aF7.7600100000000003
aF7.6500000000000004
aF7.29
aF6.6272700000000002
aI32800300
aa(lp409
F7.71
aF8.2899999999999991
aF8.1500000000000004
aF7.8099999999999996
aF7.0999999999999996
aI35164200
aa(lp410
F7.6699999999999999
aF8.3300000000000001
aF7.8899999999999997
aF8.2400000000000002
aF7.4909100000000004
aI33942200
aa(lp411
F7.6100000000000003
aF7.98001
aF7.7000000000000002
aF7.8799999999999999
aF7.16364
aI20836000
aa(lp412
F7.5
aF8.2300000000000004
aF8.0700000000000003
aF7.7000000000000002
aF7
aI32666800
aa(lp413
F7.9699999999999998
aF8.6300000000000008
aF8.5899999999999999
aF8.0199999999999996
aF7.2909100000000002
aI41851400
aa(lp414
F8.5899999999999999
aF8.9399999999999995
aF8.7300000000000004
aF8.6600000000000001
aF7.8727299999999998
aI30433800
aa(lp415
F8.6199999999999992
aF9.0500000000000007
aF8.8000000000000007
aF8.8000000000000007
aF8
aI36273500
aa(lp416
F8.0700000000000003
aF8.9900000000000002
aF8.5099999999999998
aF8.9399999999999995
aF8.1272699999999993
aI64806200
aa(lp417
F8.5999999999999996
aF9.2699999999999996
aF8.8000000000000007
aF8.6699999999999999
aF7.8818200000000003
aI77381000
aa(lp418
F8.0700000000000003
aF8.4600000000000009
aF8.1799999999999997
aF8.4299999999999997
aF7.66364
aI43080700
aa(lp419
F7.96
aF8.4000000000000004
aF8.1600000000000001
aF8.2400000000000002
aF7.4909100000000004
aI46507900
aa(lp420
F8.0099999999999998
aF8.0099999999999998
aF8.0099999999999998
aF8.0099999999999998
aF7.2818199999999997
aI0
aa(lp421
F8.0099999999999998
aF8.0099999999999998
aF8.0099999999999998
aF8.0099999999999998
aF7.2818199999999997
aI0
aa(lp422
F8.0099999999999998
aF8.0099999999999998
aF8.0099999999999998
aF8.0099999999999998
aF7.2818199999999997
aI0
aa(lp423
F8.0099999999999998
aF8.0099999999999998
aF8.0099999999999998
aF8.0099999999999998
aF7.2818199999999997
aI0
aa(lp424
F8.0099999999999998
aF8.0099999999999998
aF8.0099999999999998
aF8.0099999999999998
aF7.2818199999999997
aI0
aa(lp425
F7.4500000000000002
aF8.0500000000000007
aF7.4500000000000002
aF8.0099999999999998
aF7.2818199999999997
aI42592500
aa(lp426
F7.3300000000000001
aF7.8300000000000001
aF7.6299999999999999
aF7.4800000000000004
aF6.7999999999999998
aI34434300
aa(lp427
F7.5
aF7.9500000000000002
aF7.71
aF7.5999999999999996
aF6.90909
aI41230600
aa(lp428
F7.7300000000000004
aF8.4600000000000009
aF8
aF7.79
aF7.0818199999999996
aI61536200
aa(lp429
F7.8200000000000003
aF8.5800000000000001
aF7.98001
aF8.1099999999999994
aF7.3727299999999998
aI76067700
aa(lp430
F7.1399999999999997
aF7.98001
aF7.2699999999999996
aF7.98001
aF7.2545500000000001
aI70637200
aa(lp431
F7.25
aF7.25
aF7.25
aF7.25
aF6.59091
aI0
aa(lp432
F6.9299999999999997
aF7.3499999999999996
aF6.9299999999999997
aF7.25
aF6.59091
aI45357500
aa(lp433
F6.8499999999999996
aF7.46
aF7.1399999999999997
aF7.0199999999999996
aF6.3818200000000003
aI65403300
aa(lp434
F6.6500000000000004
aF7.25
aF6.7000000000000002
aF7.1900000000000004
aF6.5363600000000002
aI67083600
aa(lp435
F6.3499999999999996
aF7.0599999999999996
aF6.4500000000000002
aF6.7999999999999998
aF6.1818200000000001
aI64886400
aa(lp436
F6.1799999999999997
aF6.8499999999999996
aF6.21
aF6.5899999999999999
aF5.9909100000000004
aI62436300
aa(lp437
F6.0999999999999996
aF6.5300000000000002
aF6.4800000000000004
aF6.2699999999999996
aF5.7000000000000002
aI50773100
aa(lp438
F6.1799999999999997
aF6.8300000000000001
aF6.2999999999999998
aF6.46
aF5.8727299999999998
aI93987400
aa(lp439
F5.5700000000000003
aF6.2699999999999996
aF5.6900000000000004
aF6.2699999999999996
aF5.7000000000000002
aI79421200
aa(lp440
F5.5800000000000001
aF5.8399999999999999
aF5.5999999999999996
aF5.7000000000000002
aF5.1818200000000001
aI38780300
aa(lp441
F5.4000000000000004
aF5.6600000000000001
aF5.4500099999999998
aF5.6200000000000001
aF5.1090900000000001
aI29270400
aa(lp442
F5.4500099999999998
aF5.6299999999999999
aF5.5800000000000001
aF5.46
aF4.9636399999999998
aI23515800
aa(lp443
F5.46
aF5.6799999999999997
aF5.5099999999999998
aF5.6200000000000001
aF5.1090900000000001
aI19471900
aa(lp444
F5.2999999999999998
aF5.5899999999999999
aF5.4000000000000004
aF5.5499999999999998
aF5.0454499999999998
aI19823500
aa(lp445
F5.4299999999999997
aF5.7999999999999998
aF5.54
aF5.5099999999999998
aF5.0090899999999996
aI36892300
aa(lp446
F5.4800000000000004
aF5.7300000000000004
aF5.6299999999999999
aF5.5600100000000001
aF5.0545499999999999
aI28195600
aa(lp447
F5.6600000000000001
aF5.9100000000000001
aF5.7999999999999998
aF5.6799999999999997
aF5.16364
aI45000200
aa(lp448
F5.7300000000000004
aF6.0300000000000002
aF5.8099999999999996
aF5.9199999999999999
aF5.3818200000000003
aI55250500
aa(lp449
F5.5199999999999996
aF5.9900000000000002
aF5.6399999999999997
aF5.8799900000000003
aF5.3454499999999996
aI54053100
aa(lp450
F5.4100000000000001
aF5.79
aF5.7000000000000002
aF5.5899999999999999
aF5.0818199999999996
aI43684100
aa(lp451
F5.6399999999999997
aF6.04
aF5.8600000000000003
aF5.75
aF5.2272699999999999
aI59730500
aa(lp452
F5.5800000000000001
aF6.0700000000000003
aF5.6399999999999997
aF5.8399999999999999
aF5.3090900000000003
aI68573500
aa(lp453
F5.4199999999999999
aF5.8300000000000001
aF5.5099999999999998
aF5.71
aF5.1909099999999997
aI63563500
aa(lp454
F5
aF5.6799999999999997
aF5.1799999999999997
aF5.5899999999999999
aF5.0818199999999996
aI50961200
aa(lp455
F5.23001
aF5.6700100000000004
aF5.4699999999999998
aF5.2599999999999998
aF4.7818199999999997
aI56586100
aa(lp456
F5.4100000000000001
aF5.8700000000000001
aF5.5999999999999996
aF5.5999999999999996
aF5.09091
aI96355900
aa(lp457
F4.8499999999999996
aF5.4000000000000004
aF4.9000000000000004
aF5.4000000000000004
aF4.90909
aI58539500
aa(lp458
F4.8099999999999996
aF4.9699999999999998
aF4.9000000000000004
aF4.9100000000000001
aF4.4636399999999998
aI18962400
aa(lp459
F4.7900099999999997
aF4.9299999999999997
aF4.8399999999999999
aF4.9000000000000004
aF4.4545500000000002
aI20490300
aa(lp460
F4.7599999999999998
aF5.0300000000000002
aF4.9500000000000002
aF4.8499999999999996
aF4.40909
aI18822900
aa(lp461
F4.8499999999999996
aF4.9900000000000002
aF4.9199999999999999
aF4.96
aF4.5090899999999996
aI16443700
aa(lp462
F4.8899999999999997
aF5.0800000000000001
aF5.0499999999999998
aF4.9199999999999999
aF4.4727300000000003
aI26984300
aa(lp463
F4.9299999999999997
aF5.23001
aF4.9500000000000002
aF5.0899999999999999
aF4.6272700000000002
aI35721900
aa(lp464
F4.8600000000000003
aF4.9699999999999998
aF4.8899999999999997
aF4.9699999999999998
aF4.5181800000000001
aI18792100
aa(lp465
F4.9100000000000001
aF5.1399999999999997
aF5.0199999999999996
aF4.9299999999999997
aF4.4818199999999999
aI39569000
aa(lp466
F4.6699999999999999
aF5.0300000000000002
aF4.6900000000000004
aF5.0199999999999996
aF4.5636400000000004
aI51266400
aa(lp467
F4.6500000000000004
aF4.9000000000000004
aF4.7400000000000002
aF4.6600000000000001
aF4.2363600000000003
aI34066000
aa(lp468
F4.5499999999999998
aF4.8499999999999996
aF4.7799899999999997
aF4.7400000000000002
aF4.3090900000000003
aI38528700
aa(lp469
F4.7400000000000002
aF5.1200099999999997
aF5.1200099999999997
aF4.75
aF4.3181799999999999
aI35121200
aa(lp470
F4.9699999999999998
aF5.29
aF5.0899999999999999
aF5.1399999999999997
aF4.6727299999999996
aI35210400
aa(lp471
F5.0800000000000001
aF5.5499999999999998
aF5.5499999999999998
aF5.0999999999999996
aF4.6363599999999998
aI50760700
aa(lp472
F5.3899999999999997
aF5.7300000000000004
aF5.6500000000000004
aF5.5800000000000001
aF5.07273
aI58745900
aa(lp473
F5.5700000000000003
aF5.8799900000000003
aF5.79
aF5.7400000000000002
aF5.2181800000000003
aI56663600
aa(lp474
F5.4000000000000004
aF5.9900000000000002
aF5.5499999999999998
aF5.79
aF5.2636399999999997
aI75272300
aa(lp475
F5.5099999999999998
aF6.1600000000000001
aF5.5300000000000002
aF5.7800000000000002
aF5.2545500000000001
aI110136000
aa(lp476
F5.1600000000000001
aF5.6600000000000001
aF5.25
aF5.5999999999999996
aF5.09091
aI79997200
aa(lp477
F5.2400000000000002
aF5.5700000000000003
aF5.4000000000000004
aF5.3499999999999996
aF4.8636400000000002
aI60089300
aa(lp478
F5.2999999999999998
aF5.5
aF5.5
aF5.4199999999999999
aF4.92727
aI59269900
aa(lp479
F5.3799999999999999
aF5.6900000000000004
aF5.4299999999999997
aF5.5899999999999999
aF5.0818199999999996
aI68058400
aa(lp480
F5.4299999999999997
aF5.7800000000000002
aF5.5
aF5.46
aF4.9636399999999998
aI80016800
aa(lp481
F5.1799999999999997
aF5.6700100000000004
aF5.2999999999999998
aF5.54
aF5.0363600000000002
aI116575300
aa(lp482
F5.23001
aF5.3899999999999997
aF5.25
aF5.3899999999999997
aF4.9000000000000004
aI24192000
aa(lp483
F4.4100000000000001
aF4.9000000000000004
aF4.4100000000000001
aF4.9000000000000004
aF4.4545500000000002
aI59193900
aa(lp484
F4.2999999999999998
aF4.7999999999999998
aF4.5
aF4.4500000000000002
aF4.0454499999999998
aI58807300
aa(lp485
F4.5800000000000001
aF4.8499999999999996
aF4.7999999999999998
aF4.5999999999999996
aF4.1818200000000001
aI62216900
aa(lp486
F4.4000000000000004
aF4.9000000000000004
aF4.4600099999999996
aF4.8700000000000001
aF4.42727
aI80883900
aa(lp487
F4.1100000000000003
aF4.54
aF4.1900000000000004
aF4.54
aF4.1272700000000002
aI64583400
aa(lp488
F3.7200000000000002
aF4.1299999999999999
aF3.8199999999999998
aF4.1299999999999999
aF3.7545500000000001
aI46118800
aa(lp489
F3.6000000000000001
aF3.7799999999999998
aF3.6499999999999999
aF3.75
aF3.40909
aI10175000
aa(lp490
F3.4100000000000001
aF3.8300000000000001
aF3.4199999999999999
aF3.6600000000000001
aF3.3272699999999999
aI13379600
aa(lp491
F3.3999999999999999
aF3.73
aF3.6400000000000001
aF3.52
aF3.2000000000000002
aI12604800
aa(lp492
F3.3999999999999999
aF3.7799999999999998
aF3.5
aF3.6499999999999999
aF3.3181799999999999
aI11456700
aa(lp493
F3.1600000000000001
aF3.5800100000000001
aF3.5
aF3.48
aF3.16364
aI9349600
aa(lp494
F3.48
aF3.8500000000000001
aF3.8199999999999998
aF3.5099999999999998
aF3.1909100000000001
aI8704100
aa(lp495
F3.73
aF3.8999999999999999
aF3.8100000000000001
aF3.8199999999999998
aF3.4727299999999999
aI7017100
aa(lp496
F3.9100100000000002
aF4.1100000000000003
aF4.0200100000000001
aF3.9300000000000002
aF3.57273
aI4192700
aa(lp497
F5.1299999999999999
aF5.29
aF5.2800000000000002
aF5.2400099999999998
aF3.6643400000000002
aI6090800
aa(lp498
F5.1600000000000001
aF5.3200000000000003
aF5.29
aF5.3099999999999996
aF3.7132900000000002
aI7151600
aa(lp499
F5.1500000000000004
aF5.3899999999999997
aF5.2300000000000004
aF5.29
aF3.6993
aI10069000
aa(lp500
F5.0300000000000002
aF5.26999
aF5.0599999999999996
aF5.2300000000000004
aF3.65734
aI9273200
aa(lp501
F4.8999899999999998
aF5.1699900000000003
aF5.1699900000000003
aF5.0300000000000002
aF3.5174799999999999
aI10226400
aa(lp502
F5.2400099999999998
aF5.2400099999999998
aF5.2400099999999998
aF5.2400099999999998
aF3.6643400000000002
aI0
aa(lp503
F5.2400099999999998
aF5.2400099999999998
aF5.2400099999999998
aF5.2400099999999998
aF3.6643400000000002
aI0
aa(lp504
F5.2400099999999998
aF5.2400099999999998
aF5.2400099999999998
aF5.2400099999999998
aF3.6643400000000002
aI0
aa(lp505
F5.1900000000000004
aF5.3999899999999998
aF5.3499999999999996
aF5.2400099999999998
aF3.6643400000000002
aI9458900
aa(lp506
F5.3200000000000003
aF5.44001
aF5.44001
aF5.3300000000000001
aF3.7272699999999999
aI8690400
aa(lp507
F5.3200000000000003
aF5.4999900000000004
aF5.3999899999999998
aF5.4100000000000001
aF3.78322
aI8695800
aa(lp508
F5.3600000000000003
aF5.6299999999999999
aF5.59999
aF5.44001
aF3.8041999999999998
aI13690600
aa(lp509
F5.5499999999999998
aF5.7300000000000004
aF5.6400100000000002
aF5.6299999999999999
aF3.9370599999999998
aI14271000
aa(lp510
F5.5699899999999998
aF5.8999899999999998
aF5.8300000000000001
aF5.6100000000000003
aF3.9230800000000001
aI24368000
aa(lp511
F5.7999900000000002
aF6.0199999999999996
aF5.94001
aF5.8300000000000001
aF4.0769200000000003
aI15632400
aa(lp512
F5.8300000000000001
aF6.0499999999999998
aF5.8899999999999997
aF5.9800000000000004
aF4.1818200000000001
aI14919400
aa(lp513
F5.6999899999999997
aF5.9700100000000003
aF5.94001
aF5.9100000000000001
aF4.1328699999999996
aI18475000
aa(lp514
F5.8600000000000003
aF6.1600000000000001
aF5.94001
aF5.9999900000000004
aF4.1958000000000002
aI25846300
aa(lp515
F5.5499999999999998
aF6.0099999999999998
aF5.5800000000000001
aF5.9800000000000004
aF4.1818200000000001
aI34057100
aa(lp516
F5.5199999999999996
aF5.7400099999999998
aF5.5699899999999998
aF5.5800000000000001
aF3.9020999999999999
aI19814300
aa(lp517
F5.5499999999999998
aF5.79
aF5.6799999999999997
aF5.6200000000000001
aF3.9300700000000002
aI22302200
aa(lp518
F5.3799999999999999
aF5.8600000000000003
aF5.3899999999999997
aF5.7400099999999998
aF4.0139899999999997
aI39939000
aa(lp519
F5.1999899999999997
aF5.5800000000000001
aF5.21
aF5.46
aF3.8181799999999999
aI31386200
aa(lp520
F5.1600000000000001
aF5.3099999999999996
aF5.25
aF5.25
aF3.6713300000000002
aI17186700
aa(lp521
F5.2199999999999998
aF5.44001
aF5.2300000000000004
aF5.29
aF3.6993
aI23798800
aa(lp522
F5.1200000000000001
aF5.3200000000000003
aF5.1900000000000004
aF5.2999900000000002
aF3.7062900000000001
aI19733700
aa(lp523
F5.0400099999999997
aF5.4299999999999997
aF5.0899999999999999
aF5.21
aF3.6433599999999999
aI38159500
aa(lp524
F4.96
aF5.1299999999999999
aF5.1100000000000003
aF5.0199999999999996
aF3.5104899999999999
aI15805700
aa(lp525
F4.9699900000000001
aF5.26999
aF4.9999900000000004
aF5.1299999999999999
aF3.5874100000000002
aI28554300
aa(lp526
F4.8600000000000003
aF5.0300000000000002
aF4.9199999999999999
aF4.9999900000000004
aF3.4965000000000002
aI15551000
aa(lp527
F4.8600000000000003
aF4.9800000000000004
aF4.94001
aF4.9299999999999997
aF3.4475500000000001
aI11311400
aa(lp528
F4.8999899999999998
aF4.9900000000000002
aF4.8999899999999998
aF4.9500000000000002
aF3.4615399999999998
aI11232000
aa(lp529
F4.6600000000000001
aF5.1500000000000004
aF4.6600000000000001
aF4.9900000000000002
aF3.4895100000000001
aI23710000
aa(lp530
F4.5999999999999996
aF4.7999900000000002
aF4.5999999999999996
aF4.6799999999999997
aF3.2727300000000001
aI7050500
aa(lp531
F4.5499999999999998
aF4.6600000000000001
aF4.6600000000000001
aF4.5800000000000001
aF3.2027999999999999
aI6186800
aa(lp532
F4.6699900000000003
aF4.6699900000000003
aF4.6699900000000003
aF4.6699900000000003
aF3.26573
aI0
aa(lp533
F4.6699900000000003
aF4.6699900000000003
aF4.6699900000000003
aF4.6699900000000003
aF3.26573
aI0
aa(lp534
F4.6699900000000003
aF4.6699900000000003
aF4.6699900000000003
aF4.6699900000000003
aF3.26573
aI0
aa(lp535
F4.6600000000000001
aF4.7999900000000002
aF4.7800000000000002
aF4.6699900000000003
aF3.26573
aI6433100
aa(lp536
F4.7199999999999998
aF4.8999899999999998
aF4.8999899999999998
aF4.7599999999999998
aF3.3286699999999998
aI10641400
aa(lp537
F4.7800000000000002
aF4.9299999999999997
aF4.8100100000000001
aF4.9100000000000001
aF3.43357
aI6889400
aa(lp538
F4.76999
aF5.0300000000000002
aF4.9800000000000004
aF4.8100100000000001
aF3.3636400000000002
aI9937900
aa(lp539
F4.9199999999999999
aF5.0699899999999998
aF4.96
aF4.9800000000000004
aF3.4825200000000001
aI9791600
aa(lp540
F4.9199999999999999
aF5.0699899999999998
aF4.9999900000000004
aF5.0199999999999996
aF3.5104899999999999
aI14196500
aa(lp541
F4.8400100000000004
aF5.0599999999999996
aF4.8699899999999996
aF4.9299999999999997
aF3.4475500000000001
aI13054100
aa(lp542
F4.7999900000000002
aF4.9699900000000001
aF4.8300000000000001
aF4.9500000000000002
aF3.4615399999999998
aI8040700
aa(lp543
F4.7100099999999996
aF4.8400100000000004
aF4.7199999999999998
aF4.8300000000000001
aF3.3776199999999998
aI4290400
aa(lp544
F4.6799999999999997
aF4.7999900000000002
aF4.7199999999999998
aF4.76999
aF3.3356599999999998
aI5336400
aa(lp545
F4.75
aF4.94001
aF4.8999899999999998
aF4.76999
aF3.3356599999999998
aI10401700
aa(lp546
F4.8899999999999997
aF4.9900000000000002
aF4.9500000000000002
aF4.9100000000000001
aF3.43357
aI6078800
aa(lp547
F4.8699899999999996
aF5.0499999999999998
aF5.0099999999999998
aF4.9199999999999999
aF3.4405600000000001
aI11009300
aa(lp548
F5.0199999999999996
aF5.1200000000000001
aF5.0499999999999998
aF5.0499999999999998
aF3.5314700000000001
aI14050400
aa(lp549
F4.8499999999999996
aF5.1400100000000002
aF4.8999899999999998
aF5.0899999999999999
aF3.5594399999999999
aI19608600
aa(lp550
F4.9800000000000004
aF4.9800000000000004
aF4.9800000000000004
aF4.9800000000000004
aF3.4825200000000001
aI0
aa(lp551
F4.9800000000000004
aF4.9800000000000004
aF4.9800000000000004
aF4.9800000000000004
aF3.4825200000000001
aI0
aa(lp552
F4.8300000000000001
aF5.0499999999999998
aF4.8600000000000003
aF4.9800000000000004
aF3.4825200000000001
aI21156000
aa(lp553
F4.8300000000000001
aF4.9199999999999999
aF4.8499999999999996
aF4.8499999999999996
aF3.39161
aI8085400
aa(lp554
F4.6200000000000001
aF4.9999900000000004
aF4.75
aF4.8999899999999998
aF3.4265699999999999
aI13784600
aa(lp555
F4.7400099999999998
aF4.8699899999999996
aF4.7599999999999998
aF4.7800000000000002
aF3.34266
aI9561300
aa(lp556
F4.7100099999999996
aF4.9999900000000004
aF4.8799999999999999
aF4.7999900000000002
aF3.3566400000000001
aI18521900
aa(lp557
F4.7599999999999998
aF4.8600000000000003
aF4.8100100000000001
aF4.79
aF3.34965
aI5397700
aa(lp558
F4.7599999999999998
aF4.9199999999999999
aF4.9100000000000001
aF4.8200000000000003
aF3.3706299999999998
aI6458700
aa(lp559
F4.8200000000000003
aF4.94001
aF4.8699899999999996
aF4.9199999999999999
aF3.4405600000000001
aI7566500
aa(lp560
F4.8400100000000004
aF4.9999900000000004
aF4.8899999999999997
aF4.8999899999999998
aF3.4265699999999999
aI9041200
aa(lp561
F4.76999
aF5.0300000000000002
aF4.8100100000000001
aF4.9199999999999999
aF3.4405600000000001
aI18923900
aa(lp562
F4.5800000000000001
aF4.8200000000000003
aF4.6299999999999999
aF4.79
aF3.34965
aI11747800
aa(lp563
F4.5300000000000002
aF4.6799999999999997
aF4.6299999999999999
aF4.6200000000000001
aF3.2307700000000001
aI8924600
aa(lp564
F4.5999999999999996
aF4.76999
aF4.75
aF4.6400100000000002
aF3.2447599999999999
aI12134300
aa(lp565
F4.7100099999999996
aF4.8899999999999997
aF4.76999
aF4.7800000000000002
aF3.34266
aI10986200
aa(lp566
F4.5999999999999996
aF5.09999
aF4.7000000000000002
aF4.76999
aF3.3356599999999998
aI16894200
aa(lp567
F4.5999999999999996
aF4.8600000000000003
aF4.8200000000000003
aF4.7199999999999998
aF3.3007
aI10624900
aa(lp568
F4.7000000000000002
aF5.0899999999999999
aF4.9999900000000004
aF4.8400100000000004
aF3.38462
aI18504800
aa(lp569
F4.8999899999999998
aF5.0499999999999998
aF5.0300000000000002
aF5.0199999999999996
aF3.5104899999999999
aI13062600
aa(lp570
F5.0099999999999998
aF5.26999
aF5.1999899999999997
aF5.0400099999999997
aF3.5244800000000001
aI26970800
aa(lp571
F5.1299999999999999
aF5.4299999999999997
aF5.2400099999999998
aF5.26999
aF3.6853099999999999
aI61180700
aa(lp572
F4.6500000000000004
aF5.1299999999999999
aF4.6500000000000004
aF5.1299999999999999
aF3.5874100000000002
aI36623400
aa(lp573
F4.5499999999999998
aF4.7000000000000002
aF4.5800000000000001
aF4.6600000000000001
aF3.25874
aI6143000
aa(lp574
F4.5199999999999996
aF4.7300000000000004
aF4.7300000000000004
aF4.5699899999999998
aF3.1958000000000002
aI8756700
aa(lp575
F4.7000000000000002
aF4.8899999999999997
aF4.7300000000000004
aF4.7800000000000002
aF3.34266
aI11254900
aa(lp576
F4.5599999999999996
aF4.7800000000000002
aF4.5699899999999998
aF4.75
aF3.3216800000000002
aI12097200
aa(lp577
F4.5300000000000002
aF4.6500000000000004
aF4.6100000000000003
aF4.5699899999999998
aF3.1958000000000002
aI4593300
aa(lp578
F4.5899999999999999
aF4.7100099999999996
aF4.6600000000000001
aF4.5999999999999996
aF3.21678
aI7517600
aa(lp579
F4.6100000000000003
aF4.7199999999999998
aF4.6299999999999999
aF4.6799999999999997
aF3.2727300000000001
aI9850000
aa(lp580
F4.5899999999999999
aF4.7800000000000002
aF4.5999999999999996
aF4.6299999999999999
aF3.2377600000000002
aI10257200
aa(lp581
F4.5800000000000001
aF4.7300000000000004
aF4.7300000000000004
aF4.6100000000000003
aF3.2237800000000001
aI8229500
aa(lp582
F4.6500000000000004
aF4.75
aF4.6500000000000004
aF4.7300000000000004
aF3.30769
aI6162400
aa(lp583
F4.6400100000000002
aF4.8100100000000001
aF4.79
aF4.6600000000000001
aF3.25874
aI12352200
aa(lp584
F4.7400099999999998
aF4.8899999999999997
aF4.8799999999999999
aF4.8100100000000001
aF3.3636400000000002
aI6959500
aa(lp585
F4.8499999999999996
aF4.8499999999999996
aF4.8499999999999996
aF4.8499999999999996
aF3.39161
aI0
aa(lp586
F4.8499999999999996
aF4.8499999999999996
aF4.8499999999999996
aF4.8499999999999996
aF3.39161
aI0
aa(lp587
F4.8499999999999996
aF4.8499999999999996
aF4.8499999999999996
aF4.8499999999999996
aF3.39161
aI0
aa(lp588
F4.8499999999999996
aF4.8499999999999996
aF4.8499999999999996
aF4.8499999999999996
aF3.39161
aI0
aa(lp589
F4.8499999999999996
aF4.8499999999999996
aF4.8499999999999996
aF4.8499999999999996
aF3.39161
aI0
aa(lp590
F4.7999900000000002
aF4.8899999999999997
aF4.7999900000000002
aF4.8499999999999996
aF3.39161
aI5911400
aa(lp591
F4.76999
aF4.9199999999999999
aF4.9100000000000001
aF4.7999900000000002
aF3.3566400000000001
aI12320600
aa(lp592
F4.8999899999999998
aF5.1200000000000001
aF4.9299999999999997
aF4.9199999999999999
aF3.4405600000000001
aI16477700
aa(lp593
F4.7300000000000004
aF4.9699900000000001
aF4.8699899999999996
aF4.9100000000000001
aF3.43357
aI15687100
aa(lp594
F4.8499999999999996
aF5.0499999999999998
aF4.96
aF4.9100000000000001
aF3.43357
aI21322500
aa(lp595
F4.7300000000000004
aF5.0499999999999998
aF4.8600000000000003
aF4.9999900000000004
aF3.4965000000000002
aI35767800
aa(lp596
F4.8499999999999996
aF5.1600000000000001
aF5.1500000000000004
aF4.94001
aF3.4545499999999998
aI63447600
aa(lp597
F4.4800000000000004
aF4.9299999999999997
aF4.4800000000000004
aF4.9299999999999997
aF3.4475500000000001
aI37391000
aa(lp598
F4.4299999999999997
aF4.5
aF4.4699900000000001
aF4.4800000000000004
aF3.13287
aI5802400
aa(lp599
F4.3899999999999997
aF4.4900000000000002
aF4.4000000000000004
aF4.4699900000000001
aF3.1258699999999999
aI6982400
aa(lp600
F4.3499999999999996
aF4.4500000000000002
aF4.4000000000000004
aF4.44001
aF3.1049000000000002
aI5528600
aa(lp601
F4.3899999999999997
aF4.5499999999999998
aF4.4900000000000002
aF4.4299999999999997
aF3.0979000000000001
aI9508500
aa(lp602
F4.3899999999999997
aF4.5
aF4.5
aF4.4699900000000001
aF3.1258699999999999
aI7203400
aa(lp603
F4.4699900000000001
aF4.6299999999999999
aF4.5699899999999998
aF4.5
aF3.1468500000000001
aI8736400
aa(lp604
F4.5
aF4.5999999999999996
aF4.5599999999999996
aF4.5699899999999998
aF3.1958000000000002
aI7810600
aa(lp605
F4.5
aF4.6100000000000003
aF4.5499999999999998
aF4.5699899999999998
aF3.1958000000000002
aI6583600
aa(lp606
F4.4900000000000002
aF4.6200000000000001
aF4.5599999999999996
aF4.5400099999999997
aF3.17483
aI6754600
aa(lp607
F4.5
aF4.6200000000000001
aF4.5999999999999996
aF4.5599999999999996
aF3.1888100000000001
aI8269100
aa(lp608
F4.4800000000000004
aF4.6799999999999997
aF4.5100100000000003
aF4.5999999999999996
aF3.21678
aI14398400
aa(lp609
F4.3300000000000001
aF4.5499999999999998
aF4.3499999999999996
aF4.5100100000000003
aF3.1538499999999998
aI11393100
aa(lp610
F4.3499999999999996
aF4.5400099999999997
aF4.5100100000000003
aF4.3799999999999999
aF3.0629400000000002
aI11103700
aa(lp611
F4.4299999999999997
aF4.6500000000000004
aF4.4500000000000002
aF4.5599999999999996
aF3.1888100000000001
aI18283600
aa(lp612
F4.4299999999999997
aF4.5400099999999997
aF4.5
aF4.46
aF3.1188799999999999
aI8172100
aa(lp613
F4.3799999999999999
aF4.4900000000000002
aF4.4500000000000002
aF4.4699900000000001
aF3.1258699999999999
aI6920500
aa(lp614
F4.3799999999999999
aF4.46
aF4.4199999999999999
aF4.4500000000000002
aF3.1118899999999998
aI4568400
aa(lp615
F4.3799999999999999
aF4.4900000000000002
aF4.46
aF4.4000000000000004
aF3.0769199999999999
aI5288500
aa(lp616
F4.4299999999999997
aF4.4299999999999997
aF4.4299999999999997
aF4.4299999999999997
aF3.0979000000000001
aI0
aa(lp617
F4.4299999999999997
aF4.4299999999999997
aF4.4299999999999997
aF4.4299999999999997
aF3.0979000000000001
aI0
aa(lp618
F4.4299999999999997
aF4.4299999999999997
aF4.4299999999999997
aF4.4299999999999997
aF3.0979000000000001
aI0
aa(lp619
F4.3799999999999999
aF4.46
aF4.4299999999999997
aF4.4299999999999997
aF3.0979000000000001
aI6232600
aa(lp620
F4.3300000000000001
aF4.4100099999999998
aF4.3600000000000003
aF4.4100099999999998
aF3.08392
aI4466300
aa(lp621
F4.3300000000000001
aF4.44001
aF4.3899999999999997
aF4.3499999999999996
aF3.04196
aI8034200
aa(lp622
F4.3100100000000001
aF4.4699900000000001
aF4.3200000000000003
aF4.3899999999999997
aF3.0699299999999998
aI8398100
aa(lp623
F4.1799999999999997
aF4.3600000000000003
aF4.2000000000000002
aF4.3200000000000003
aF3.0209800000000002
aI9150100
aa(lp624
F4.1799999999999997
aF4.2399899999999997
aF4.1900000000000004
aF4.2000000000000002
aF2.9370599999999998
aI3885800
aa(lp625
F4.1900000000000004
aF4.29
aF4.2199999999999998
aF4.2000000000000002
aF2.9370599999999998
aI5945900
aa(lp626
F4.1299999999999999
aF4.2300000000000004
aF4.2000000000000002
aF4.2100099999999996
aF2.9440599999999999
aI5753800
aa(lp627
F4.1799999999999997
aF4.26999
aF4.2199999999999998
aF4.2300000000000004
aF2.95804
aI5882800
aa(lp628
F4.1799999999999997
aF4.3799999999999999
aF4.2199999999999998
aF4.2300000000000004
aF2.95804
aI8890400
aa(lp629
F4.1799999999999997
aF4.2800000000000002
aF4.1900000000000004
aF4.2300000000000004
aF2.95804
aI8663700
aa(lp630
F4
aF4.25
aF4.0300000000000002
aF4.2199999999999998
aF2.95105
aI12573900
aa(lp631
F3.9900000000000002
aF4.0899999999999999
aF4.0899999999999999
aF4.0100100000000003
aF2.8041999999999998
aI3686100
aa(lp632
F4.0199999999999996
aF4.1100099999999999
aF4.0699899999999998
aF4.0899999999999999
aF2.8601399999999999
aI4563200
aa(lp633
F4.0599999999999996
aF4.2999999999999998
aF4.0999999999999996
aF4.0899999999999999
aF2.8601399999999999
aI7705500
aa(lp634
F4.0399900000000004
aF4.1200000000000001
aF4.0599999999999996
aF4.0999999999999996
aF2.86713
aI5825300
aa(lp635
F3.9100100000000002
aF4.0399900000000004
aF3.9399899999999999
aF4.0199999999999996
aF2.8111899999999999
aI5903300
aa(lp636
F3.8799999999999999
aF4
aF3.9900000000000002
aF3.9500000000000002
aF2.7622399999999998
aI4292600
aa(lp637
F3.7999999999999998
aF4.0899999999999999
aF3.8300000000000001
aF3.9900000000000002
aF2.7902100000000001
aI7924500
aa(lp638
F3.71001
aF3.8399899999999998
aF3.79
aF3.8300000000000001
aF2.6783199999999998
aI2378900
aa(lp639
F3.76999
aF3.8500000000000001
aF3.8100100000000001
aF3.7799999999999998
aF2.6433599999999999
aI2078100
aa(lp640
F3.7000000000000002
aF3.8500000000000001
aF3.8199999999999998
aF3.8199999999999998
aF2.6713300000000002
aI1770700
aa(lp641
F3.7599999999999998
aF3.86999
aF3.7999999999999998
aF3.7999999999999998
aF2.65734
aI2394200
aa(lp642
F3.79
aF3.9199999999999999
aF3.9199999999999999
aF3.8100100000000001
aF2.6643400000000002
aI3737600
aa(lp643
F3.8900000000000001
aF4.0999999999999996
aF4.0599999999999996
aF3.9300000000000002
aF2.7482500000000001
aI3325500
aa(lp644
F4.0899999999999999
aF4.1699900000000003
aF4.1699900000000003
aF4.0999999999999996
aF2.86713
aI1730800
aa(lp645
F4.1200000000000001
aF4.1900000000000004
aF4.1200000000000001
aF4.1399900000000001
aF2.8950999999999998
aI1761600
aa(lp646
F4.1399900000000001
aF4.2000000000000002
aF4.2000000000000002
aF4.1399900000000001
aF2.8950999999999998
aI1683000
aa(lp647
F4.1299999999999999
aF4.2199999999999998
aF4.1799999999999997
aF4.2100099999999996
aF2.9440599999999999
aI2903400
aa(lp648
F4.1200000000000001
aF4.1799999999999997
aF4.1699900000000003
aF4.1699900000000003
aF2.91608
aI2855400
aa(lp649
F4.0599999999999996
aF4.1699900000000003
aF4.1200000000000001
aF4.1600000000000001
aF2.90909
aI3216400
aa(lp650
F4.0599999999999996
aF4.2800000000000002
aF4.2800000000000002
aF4.1100099999999999
aF2.8741300000000001
aI6522700
aa(lp651
F4.2800000000000002
aF4.3600000000000003
aF4.3600000000000003
aF4.2800000000000002
aF2.9930099999999999
aI2421300
aa(lp652
F4.3100100000000001
aF4.3899999999999997
aF4.3600000000000003
aF4.3600000000000003
aF3.04895
aI2006700
aa(lp653
F4.3300000000000001
aF4.4000000000000004
aF4.4000000000000004
aF4.3600000000000003
aF3.04895
aI2867000
aa(lp654
F4.3799999999999999
aF4.4199999999999999
aF4.4000000000000004
aF4.3899999999999997
aF3.0699299999999998
aI1925400
aa(lp655
F4.3600000000000003
aF4.4299999999999997
aF4.3699899999999996
aF4.3799999999999999
aF3.0629400000000002
aI2376800
aa(lp656
F4.3799999999999999
aF4.5
aF4.5
aF4.3799999999999999
aF3.0629400000000002
aI3402900
aa(lp657
F4.4500000000000002
aF4.5699899999999998
aF4.5699899999999998
aF4.5
aF3.1468500000000001
aI3268800
aa(lp658
F4.46
aF4.7199999999999998
aF4.7100099999999996
aF4.5499999999999998
aF3.1818200000000001
aI6415900
aa(lp659
F4.5300000000000002
aF4.6900000000000004
aF4.5300000000000002
aF4.6299999999999999
aF3.2377600000000002
aI8664800
aa(lp660
F4.4900000000000002
aF4.5899999999999999
aF4.5400099999999997
aF4.5400099999999997
aF3.17483
aI3714600
aa(lp661
F4.44001
aF4.5499999999999998
aF4.4699900000000001
aF4.5400099999999997
aF3.17483
aI5866500
aa(lp662
F4.4000000000000004
aF4.46
aF4.4299999999999997
aF4.46
aF3.1188799999999999
aI2778200
aa(lp663
F4.4000000000000004
aF4.4699900000000001
aF4.4199999999999999
aF4.4299999999999997
aF3.0979000000000001
aI2575300
aa(lp664
F4.3600000000000003
aF4.4800000000000004
aF4.4800000000000004
aF4.4199999999999999
aF3.09091
aI3684000
aa(lp665
F4.4299999999999997
aF4.6500000000000004
aF4.6100000000000003
aF4.4500000000000002
aF3.1118899999999998
aI11181800
aa(lp666
F4.6299999999999999
aF4.6900000000000004
aF4.6299999999999999
aF4.6400100000000002
aF3.2447599999999999
aI7790000
aa(lp667
F4.6100000000000003
aF4.7199999999999998
aF4.6299999999999999
aF4.6400100000000002
aF3.2447599999999999
aI6157500
aa(lp668
F4.6500000000000004
aF4.7800000000000002
aF4.75
aF4.6699900000000003
aF3.26573
aI7650000
aa(lp669
F4.6699900000000003
aF4.76999
aF4.7199999999999998
aF4.75
aF3.3216800000000002
aI6922400
aa(lp670
F4.7100099999999996
aF4.8699899999999996
aF4.75
aF4.7599999999999998
aF3.3286699999999998
aI15730000
aa(lp671
F4.6600000000000001
aF4.7800000000000002
aF4.6900000000000004
aF4.75
aF3.3216800000000002
aI10647900
aa(lp672
F4.6100000000000003
aF4.7599999999999998
aF4.7400099999999998
aF4.6900000000000004
aF3.2797200000000002
aI11297800
aa(lp673
F4.6799999999999997
aF4.8300000000000001
aF4.7199999999999998
aF4.7400099999999998
aF3.3146900000000001
aI13053400
aa(lp674
F4.6299999999999999
aF4.8899999999999997
aF4.8499999999999996
aF4.7599999999999998
aF3.3286699999999998
aI21014600
aa(lp675
F4.7800000000000002
aF4.9800000000000004
aF4.8400100000000004
aF4.96
aF3.4685299999999999
aI39851800
aa(lp676
F4.5499999999999998
aF5.0499999999999998
aF4.5699899999999998
aF5.0499999999999998
aF3.5314700000000001
aI58655900
aa(lp677
F4.5199999999999996
aF4.5999999999999996
aF4.5699899999999998
aF4.5899999999999999
aF3.2097899999999999
aI3597800
aa(lp678
F4.44001
aF4.5800000000000001
aF4.44001
aF4.5800000000000001
aF3.2027999999999999
aI5387700
aa(lp679
F4.4199999999999999
aF4.5199999999999996
aF4.4699900000000001
aF4.44001
aF3.1049000000000002
aI2648400
aa(lp680
F4.46
aF4.46
aF4.46
aF4.46
aF3.1188799999999999
aI0
aa(lp681
F4.46
aF4.46
aF4.46
aF4.46
aF3.1188799999999999
aI0
aa(lp682
F4.46
aF4.46
aF4.46
aF4.46
aF3.1188799999999999
aI0
aa(lp683
F4.46
aF4.46
aF4.46
aF4.46
aF3.1188799999999999
aI0
aa(lp684
F4.46
aF4.46
aF4.46
aF4.46
aF3.1188799999999999
aI0
aa(lp685
F4.3600000000000003
aF4.4800000000000004
aF4.3799999999999999
aF4.46
aF3.1188799999999999
aI3579300
aa(lp686
F4.3400100000000004
aF4.4800000000000004
aF4.3400100000000004
aF4.3899999999999997
aF3.0699299999999998
aI5795800
aa(lp687
F4.3100100000000001
aF4.3899999999999997
aF4.3799999999999999
aF4.3400100000000004
aF3.0349699999999999
aI3098500
aa(lp688
F4.3600000000000003
aF4.44001
aF4.4000000000000004
aF4.3799999999999999
aF3.0629400000000002
aI1434300
aa(lp689
F4.3200000000000003
aF4.4500000000000002
aF4.3699899999999996
aF4.4100099999999998
aF3.08392
aI2054300
aa(lp690
F4.3499999999999996
aF4.46
aF4.4000000000000004
aF4.3699899999999996
aF3.0559400000000001
aI3375600
aa(lp691
F4.4199999999999999
aF4.5999999999999996
aF4.5999999999999996
aF4.44001
aF3.1049000000000002
aI5509300
aa(lp692
F4.5699899999999998
aF4.6900000000000004
aF4.5800000000000001
aF4.6200000000000001
aF3.2307700000000001
aI4237800
aa(lp693
F4.5400099999999997
aF4.6500000000000004
aF4.6200000000000001
aF4.5800000000000001
aF3.2027999999999999
aI3407500
aa(lp694
F4.5999999999999996
aF4.8699899999999996
aF4.7999900000000002
aF4.6200000000000001
aF3.2307700000000001
aI7676600
aa(lp695
F4.75
aF4.8499999999999996
aF4.8300000000000001
aF4.7599999999999998
aF3.3286699999999998
aI6935700
aa(lp696
F4.7199999999999998
aF4.94001
aF4.8100100000000001
aF4.7999900000000002
aF3.3566400000000001
aI9660600
aa(lp697
F4.7400099999999998
aF4.8799999999999999
aF4.8300000000000001
aF4.7999900000000002
aF3.3566400000000001
aI5460300
aa(lp698
F4.7199999999999998
aF4.8699899999999996
aF4.75
aF4.8300000000000001
aF3.3776199999999998
aI7293800
aa(lp699
F4.7100099999999996
aF4.8999899999999998
aF4.7300000000000004
aF4.7599999999999998
aF3.3286699999999998
aI9656100
aa(lp700
F4.5999999999999996
aF4.8400100000000004
aF4.5999999999999996
aF4.75
aF3.3216800000000002
aI12121100
aa(lp701
F4.4800000000000004
aF4.5899999999999999
aF4.5100100000000003
aF4.5800000000000001
aF3.2027999999999999
aI3277300
aa(lp702
F4.4199999999999999
aF4.5400099999999997
aF4.4500000000000002
aF4.5100100000000003
aF3.1538499999999998
aI2893900
aa(lp703
F4.4500000000000002
aF4.5699899999999998
aF4.5199999999999996
aF4.46
aF3.1188799999999999
aI2317600
aa(lp704
F4.46
aF4.5599999999999996
aF4.4900000000000002
aF4.5199999999999996
aF3.1608399999999999
aI2715300
aa(lp705
F4.4299999999999997
aF4.4900000000000002
aF4.4500000000000002
aF4.4699900000000001
aF3.1258699999999999
aI2111400
aa(lp706
F4.4299999999999997
aF4.5899999999999999
aF4.5199999999999996
aF4.4699900000000001
aF3.1258699999999999
aI4056700
aa(lp707
F4.5199999999999996
aF4.6100000000000003
aF4.5499999999999998
aF4.5400099999999997
aF3.17483
aI2551000
aa(lp708
F4.5100100000000003
aF4.5999999999999996
aF4.5400099999999997
aF4.5599999999999996
aF3.1888100000000001
aI3056000
aa(lp709
F4.5199999999999996
aF4.6100000000000003
aF4.5800000000000001
aF4.5400099999999997
aF3.17483
aI3054400
aa(lp710
F4.6100000000000003
aF4.7100099999999996
aF4.7100099999999996
aF4.6200000000000001
aF3.2307700000000001
aI4725500
aa(lp711
F4.6299999999999999
aF4.75
aF4.6799999999999997
aF4.7300000000000004
aF3.30769
aI4508900
aa(lp712
F4.6299999999999999
aF4.7199999999999998
aF4.6699900000000003
aF4.6600000000000001
aF3.25874
aI3129100
aa(lp713
F4.5800000000000001
aF4.7300000000000004
aF4.6400100000000002
aF4.6799999999999997
aF3.2727300000000001
aI5200600
aa(lp714
F4.5400099999999997
aF4.6600000000000001
aF4.6600000000000001
aF4.6400100000000002
aF3.2447599999999999
aI4252900
aa(lp715
F4.6100000000000003
aF4.7199999999999998
aF4.6100000000000003
aF4.6900000000000004
aF3.2797200000000002
aI2572400
aa(lp716
F4.5899999999999999
aF4.7300000000000004
aF4.7300000000000004
aF4.6600000000000001
aF3.25874
aI5120200
aa(lp717
F4.7100099999999996
aF4.8600000000000003
aF4.8600000000000003
aF4.7300000000000004
aF3.30769
aI9220300
aa(lp718
F4.7300000000000004
aF5.0499999999999998
aF4.7400099999999998
aF4.8999899999999998
aF3.4265699999999999
aI17143900
aa(lp719
F4.6799999999999997
aF4.8600000000000003
aF4.8600000000000003
aF4.6900000000000004
aF3.2797200000000002
aI5244400
aa(lp720
F4.7999900000000002
aF4.8799999999999999
aF4.8499999999999996
aF4.8600000000000003
aF3.3986000000000001
aI4142700
aa(lp721
F4.7599999999999998
aF4.9199999999999999
aF4.8799999999999999
aF4.8899999999999997
aF3.4195799999999998
aI9086300
aa(lp722
F4.7999900000000002
aF4.94001
aF4.9100000000000001
aF4.8699899999999996
aF3.4055900000000001
aI8846600
aa(lp723
F4.79
aF4.9999900000000004
aF4.8300000000000001
aF4.9900000000000002
aF3.4895100000000001
aI8549200
aa(lp724
F4.6799999999999997
aF4.8499999999999996
aF4.7100099999999996
aF4.8400100000000004
aF3.38462
aI6197400
aa(lp725
F4.6299999999999999
aF4.7400099999999998
aF4.6799999999999997
aF4.7300000000000004
aF3.30769
aI3467200
aa(lp726
F4.6299999999999999
aF4.76999
aF4.6799999999999997
aF4.6600000000000001
aF3.25874
aI2922100
aa(lp727
F4.5699899999999998
aF4.7199999999999998
aF4.5999999999999996
aF4.6900000000000004
aF3.2797200000000002
aI2552300
aa(lp728
F4.5599999999999996
aF4.7400099999999998
aF4.6100000000000003
aF4.6299999999999999
aF3.2377600000000002
aI3167600
aa(lp729
F4.6200000000000001
aF4.8300000000000001
aF4.75
aF4.6400100000000002
aF3.2447599999999999
aI5491100
aa(lp730
F4.6299999999999999
aF5.0400099999999997
aF4.6299999999999999
aF4.7800000000000002
aF3.34266
aI7147300
aa(lp731
F4.6100000000000003
aF4.7300000000000004
aF4.7000000000000002
aF4.6200000000000001
aF3.2307700000000001
aI2724200
aa(lp732
F4.5999999999999996
aF4.7300000000000004
aF4.6500000000000004
aF4.6900000000000004
aF3.2797200000000002
aI2699900
aa(lp733
F4.5999999999999996
aF4.6799999999999997
aF4.6400100000000002
aF4.6600000000000001
aF3.25874
aI3482900
aa(lp734
F4.5999999999999996
aF4.7400099999999998
aF4.7000000000000002
aF4.6299999999999999
aF3.2377600000000002
aI3069700
aa(lp735
F4.7300000000000004
aF4.8799999999999999
aF4.7800000000000002
aF4.7400099999999998
aF3.3146900000000001
aI3225200
aa(lp736
F4.7000000000000002
aF4.8799999999999999
aF4.75
aF4.7999900000000002
aF3.3566400000000001
aI4489200
aa(lp737
F4.6500000000000004
aF4.7599999999999998
aF4.7300000000000004
aF4.75
aF3.3216800000000002
aI2502400
aa(lp738
F4.6400100000000002
aF4.75
aF4.6900000000000004
aF4.7199999999999998
aF3.3007
aI1969200
aa(lp739
F4.6799999999999997
aF4.9100000000000001
aF4.8799999999999999
aF4.6900000000000004
aF3.2797200000000002
aI4930900
aa(lp740
F4.8699899999999996
aF4.9500000000000002
aF4.9199999999999999
aF4.9100000000000001
aF3.43357
aI2332300
aa(lp741
F4.7800000000000002
aF4.96
aF4.8499999999999996
aF4.8999899999999998
aF3.4265699999999999
aI3691700
aa(lp742
F4.8200000000000003
aF4.9100000000000001
aF4.8499999999999996
aF4.8699899999999996
aF3.4055900000000001
aI2245800
aa(lp743
F4.8200000000000003
aF4.8899999999999997
aF4.8400100000000004
aF4.8499999999999996
aF3.39161
aI3117900
aa(lp744
F4.8300000000000001
aF5.0300000000000002
aF5.0300000000000002
aF4.8400100000000004
aF3.38462
aI3599000
aa(lp745
F4.8499999999999996
aF5.0699899999999998
aF5.0699899999999998
aF5.0699899999999998
aF3.5454500000000002
aI5975900
aa(lp746
F5.0099999999999998
aF5.1600000000000001
aF5.1400100000000002
aF5.0199999999999996
aF3.5104899999999999
aI3885600
aa(lp747
F5.0800000000000001
aF5.2199999999999998
aF5.1500000000000004
aF5.1799999999999997
aF3.6223800000000002
aI5407300
aa(lp748
F5.0899999999999999
aF5.2400099999999998
aF5.1600000000000001
aF5.1400100000000002
aF3.5944099999999999
aI4657200
aa(lp749
F5.1400100000000002
aF5.1999899999999997
aF5.1999899999999997
aF5.1699900000000003
aF3.61538
aI5034600
aa(lp750
F4.9999900000000004
aF5.2300000000000004
aF5.0400099999999997
aF5.1699900000000003
aF3.61538
aI7153500
aa(lp751
F5.0499999999999998
aF5.1699900000000003
aF5.1699900000000003
aF5.0599999999999996
aF3.5384600000000002
aI4001400
aa(lp752
F5.1299999999999999
aF5.21
aF5.1699900000000003
aF5.1500000000000004
aF3.6013999999999999
aI3428900
aa(lp753
F5.09999
aF5.2199999999999998
aF5.1699900000000003
aF5.1699900000000003
aF3.61538
aI3738000
aa(lp754
F5.1799999999999997
aF5.3999899999999998
aF5.3699899999999996
aF5.1900000000000004
aF3.6293700000000002
aI4208200
aa(lp755
F5.3899999999999997
aF5.3899999999999997
aF5.3899999999999997
aF5.3899999999999997
aF3.7692299999999999
aI0
aa(lp756
F5.3600000000000003
aF5.5300000000000002
aF5.5300000000000002
aF5.3899999999999997
aF3.7692299999999999
aI4965100
aa(lp757
F5.4299999999999997
aF5.6400100000000002
aF5.4900000000000002
aF5.5300000000000002
aF3.86713
aI5702100
aa(lp758
F5.4199999999999999
aF5.5400099999999997
aF5.5199999999999996
aF5.4900000000000002
aF3.8391600000000001
aI5060900
aa(lp759
F5.3699899999999996
aF5.6799999999999997
aF5.3999899999999998
aF5.5400099999999997
aF3.8741300000000001
aI8564400
aa(lp760
F5.3300000000000001
aF5.4500000000000002
aF5.4299999999999997
aF5.3799999999999999
aF3.7622399999999998
aI4032900
aa(lp761
F5.3799999999999999
aF5.4699900000000001
aF5.4199999999999999
aF5.3999899999999998
aF3.7762199999999999
aI3741400
aa(lp762
F5.3300000000000001
aF5.4699900000000001
aF5.3300000000000001
aF5.4500000000000002
aF3.8111899999999999
aI4494700
aa(lp763
F5.3099999999999996
aF5.4800000000000004
aF5.4699900000000001
aF5.3300000000000001
aF3.7272699999999999
aI4989400
aa(lp764
F5.3499999999999996
aF5.4800000000000004
aF5.3799999999999999
aF5.4699900000000001
aF3.82517
aI5335000
aa(lp765
F5.3099999999999996
aF5.4100000000000001
aF5.3400100000000004
aF5.3499999999999996
aF3.74126
aI4280700
aa(lp766
F5.2999900000000002
aF5.4199999999999999
aF5.3899999999999997
aF5.3099999999999996
aF3.7132900000000002
aI3490800
aa(lp767
F5.29
aF5.4199999999999999
aF5.3999899999999998
aF5.3400100000000004
aF3.73427
aI4051500
aa(lp768
F5.2999900000000002
aF5.44001
aF5.3999899999999998
aF5.3600000000000003
aF3.7482500000000001
aI6951000
aa(lp769
F5.3400100000000004
aF5.6900000000000004
aF5.6500000000000004
aF5.3499999999999996
aF3.74126
aI9438800
aa(lp770
F5.7400099999999998
aF5.8600000000000003
aF5.79
aF5.75
aF4.0209799999999998
aI4225600
aa(lp771
F5.6600000000000001
aF5.8899999999999997
aF5.6999899999999997
aF5.7999900000000002
aF4.0559399999999997
aI7185800
aa(lp772
F5.75
aF5.75
aF5.75
aF5.75
aF4.0209799999999998
aI0
aa(lp773
F5.6100000000000003
aF5.8400100000000004
aF5.6299999999999999
aF5.75
aF4.0209799999999998
aI9254900
aa(lp774
F5.46
aF5.6799999999999997
aF5.6400100000000002
aF5.6500000000000004
aF3.95105
aI6153800
aa(lp775
F5.5800000000000001
aF5.9500000000000002
aF5.9299999999999997
aF5.6100000000000003
aF3.9230800000000001
aI8386800
aa(lp776
F5.7999900000000002
aF5.9999900000000004
aF5.9299999999999997
aF5.9299999999999997
aF4.1468499999999997
aI7513400
aa(lp777
F5.8999899999999998
aF6.0199999999999996
aF5.9999900000000004
aF5.9500000000000002
aF4.1608400000000003
aI5166000
aa(lp778
F5.9500000000000002
aF6.0700099999999999
aF6.0499999999999998
aF6.0099999999999998
aF4.2027999999999999
aI5938300
aa(lp779
F5.8899999999999997
aF6.1200000000000001
aF6.0499999999999998
aF5.9800000000000004
aF4.1818200000000001
aI7705100
aa(lp780
F6.0400099999999997
aF6.2999900000000002
aF6.2800000000000002
aF6.1100000000000003
aF4.2727300000000001
aI13683400
aa(lp781
F6.2199999999999998
aF6.5800000000000001
aF6.2199999999999998
aF6.4700100000000003
aF4.5244799999999996
aI14108100
aa(lp782
F12.34999
aF12.71001
aF12.470000000000001
aF12.48001
aF4.2636399999999997
aI22726900
aa(lp783
F11.93
aF12.5
aF12.1
aF12.470000000000001
aF4.2602200000000003
aI11548700
aa(lp784
F12.02999
aF12.590009999999999
aF12.07
aF12.22001
aF4.1748099999999999
aI18365200
aa(lp785
F11.82001
aF12.1
aF11.99001
aF11.940009999999999
aF4.0791599999999999
aI8672700
aa(lp786
F11.81
aF12.1
aF11.9
aF11.91001
aF4.0689099999999998
aI6644300
aa(lp787
F11.9
aF12.19999
aF12.19999
aF11.9
aF4.0654899999999996
aI9663900
aa(lp788
F12.27
aF12.659990000000001
aF12.489990000000001
aF12.319990000000001
aF4.2089699999999999
aI15755100
aa(lp789
F12.33
aF12.33
aF12.33
aF12.33
aF4.2123900000000001
aI0
aa(lp790
F12.11999
aF12.42001
aF12.280010000000001
aF12.33
aF4.2123900000000001
aI9981100
aa(lp791
F11.949999999999999
aF12.340009999999999
aF11.949999999999999
aF12.190009999999999
aF4.1645599999999998
aI10336000
aa(lp792
F11.91999
aF12.22001
aF11.969989999999999
aF11.99999
aF4.0996499999999996
aI11868800
aa(lp793
F11.84
aF11.84
aF11.84
aF11.84
aF4.0449900000000003
aI0
aa(lp794
F11.84
aF11.84
aF11.84
aF11.84
aF4.0449900000000003
aI0
aa(lp795
F11.84
aF11.84
aF11.84
aF11.84
aF4.0449900000000003
aI0
aa(lp796
F11.719989999999999
aF12.11999
aF11.99001
aF11.84
aF4.0449900000000003
aI8533900
aa(lp797
F11.67
aF12.130000000000001
aF11.719989999999999
aF11.98
aF4.0928199999999997
aI11256400
aa(lp798
F11.42001
aF11.99001
aF11.680009999999999
aF11.76
aF4.0176600000000002
aI12975800
aa(lp799
F11.74999
aF12.44
aF12.31001
aF11.790010000000001
aF4.0279100000000003
aI20938600
aa(lp800
F11.91001
aF12.889989999999999
aF11.99999
aF12.569990000000001
aF4.2943800000000003
aI28771200
aa(lp801
F11.9
aF12.130000000000001
aF12.039999999999999
aF12.01
aF4.1030699999999998
aI9540800
aa(lp802
F11.719989999999999
aF12.14001
aF11.779999999999999
aF12.059990000000001
aF4.1201499999999998
aI21081800
aa(lp803
F11.549989999999999
aF11.82999
aF11.59999
aF11.67
aF3.98691
aI9279100
aa(lp804
F11.5
aF11.779999999999999
aF11.629989999999999
aF11.67
aF3.98691
aI9087600
aa(lp805
F11.699999999999999
aF12.1
aF11.84
aF11.73
aF4.0074100000000001
aI17249700
aa(lp806
F11.609999999999999
aF12.059990000000001
aF11.620010000000001
aF11.91999
aF4.0723200000000004
aI21429700
aa(lp807
F11.450010000000001
aF11.74001
aF11.5
aF11.609999999999999
aF3.9664100000000002
aI15626000
aa(lp808
F11.319990000000001
aF11.850009999999999
aF11.790010000000001
aF11.76999
aF4.0210699999999999
aI37446500
aa(lp809
F11.319990000000001
aF11.889989999999999
aF11.489990000000001
aF11.889989999999999
aF4.0620700000000003
aI46023300
aa(lp810
F10.510009999999999
aF10.88001
aF10.510009999999999
aF10.81
aF3.6930999999999998
aI6955500
aa(lp811
F10.15
aF10.680009999999999
aF10.19999
aF10.590009999999999
aF3.6179399999999999
aI5321400
aa(lp812
F10.16999
aF10.16999
aF10.16999
aF10.16999
aF3.47445
aI0
aa(lp813
F10.16999
aF10.16999
aF10.16999
aF10.16999
aF3.47445
aI0
aa(lp814
F10.16999
aF10.16999
aF10.16999
aF10.16999
aF3.47445
aI0
aa(lp815
F10.119999999999999
aF10.31001
aF10.24
aF10.16999
aF3.47445
aI2632500
aa(lp816
F10.16001
aF10.58
aF10.48001
aF10.24
aF3.49837
aI3709900
aa(lp817
F10.48001
aF11.11999
aF11.08001
aF10.489990000000001
aF3.58378
aI5506300
aa(lp818
F11.02999
aF11.319990000000001
aF11.07
aF11.059990000000001
aF3.7785099999999998
aI3446700
aa(lp819
F10.96001
aF11.15
aF11.059990000000001
aF11.02999
aF3.7682600000000002
aI2155300
aa(lp820
F10.98
aF11.300000000000001
aF11.300000000000001
aF11.039999999999999
aF3.7716799999999999
aI4507700
aa(lp821
F11.18
aF11.399990000000001
aF11.319990000000001
aF11.300000000000001
aF3.8605
aI3430400
aa(lp822
F11.130000000000001
aF11.450010000000001
aF11.399990000000001
aF11.319990000000001
aF3.8673299999999999
aI5232300
aa(lp823
F11.33
aF11.74001
aF11.699999999999999
aF11.339980000000001
aF3.8741599999999998
aI7295300
aa(lp824
F11.56
aF11.779999999999999
aF11.58
aF11.76
aF4.0176600000000002
aI5700600
aa(lp825
F11.450010000000001
aF11.73
aF11.58
aF11.629989999999999
aF3.9732400000000001
aI8251800
aa(lp826
F11.459989999999999
aF11.960000000000001
aF11.85999
aF11.51999
aF3.9356599999999999
aI12753400
aa(lp827
F12.380000000000001
aF12.380000000000001
aF12.380000000000001
aF12.380000000000001
aF4.2294700000000001
aI0
aa(lp828
F12.05001
aF12.42001
aF12.210000000000001
aF12.380000000000001
aF4.2294700000000001
aI8908700
aa(lp829
F12.08001
aF12.380000000000001
aF12.31001
aF12.210000000000001
aF4.1713899999999997
aI7845100
aa(lp830
F12.059990000000001
aF12.25001
aF12.130000000000001
aF12.24
aF4.1816399999999998
aI5971300
aa(lp831
F11.850009999999999
aF12.25001
aF11.850009999999999
aF12.059990000000001
aF4.1201499999999998
aI8335700
aa(lp832
F11.799989999999999
aF12.07
aF11.99001
aF11.81
aF4.0347400000000002
aI6110800
aa(lp833
F11.99999
aF12.380000000000001
aF12.380000000000001
aF12.02999
aF4.1098999999999997
aI6715600
aa(lp834
F12.28999
aF12.529999999999999
aF12.36999
aF12.380000000000001
aF4.2294700000000001
aI10650400
aa(lp835
F12.19999
aF12.359999999999999
aF12.280010000000001
aF12.359999999999999
aF4.2226400000000002
aI6418100
aa(lp836
F11.99999
aF12.24
aF11.99999
aF12.190009999999999
aF4.1645599999999998
aI7183500
aa(lp837
F12.020009999999999
aF12.28999
aF12.16999
aF12.039999999999999
aF4.1133199999999999
aI5714500
aa(lp838
F12.14001
aF12.41
aF12.319990000000001
aF12.190009999999999
aF4.1645599999999998
aI10211600
aa(lp839
F12.300000000000001
aF12.569990000000001
aF12.459989999999999
aF12.34999
aF4.21922
aI15950200
aa(lp840
F12.059990000000001
aF12.65001
aF12.1
aF12.39001
aF4.2328900000000003
aI18952700
aa(lp841
F12.01
aF12.27
aF12.27
aF12.16999
aF4.1577200000000003
aI15309000
aa(lp842
F11.659990000000001
aF12.42001
aF11.680009999999999
aF12.300000000000001
aF4.20214
aI26056700
aa(lp843
F11.28999
aF11.779999999999999
aF11.540010000000001
aF11.73
aF4.0074100000000001
aI11975500
aa(lp844
F11.549989999999999
aF12.190009999999999
aF11.680009999999999
aF11.629989999999999
aF3.9732400000000001
aI17903000
aa(lp845
F11.399990000000001
aF11.799989999999999
aF11.680009999999999
aF11.51999
aF3.9356599999999999
aI5165900
aa(lp846
F11.510009999999999
aF11.74999
aF11.659990000000001
aF11.65001
aF3.9800800000000001
aI10180600
aa(lp847
F11.399990000000001
aF11.67
aF11.450010000000001
aF11.620010000000001
aF3.96983
aI8636000
aa(lp848
F11.360010000000001
aF11.799989999999999
aF11.459989999999999
aF11.51999
aF3.9356599999999999
aI7942400
aa(lp849
F10.99999
aF11.51999
aF11.08001
aF11.5
aF3.92883
aI10967300
aa(lp850
F11.020009999999999
aF11.339980000000001
aF11.110010000000001
aF11.22001
aF3.83318
aI6741600
aa(lp851
F10.98
aF11.28999
aF11.05001
aF11.1
aF3.7921800000000001
aI7522700
aa(lp852
F10.65001
aF11.1
aF10.65001
aF11.05001
aF3.7751000000000001
aI6200300
aa(lp853
F10.629989999999999
aF10.9
aF10.9
aF10.67
aF3.64527
aI3800800
aa(lp854
F10.9
aF11.16001
aF10.93999
aF10.99001
aF3.7545999999999999
aI5673000
aa(lp855
F10.65001
aF11.05001
aF10.699999999999999
aF10.91999
aF3.73068
aI6854300
aa(lp856
F10.450010000000001
aF10.699999999999999
aF10.48001
aF10.68999
aF3.6520999999999999
aI2910600
aa(lp857
F10.36999
aF10.609999999999999
aF10.510009999999999
aF10.42001
aF3.5598700000000001
aI2161400
aa(lp858
F10.39001
aF10.53999
aF10.53999
aF10.470000000000001
aF3.5769500000000001
aI2263500
aa(lp859
F10.450010000000001
aF10.67
aF10.65001
aF10.48001
aF3.5803699999999998
aI3543400
aa(lp860
F10.65001
aF10.65001
aF10.65001
aF10.65001
aF3.6384400000000001
aI0
aa(lp861
F10.65001
aF10.65001
aF10.65001
aF10.65001
aF3.6384400000000001
aI0
aa(lp862
F10.65001
aF10.65001
aF10.65001
aF10.65001
aF3.6384400000000001
aI0
aa(lp863
F10.65001
aF10.65001
aF10.65001
aF10.65001
aF3.6384400000000001
aI0
aa(lp864
F10.65001
aF10.65001
aF10.65001
aF10.65001
aF3.6384400000000001
aI0
aa(lp865
F10.529999999999999
aF10.73
aF10.529999999999999
aF10.65001
aF3.6384400000000001
aI4073900
aa(lp866
F10.360010000000001
aF10.850009999999999
aF10.41
aF10.59999
aF3.6213500000000001
aI6595000
aa(lp867
F10.68999
aF11.300000000000001
aF10.9
aF10.739990000000001
aF3.6691799999999999
aI6842700
aa(lp868
F10.27
aF10.9
aF10.280010000000001
aF10.88001
aF3.7170200000000002
aI5497600
aa(lp869
F10.25001
aF10.569990000000001
aF10.33001
aF10.280010000000001
aF3.5120399999999998
aI2563900
aa(lp870
F10.459989999999999
aF11.08999
aF10.99999
aF10.489990000000001
aF3.58378
aI5729500
aa(lp871
F10.91001
aF11.19999
aF11.059990000000001
aF11.020009999999999
aF3.76485
aI5594000
aa(lp872
F10.969989999999999
aF11.48001
aF11.08999
aF11.11999
aF3.79901
aI10664100
aa(lp873
F10.399990000000001
aF11.42001
aF10.399990000000001
aF11.15
aF3.8092600000000001
aI13752100
aa(lp874
F9.9999900000000004
aF10.459989999999999
aF9.9999900000000004
aF10.380000000000001
aF3.5461999999999998
aI4733600
aa(lp875
F9.8100000000000005
aF10.15
aF9.9199999999999999
aF10.07
aF3.4402900000000001
aI2598300
aa(lp876
F9.7099899999999995
aF10.450010000000001
aF10.33001
aF9.9199999999999999
aF3.3890400000000001
aI4573600
aa(lp877
F10.489990000000001
aF11.1
aF11.1
aF10.5
aF3.5872000000000002
aI2598100
aa(lp878
F10.790010000000001
aF10.99001
aF10.84
aF10.88001
aF3.7170200000000002
aI3182700
aa(lp879
F10.790010000000001
aF10.99001
aF10.84
aF10.88001
aF3.7170200000000002
aI3182700
aa(lp880
F10.790010000000001
aF10.99001
aF10.84
aF10.88001
aF3.7170200000000002
aI3182700
aa(lp881
F10.590009999999999
aF10.949999999999999
aF10.75
aF10.76999
aF3.67943
aI4008500
aa(lp882
F10.590009999999999
aF11.18
aF11.1
aF10.88001
aF3.7170200000000002
aI5664000
aa(lp883
F11.19999
aF11.59999
aF11.51999
aF11.25999
aF3.8468399999999998
aI2539800
aa(lp884
F11.39001
aF11.76999
aF11.549989999999999
aF11.5
aF3.92883
aI1949800
aa(lp885
F11.41
aF11.84
aF11.470000000000001
aF11.590009999999999
aF3.9595799999999999
aI2839300
aa(lp886
F10.99999
aF11.99001
aF11.99001
aF11.56
aF3.9493299999999998
aI6156400
aa(lp887
F12.01
aF12.68999
aF12.680009999999999
aF12.02999
aF4.1098999999999997
aI2649900
aa(lp888
F12.340009999999999
aF12.779999999999999
aF12.340009999999999
aF12.399990000000001
aF4.2363
aI3483500
aa(lp889
F11.93
aF12.51999
aF12.42999
aF12.450010000000001
aF4.2533899999999996
aI3615200
aa(lp890
F12.14001
aF12.56
aF12.25001
aF12.540010000000001
aF4.2841399999999998
aI3938900
aa(lp891
F12.08999
aF12.799989999999999
aF12.74999
aF12.18
aF4.1611399999999996
aI5136600
aa(lp892
F12.82001
aF13.110010000000001
aF12.88001
aF12.82999
aF4.3832100000000001
aI1925500
aa(lp893
F12.9
aF13.5
aF13.5
aF12.91001
aF4.4105400000000001
aI5138500
aa(lp894
F13.5
aF13.77999
aF13.629989999999999
aF13.510009999999999
aF4.6155299999999997
aI1915100
aa(lp895
F13.629989999999999
aF13.88001
aF13.629989999999999
aF13.68999
aF4.6770100000000001
aI1675500
aa(lp896
F13.59999
aF14.08999
aF13.850009999999999
aF13.9
aF4.7487599999999999
aI3170700
aa(lp897
F13.609999999999999
aF13.97001
aF13.76
aF13.889989999999999
aF4.7453399999999997
aI1904700
aa(lp898
F13.5
aF13.799989999999999
aF13.510009999999999
aF13.74001
aF4.6940999999999997
aI2333400
aa(lp899
F13.56
aF13.889989999999999
aF13.71001
aF13.59999
aF4.6462700000000003
aI2844000
aa(lp900
F13.74999
aF14.059990000000001
aF13.94999
aF13.789999999999999
aF4.7111799999999997
aI3848200
aa(lp901
F14.02999
aF14.459989999999999
aF14.300000000000001
aF14.07
aF4.8068400000000002
aI7308000
aa(lp902
F13.770009999999999
aF14.91999
aF14.91999
aF13.82001
aF4.7214299999999998
aI7804800
aa(lp903
F14.629989999999999
aF14.97001
aF14.719989999999999
aF14.93
aF5.1006499999999999
aI7137300
aa(lp904
F14.409990000000001
aF14.71001
aF14.640000000000001
aF14.600009999999999
aF4.9879100000000003
aI3186100
aa(lp905
F14.409990000000001
aF14.80001
aF14.56
aF14.510009999999999
aF4.95716
aI3091200
aa(lp906
F14.319990000000001
aF14.770009999999999
aF14.600009999999999
aF14.56
aF4.97424
aI3699800
aa(lp907
F14.76
aF15.149990000000001
aF14.85999
aF14.809990000000001
aF5.0596500000000004
aI3223100
aa(lp908
F14.71001
aF15.05001
aF14.80001
aF14.88001
aF5.0835699999999999
aI3464000
aa(lp909
F14.699999999999999
aF15.00999
aF14.789999999999999
aF15.00001
aF5.1245700000000003
aI4295500
aa(lp910
F14.82
aF15.390000000000001
aF15.390000000000001
aF14.85999
aF5.0767300000000004
aI8413400
aa(lp911
F15.34999
aF15.80001
aF15.549989999999999
aF15.459989999999999
aF5.2817100000000003
aI6717700
aa(lp912
F15.359999999999999
aF16.200009999999999
aF16.190000000000001
aF15.600009999999999
aF5.3295500000000002
aI13680600
aa(lp913
F15.91999
aF16.200009999999999
aF16.149989999999999
aF16.129999999999999
aF5.5106099999999998
aI7781600
aa(lp914
F15.83001
aF16.329999999999998
aF15.83001
aF16.08999
aF5.4969400000000004
aI13816200
aa(lp915
F15.59
aF15.979990000000001
aF15.77999
aF15.68999
aF5.36029
aI8653400
aa(lp916
F15.77999
aF16.48001
aF15.82
aF15.809990000000001
aF5.4012900000000004
aI19953300
aa(lp917
F15.42999
aF16.149989999999999
aF15.489990000000001
aF16.080010000000001
aF5.4935299999999998
aI15238700
aa(lp918
F15.319990000000001
aF15.85
aF15.80001
aF15.42999
aF5.2714600000000003
aI9488700
aa(lp919
F15.529999999999999
aF15.960000000000001
aF15.80001
aF15.80001
aF5.3978799999999998
aI11323000
aa(lp920
F15.60999
aF16.14001
aF15.809990000000001
aF15.74999
aF5.3807900000000002
aI17064000
aa(lp921
F15.60999
aF16.400010000000002
aF15.82
aF15.65001
aF5.3466300000000002
aI33449300
aa(lp922
F14.40001
aF16.080010000000001
aF14.450010000000001
aF15.77999
aF5.3910400000000003
aI32505600
aa(lp923
F14.60999
aF15.07
aF14.80001
aF14.73
aF5.0323200000000003
aI9274000
aa(lp924
F14.67
aF14.979990000000001
aF14.809990000000001
aF14.97001
aF5.1143200000000002
aI8961700
aa(lp925
F14.48001
aF14.85999
aF14.71001
aF14.809990000000001
aF5.0596500000000004
aI10701000
aa(lp926
F14.370010000000001
aF14.74999
aF14.600009999999999
aF14.44
aF4.9332399999999996
aI6727800
aa(lp927
F14.300000000000001
aF14.809990000000001
aF14.31001
aF14.5
aF4.9537399999999998
aI10563000
aa(lp928
F13.770009999999999
aF14.699999999999999
aF13.960000000000001
aF14.5
aF4.9537399999999998
aI9159500
aa(lp929
F13.34999
aF13.99999
aF13.74001
aF13.93
aF4.75901
aI4333600
aa(lp930
F13.51999
aF13.940009999999999
aF13.9
aF13.549989999999999
aF4.6291900000000004
aI3466300
aa(lp931
F13.699999999999999
aF14.17999
aF14.08001
aF13.84
aF4.7282599999999997
aI4372800
aa(lp932
F14.05001
aF14.48001
aF14.34999
aF14.17999
aF4.8444200000000004
aI3550500
aa(lp933
F14.149990000000001
aF14.74999
aF14.65001
aF14.210000000000001
aF4.8546699999999996
aI5947100
aa(lp934
F14.549989999999999
aF14.94999
aF14.80001
aF14.82999
aF5.0664800000000003
aI5565500
aa(lp935
F14.529999999999999
aF14.77999
aF14.629989999999999
aF14.68999
aF5.0186500000000001
aI5576900
aa(lp936
F14.459989999999999
aF14.88001
aF14.510009999999999
aF14.65001
aF5.0049900000000003
aI9269000
aa(lp937
F13.56
aF14.80001
aF13.59999
aF14.600009999999999
aF4.9879100000000003
aI10581600
aa(lp938
F13.5
aF14.300000000000001
aF14.25001
aF13.789999999999999
aF4.7111799999999997
aI4500700
aa(lp939
F13.57999
aF13.960000000000001
aF13.799989999999999
aF13.719989999999999
aF4.6872600000000002
aI2574000
aa(lp940
F13.56
aF14.05001
aF13.94999
aF13.67
aF4.6701800000000002
aI4510900
aa(lp941
F13.82999
aF14.42
aF14.19999
aF13.850009999999999
aF4.7316799999999999
aI7294300
aa(lp942
F14.300000000000001
aF15.05001
aF14.979990000000001
aF14.370010000000001
aF4.9093400000000003
aI6111100
aa(lp943
F14.659990000000001
aF15.05001
aF14.85999
aF14.82
aF5.0630699999999997
aI8071000
aa(lp944
F14.300000000000001
aF14.789999999999999
aF14.450010000000001
aF14.529999999999999
aF4.9639899999999999
aI6521500
aa(lp945
F14.17999
aF14.600009999999999
aF14.25001
aF14.529999999999999
aF4.9639899999999999
aI5571800
aa(lp946
F14.549989999999999
aF15.05001
aF14.869999999999999
aF14.56
aF4.97424
aI8409200
aa(lp947
F14.31001
aF15.17001
aF14.359999999999999
aF15.00001
aF5.1245700000000003
aI10729000
aa(lp948
F14.11999
aF14.51999
aF14.11999
aF14.370010000000001
aF4.9093400000000003
aI3603000
aa(lp949
F14.19
aF14.77999
aF14.600009999999999
aF14.210000000000001
aF4.8546699999999996
aI7037400
aa(lp950
F14.699999999999999
aF15.08999
aF14.850009999999999
aF14.80001
aF5.0562399999999998
aI7928000
aa(lp951
F14.510009999999999
aF14.91001
aF14.56
aF14.789999999999999
aF5.0528199999999996
aI8697100
aa(lp952
F13.93
aF14.60999
aF14.510009999999999
aF14.56
aF4.97424
aI6483100
aa(lp953
F14.17001
aF14.489990000000001
aF14.390000000000001
aF14.450010000000001
aF4.9366599999999998
aI3963100
aa(lp954
F14.42
aF14.9
aF14.42
aF14.600009999999999
aF4.9879100000000003
aI5133800
aa(lp955
F14.390000000000001
aF14.77999
aF14.659990000000001
aF14.40001
aF4.9195799999999998
aI5133300
aa(lp956
F14.359999999999999
aF14.73
aF14.40001
aF14.640000000000001
aF5.0015700000000001
aI5692100
aa(lp957
F14.110010000000001
aF14.470000000000001
aF14.11999
aF14.24
aF4.8649199999999997
aI4317100
aa(lp958
F14.229990000000001
aF14.74999
aF14.74001
aF14.25001
aF4.8683399999999999
aI6765500
aa(lp959
F14.85999
aF15.34999
aF15.24
aF14.97001
aF5.1143200000000002
aI8291900
aa(lp960
F15.229990000000001
aF15.789999999999999
aF15.59
aF15.34999
aF5.2441300000000002
aI8931800
aa(lp961
F15.17999
aF15.68999
aF15.34999
aF15.659990000000001
aF5.3500399999999999
aI9413600
aa(lp962
F15.34999
aF15.99
aF15.379989999999999
aF15.450010000000001
aF5.2782999999999998
aI15620600
aa(lp963
F15.280010000000001
aF15.80001
aF15.80001
aF15.28999
aF5.22363
aI15384700
aa(lp964
F15.73
aF16.170010000000001
aF16.039999999999999
aF16.030010000000001
aF5.4764499999999998
aI22347900
aa(lp965
F15.110010000000001
aF16.57001
aF15.110010000000001
aF16.259979999999999
aF5.5550199999999998
aI34731800
aa(lp966
F15.07
aF15.489990000000001
aF15.31001
aF15.110010000000001
aF5.1621499999999996
aI10764500
aa(lp967
F14.80001
aF15.300000000000001
aF14.9
aF15.27
aF5.2168000000000001
aI14035700
aa(lp968
F14.149990000000001
aF15.5
aF14.149990000000001
aF14.960000000000001
aF5.1109
aI18009700
aa(lp969
F13.9
aF14.25001
aF14.08999
aF14.11999
aF4.8239200000000002
aI5987900
aa(lp970
F14.340009999999999
aF14.77999
aF14.71001
aF14.390000000000001
aF4.9161599999999996
aI4637900
aa(lp971
F14.40001
aF14.85999
aF14.600009999999999
aF14.770009999999999
aF5.0459899999999998
aI7358300
aa(lp972
F14.67
aF15.300000000000001
aF15.280010000000001
aF14.68999
aF5.0186500000000001
aI14909200
aa(lp973
F13.77999
aF14.99
aF13.77999
aF14.99
aF5.1211500000000001
aI15414500
aa(lp974
F12.93
aF13.71001
aF13.05001
aF13.629989999999999
aF4.6565200000000004
aI7842000
aa(lp975
F13.390000000000001
aF13.799989999999999
aF13.48001
aF13.41
aF4.5813600000000001
aI6877200
aa(lp976
F12.799989999999999
aF13.34999
aF13.05001
aF13.210000000000001
aF4.5130299999999997
aI8097400
aa(lp977
F13.11999
aF14.40001
aF14.34999
aF13.459989999999999
aF4.5984400000000001
aI9796400
aa(lp978
F14.300000000000001
aF14.629989999999999
aF14.59
aF14.51999
aF4.9605699999999997
aI6430100
aa(lp979
F14.93
aF15.200010000000001
aF14.99
aF14.99
aF5.1211500000000001
aI4068700
aa(lp980
F14.450010000000001
aF15.1
aF14.5
aF14.99
aF5.1211500000000001
aI7425700
aa(lp981
F14.300000000000001
aF15.07
aF15.07
aF14.77999
aF5.0494000000000003
aI6999800
aa(lp982
F14.9
aF15.27
aF15.02
aF15.149990000000001
aF5.1758100000000002
aI4963200
aa(lp983
F15.02
aF15.40001
aF15.05001
aF15.110010000000001
aF5.1621499999999996
aI5524200
aa(lp984
F15.02
aF15.220000000000001
aF15.220000000000001
aF15.1
aF5.1587300000000003
aI5740800
aa(lp985
F14.940009999999999
aF15.42999
aF15.05001
aF15.359999999999999
aF5.2475500000000004
aI6129900
aa(lp986
F14.889989999999999
aF15.359999999999999
aF15.16
aF15.200010000000001
aF5.1928900000000002
aI10699900
aa(lp987
F16.009989999999998
aF16.349989999999998
aF16.300000000000001
aF16.07
aF5.4901099999999996
aI5517600
aa(lp988
F16.100000000000001
aF16.600010000000001
aF16.59
aF16.14001
aF5.51403
aI7773000
aa(lp989
F16.48001
aF16.789999999999999
aF16.600010000000001
aF16.57001
aF5.6609400000000001
aI8645800
aa(lp990
F16.400010000000002
aF16.879999999999999
aF16.80001
aF16.469999999999999
aF5.6267699999999996
aI9913500
aa(lp991
F16.80001
aF17.300000000000001
aF16.879999999999999
aF16.940010000000001
aF5.7873400000000004
aI13006800
aa(lp992
F16.620000000000001
aF16.989999999999998
aF16.760000000000002
aF16.870000000000001
aF5.76342
aI14333800
aa(lp993
F15.93
aF17.280000000000001
aF15.93
aF16.889990000000001
aF5.7702499999999999
aI31090600
aa(lp994
F15.600009999999999
aF16.009989999999998
aF15.659990000000001
aF15.91999
aF5.4388699999999996
aI7000800
aa(lp995
F15.51999
aF15.9
aF15.9
aF15.59
aF5.32613
aI8546600
aa(lp996
F15.80001
aF16.119990000000001
aF15.80001
aF16.02
aF5.4730299999999996
aI7908800
aa(lp997
F15.74001
aF16.119990000000001
aF16.119990000000001
aF15.85
aF5.4149599999999998
aI10208700
aa(lp998
F16.149989999999999
aF16.459990000000001
aF16.349989999999998
aF16.170010000000001
aF5.5242800000000001
aI15184100
aa(lp999
F15.83001
aF16.400010000000002
aF15.979990000000001
aF16.390000000000001
aF5.5994400000000004
aI15006800
aa(lp1000
F15.88001
aF16.16
aF16.16
aF16.02
aF5.4730299999999996
aI10827800
aa(lp1001
F15.88001
aF16.200009999999999
aF15.88001
aF16.17999
aF5.5276899999999998
aI13928900
aa(lp1002
F15.600009999999999
aF15.960000000000001
aF15.71001
aF15.83999
aF5.4115399999999996
aI13273100
aa(lp1003
F15.42
aF15.85
aF15.600009999999999
aF15.640000000000001
aF5.34321
aI11046900
aa(lp1004
F15.42999
aF16.059989999999999
aF15.80001
aF15.450010000000001
aF5.2782999999999998
aI13514300
aa(lp1005
F15.68999
aF16.26999
aF15.80001
aF15.91001
aF5.43546
aI17987700
aa(lp1006
F15.619999999999999
aF15.979990000000001
aF15.74999
aF15.869999999999999
aF5.4217899999999997
aI19043500
aa(lp1007
F15.31001
aF16.02
aF15.379989999999999
aF15.889989999999999
aF5.4286199999999996
aI39472300
aa(lp1008
F14.02999
aF15.600009999999999
aF14.17999
aF15.600009999999999
aF5.3295500000000002
aI33646100
aa(lp1009
F14.01
aF14.300000000000001
aF14.130000000000001
aF14.17999
aF4.8444200000000004
aI6223800
aa(lp1010
F13.9
aF14.17999
aF14.07
aF14.14001
aF4.8307599999999997
aI5494700
aa(lp1011
F13.81
aF14.19
aF13.82999
aF14.07
aF4.8068400000000002
aI5533000
aa(lp1012
F13.76
aF14.020009999999999
aF13.869999999999999
aF13.85999
aF4.7350899999999996
aI4350200
aa(lp1013
F13.850009999999999
aF14.280010000000001
aF14.280010000000001
aF13.869999999999999
aF4.7385099999999998
aI6156600
aa(lp1014
F14.33
aF14.56
aF14.40001
aF14.359999999999999
aF4.9059200000000001
aI4814300
aa(lp1015
F14.17001
aF14.57999
aF14.17001
aF14.51999
aF4.9605699999999997
aI7520300
aa(lp1016
F13.9
aF14.300000000000001
aF14.110010000000001
aF14.27
aF4.8751699999999998
aI5331100
aa(lp1017
F13.9
aF14.42999
aF14.300000000000001
aF14.210000000000001
aF4.8546699999999996
aI10126800
aa(lp1018
F14.379989999999999
aF15.149990000000001
aF15.1
aF14.409990000000001
aF4.923
aI7316800
aa(lp1019
F14.85999
aF15.149990000000001
aF15.08999
aF15.059990000000001
aF5.14506
aI4571000
aa(lp1020
F14.91001
aF15.19
aF15.00001
aF15.11999
aF5.1655600000000002
aI4550800
aa(lp1021
F14.809990000000001
aF15.110010000000001
aF14.809990000000001
aF15.059990000000001
aF5.14506
aI5994000
aa(lp1022
F14.699999999999999
aF15.00001
aF15.00001
aF14.809990000000001
aF5.0596500000000004
aI6035500
aa(lp1023
F14.94999
aF15.19
aF15.059990000000001
aF15.16
aF5.1792299999999996
aI7442000
aa(lp1024
F14.680009999999999
aF15.08999
aF14.680009999999999
aF15.07
aF5.1484800000000002
aI6882500
aa(lp1025
F14.60999
aF15.16
aF14.979990000000001
aF14.699999999999999
aF5.0220700000000003
aI6247600
aa(lp1026
F14.770009999999999
aF15.25001
aF15.110010000000001
aF14.889989999999999
aF5.0869799999999996
aI5157600
aa(lp1027
F15.11999
aF15.379989999999999
aF15.220000000000001
aF15.17999
aF5.1860600000000003
aI6788200
aa(lp1028
F15.05001
aF15.5
aF15.5
aF15.11999
aF5.1655600000000002
aI5867600
aa(lp1029
F14.93
aF15.71001
aF15.470000000000001
aF15.59
aF5.32613
aI12243000
aa(lp1030
F15.51999
aF16.620000000000001
aF16.459990000000001
aF15.57001
aF5.3193000000000001
aI10645700
aa(lp1031
F16.549990000000001
aF16.979990000000001
aF16.789999999999999
aF16.57001
aF5.6609400000000001
aI4547900
aa(lp1032
F16.779990000000002
aF17.28999
aF17.28999
aF16.789999999999999
aF5.7360899999999999
aI8051600
aa(lp1033
F17.200009999999999
aF17.80001
aF17.5
aF17.300000000000001
aF5.7637700000000001
aI15632300
aa(lp1034
F16.91001
aF17.57001
aF17.00001
aF17.48
aF5.8237399999999999
aI16215200
aa(lp1035
F16.879999999999999
aF17.200009999999999
aF16.960000000000001
aF17.059989999999999
aF5.6837999999999997
aI10155600
aa(lp1036
F16.379989999999999
aF16.979990000000001
aF16.420000000000002
aF16.94999
aF5.6471600000000004
aI9933900
aa(lp1037
F16.379989999999999
aF16.779990000000002
aF16.689990000000002
aF16.379989999999999
aF5.4572500000000002
aI7351300
aa(lp1038
F16.57001
aF16.960000000000001
aF16.73
aF16.80001
aF5.5971900000000003
aI8565600
aa(lp1039
F16.48001
aF16.889990000000001
aF16.83999
aF16.73
aF5.5738599999999998
aI9502400
aa(lp1040
F16.600010000000001
aF17.14001
aF16.74999
aF16.870000000000001
aF5.6204999999999998
aI10228900
aa(lp1041
F16.00001
aF16.770009999999999
aF16.680009999999999
aF16.71001
aF5.5671999999999997
aI7837700
aa(lp1042
F16.209990000000001
aF16.940010000000001
aF16.319990000000001
aF16.689990000000002
aF5.56053
aI9867400
aa(lp1043
F16.300000000000001
aF17.280000000000001
aF17.25
aF16.420000000000002
aF5.47058
aI11581100
aa(lp1044
F16.899999999999999
aF17.26999
aF17.080010000000001
aF17.219999999999999
aF5.7371100000000004
aI8999200
aa(lp1045
F16.449999999999999
aF17.5
aF17.46001
aF17.26999
aF5.7537700000000003
aI14382800
aa(lp1046
F17.689990000000002
aF19.549990000000001
aF19.549990000000001
aF17.689990000000002
aF5.8936999999999999
aI28060300
aa(lp1047
F19.439990000000002
aF20.17999
aF20.00001
aF19.66001
aF6.5500400000000001
aI6413200
aa(lp1048
F19.349989999999998
aF20.400010000000002
aF19.48
aF20.02
aF6.6699799999999998
aI10536300
aa(lp1049
F19.649999999999999
aF20.449999999999999
aF20.400010000000002
aF19.66001
aF6.5500400000000001
aI9904000
aa(lp1050
F20.299990000000001
aF21.219999999999999
aF21.219999999999999
aF20.48
aF6.8232299999999997
aI13003600
aa.