(lp1
(lp2
F26.129999999999999
aF29.719999999999999
aF27.25
aF28.600000000000001
aF28.600000000000001
aI36916500
aa(lp3
F24.989999999999998
aF27.280000000000001
aF25.280000000000001
aF27.170000000000002
aF27.170000000000002
aI31708700
aa(lp4
F23.84
aF25.43
aF24.199999999999999
aF24.98
aF24.98
aI18949800
aa(lp5
F23.920000000000002
aF24.59
aF24.289999999999999
aF24.300000000000001
aF24.300000000000001
aI12457500
aa(lp6
F23.260000000000002
aF24.170000000000002
aF23.600000000000001
aF24.16
aF24.16
aI11700500
aa(lp7
F22.600000000000001
aF23.260000000000002
aF22.800000000000001
aF23.25
aF23.25
aI9445200
aa(lp8
F22.309999999999999
aF23.41
aF23.120000000000001
aF22.390000000000001
aF22.390000000000001
aI8970100
aa(lp9
F23.079999999999998
aF24.07
aF23.859999999999999
aF23.280000000000001
aF23.280000000000001
aI9025900
aa(lp10
F23.719999999999999
aF24.899999999999999
aF24.629999999999999
aF23.77
aF23.77
aI11060100
aa(lp11
F24.399999999999999
aF25.030000000000001
aF25
aF24.699999999999999
aF24.699999999999999
aI9913100
aa(lp12
F25.149999999999999
aF25.149999999999999
aF25.149999999999999
aF25.149999999999999
aF25.149999999999999
aI0
aa(lp13
F25.120000000000001
aF26.140000000000001
aF26
aF25.149999999999999
aF25.149999999999999
aI12898200
aa(lp14
F24.969999999999999
aF26.149999999999999
aF25.170000000000002
aF25.91
aF25.91
aI17114100
aa(lp15
F24.77
aF26.879999999999999
aF24.969999999999999
aF25.68
aF25.68
aI28876900
aa(lp16
F24.359999999999999
aF24.960000000000001
aF24.68
aF24.899999999999999
aF24.899999999999999
aI16463000
aa(lp17
F24.050000000000001
aF24.57
aF24.18
aF24.460000000000001
aF24.460000000000001
aI11602600
aa(lp18
F24.379999999999999
aF24.84
aF24.800000000000001
aF24.59
aF24.59
aI14025500
aa(lp19
F24.699999999999999
aF25.449999999999999
aF24.829999999999998
aF24.789999999999999
aF24.789999999999999
aI22211100
aa(lp20
F23.440000000000001
aF24.690000000000001
aF23.5
aF24.68
aF24.68
aI19632500
aa(lp21
F23.600000000000001
aF24.539999999999999
aF24.059999999999999
aF23.640000000000001
aF23.640000000000001
aI15270500
aa(lp22
F23.989999999999998
aF24.670000000000002
aF24.100000000000001
aF24.010000000000002
aF24.010000000000002
aI16473700
aa(lp23
F23.030000000000001
aF23.93
aF23.199999999999999
aF23.82
aF23.82
aI9352800
aa(lp24
F23.170000000000002
aF23.75
aF23.449999999999999
aF23.27
aF23.27
aI10811200
aa(lp25
F23.710000000000001
aF24.399999999999999
aF24.399999999999999
aF23.84
aF23.84
aI15955600
aa(lp26
F23.91
aF24.699999999999999
aF24.079999999999998
aF24.460000000000001
aF24.460000000000001
aI21661100
aa(lp27
F23.309999999999999
aF23.870000000000001
aF23.460000000000001
aF23.77
aF23.77
aI11843600
aa(lp28
F23.149999999999999
aF23.760000000000002
aF23.760000000000002
aF23.510000000000002
aF23.510000000000002
aI13923300
aa(lp29
F23.5
aF24.449999999999999
aF24.350000000000001
aF23.82
aF23.82
aI19936400
aa(lp30
F23.859999999999999
aF24.449999999999999
aF24.109999999999999
aF24.359999999999999
aF24.359999999999999
aI18962300
aa(lp31
F24.140000000000001
aF24.140000000000001
aF24.140000000000001
aF24.140000000000001
aF24.140000000000001
aI0
aa(lp32
F23.710000000000001
aF24.260000000000002
aF24.039999999999999
aF24.140000000000001
aF24.140000000000001
aI17217000
aa(lp33
F23.309999999999999
aF25
aF23.460000000000001
aF24.300000000000001
aF24.300000000000001
aI28297700
aa(lp34
F23.100000000000001
aF23.440000000000001
aF23.25
aF23.390000000000001
aF23.390000000000001
aI13713400
aa(lp35
F23.030000000000001
aF23.41
aF23.100000000000001
aF23.300000000000001
aF23.300000000000001
aI15189600
aa(lp36
F23.030000000000001
aF23.59
aF23.530000000000001
aF23.149999999999999
aF23.149999999999999
aI23870800
aa(lp37
F23.510000000000002
aF24.800000000000001
aF23.98
aF23.829999999999998
aF23.829999999999998
aI32383200
aa(lp38
F23.010000000000002
aF26.059999999999999
aF24.68
aF25.32
aF25.32
aI68991700
aa(lp39
F23.969999999999999
aF23.969999999999999
aF23.969999999999999
aF23.969999999999999
aF23.969999999999999
aI1202500
aa(lp40
F21.789999999999999
aF21.789999999999999
aF21.789999999999999
aF21.789999999999999
aF21.789999999999999
aI358600
aa(lp41
F19.809999999999999
aF19.809999999999999
aF19.809999999999999
aF19.809999999999999
aF19.809999999999999
aI54500
aa(lp42
F18.010000000000002
aF18.010000000000002
aF18.010000000000002
aF18.010000000000002
aF18.010000000000002
aI36800
aa(lp43
F16.370000000000001
aF16.370000000000001
aF16.370000000000001
aF16.370000000000001
aF16.370000000000001
aI115600
aa.