(lp1
(lp2
F47
aF52
aF49
aF50.869999999999997
aF50.869999999999997
aI5709600
aa(lp3
F44.880000000000003
aF48.5
aF45.07
aF48.479999999999997
aF48.479999999999997
aI4887600
aa(lp4
F44.289999999999999
aF45.539999999999999
aF44.880000000000003
aF45.049999999999997
aF45.049999999999997
aI2027400
aa(lp5
F42.380000000000003
aF45.600000000000001
aF42.68
aF45.390000000000001
aF45.390000000000001
aI3287100
aa(lp6
F40.520000000000003
aF42.960000000000001
aF40.520000000000003
aF42.810000000000002
aF42.810000000000002
aI1496500
aa(lp7
F39.399999999999999
aF40.5
aF39.399999999999999
aF40.479999999999997
aF40.479999999999997
aI1061500
aa(lp8
F39
aF41
aF40.450000000000003
aF39.009999999999998
aF39.009999999999998
aI925000
aa(lp9
F40.219999999999999
aF42.990000000000002
aF42.100000000000001
aF40.390000000000001
aF40.390000000000001
aI1276900
aa(lp10
F42.079999999999998
aF44.420000000000002
aF44.420000000000002
aF42.119999999999997
aF42.119999999999997
aI1231700
aa(lp11
F43.5
aF44.979999999999997
aF44.520000000000003
aF44.490000000000002
aF44.490000000000002
aI1430300
aa(lp12
F44.390000000000001
aF44.390000000000001
aF44.390000000000001
aF44.390000000000001
aF44.390000000000001
aI0
aa(lp13
F43.700000000000003
aF46.5
aF43.700000000000003
aF44.390000000000001
aF44.390000000000001
aI1532200
aa(lp14
F42.979999999999997
aF44.390000000000001
aF43.399999999999999
aF44.18
aF44.18
aI1292000
aa(lp15
F42.850000000000001
aF46.780000000000001
aF46.100000000000001
aF42.950000000000003
aF42.950000000000003
aI2490700
aa(lp16
F45.75
aF47.600000000000001
aF47
aF46.049999999999997
aF46.049999999999997
aI2959600
aa(lp17
F44.280000000000001
aF47.469999999999999
aF45
aF46.960000000000001
aF46.960000000000001
aI4562700
aa(lp18
F43.350000000000001
aF45.390000000000001
aF44
aF45.289999999999999
aF45.289999999999999
aI3608300
aa(lp19
F44.25
aF46.549999999999997
aF45
aF44.299999999999997
aF44.299999999999997
aI3071000
aa(lp20
F41.009999999999998
aF44.25
aF42.420000000000002
aF44.18
aF44.18
aI2277700
aa(lp21
F42.090000000000003
aF45.369999999999997
aF44.399999999999999
aF42.390000000000001
aF42.390000000000001
aI4401400
aa(lp22
F42.579999999999998
aF45.490000000000002
aF42.609999999999999
aF44.450000000000003
aF44.450000000000003
aI4040100
aa(lp23
F39.009999999999998
aF42.600000000000001
aF40
aF42.380000000000003
aF42.380000000000003
aI2455300
aa(lp24
F40.670000000000002
aF44.549999999999997
aF44.140000000000001
aF40.990000000000002
aF40.990000000000002
aI3428900
aa(lp25
F43.439999999999998
aF48.280000000000001
aF44
aF45.039999999999999
aF45.039999999999999
aI7284400
aa(lp26
F40.100000000000001
aF43.890000000000001
aF40.100000000000001
aF43.890000000000001
aF43.890000000000001
aI6548500
aa(lp27
F37.810000000000002
aF39.969999999999999
aF37.810000000000002
aF39.899999999999999
aF39.899999999999999
aI2598900
aa(lp28
F37
aF39.479999999999997
aF38.939999999999998
aF38.359999999999999
aF38.359999999999999
aI3515400
aa(lp29
F39.380000000000003
aF41.590000000000003
aF41.299999999999997
aF40.57
aF40.57
aI2927300
aa(lp30
F40.5
aF42.509999999999998
aF40.5
aF41.479999999999997
aF41.479999999999997
aI3160100
aa(lp31
F40.329999999999998
aF40.329999999999998
aF40.329999999999998
aF40.329999999999998
aF40.329999999999998
aI0
aa(lp32
F37.899999999999999
aF40.479999999999997
aF38.090000000000003
aF40.329999999999998
aF40.329999999999998
aI4180800
aa(lp33
F37.590000000000003
aF38.229999999999997
aF37.590000000000003
aF38.060000000000002
aF38.060000000000002
aI2111400
aa(lp34
F36.719999999999999
aF37.950000000000003
aF36.880000000000003
aF37.57
aF37.57
aI1813300
aa(lp35
F36.880000000000003
aF37.579999999999998
aF37.380000000000003
aF36.899999999999999
aF36.899999999999999
aI1599800
aa(lp36
F36.890000000000001
aF38.18
aF37.32
aF37.350000000000001
aF37.350000000000001
aI1812300
aa(lp37
F36.990000000000002
aF37.600000000000001
aF37.350000000000001
aF37.310000000000002
aF37.310000000000002
aI1290700
aa(lp38
F36.780000000000001
aF38.759999999999998
aF38.759999999999998
aF37.350000000000001
aF37.350000000000001
aI1957500
aa(lp39
F35.810000000000002
aF38.899999999999999
aF36.5
aF38.299999999999997
aF38.299999999999997
aI3533400
aa(lp40
F35.57
aF37.950000000000003
aF37.950000000000003
aF36.579999999999998
aF36.579999999999998
aI2961900
aa(lp41
F37.600000000000001
aF38.859999999999999
aF38.240000000000002
aF37.950000000000003
aF37.950000000000003
aI2630400
aa(lp42
F36.520000000000003
aF38.479999999999997
aF37.060000000000002
aF38.219999999999999
aF38.219999999999999
aI3603800
aa(lp43
F36.030000000000001
aF37.200000000000003
aF36.479999999999997
aF36.869999999999997
aF36.869999999999997
aI2671500
aa(lp44
F35.020000000000003
aF36.490000000000002
aF35.409999999999997
aF36.43
aF36.43
aI2439900
aa(lp45
F35
aF36.25
aF35.490000000000002
aF35.380000000000003
aF35.380000000000003
aI2195200
aa(lp46
F33.5
aF35.479999999999997
aF33.520000000000003
aF35.380000000000003
aF35.380000000000003
aI2286500
aa(lp47
F32.280000000000001
aF33
aF32.539999999999999
aF32.890000000000001
aF32.890000000000001
aI557500
aa(lp48
F32.049999999999997
aF33.18
aF33.159999999999997
aF32.210000000000001
aF32.210000000000001
aI749100
aa(lp49
F32.899999999999999
aF33.57
aF33.030000000000001
aF32.93
aF32.93
aI683300
aa(lp50
F33.32
aF33.719999999999999
aF33.479999999999997
aF33.600000000000001
aF33.600000000000001
aI560200
aa(lp51
F32.810000000000002
aF33.969999999999999
aF33.75
aF33.479999999999997
aF33.479999999999997
aI755800
aa(lp52
F34.030000000000001
aF35.159999999999997
aF35.159999999999997
aF34.060000000000002
aF34.060000000000002
aI1084300
aa(lp53
F33.829999999999998
aF34.840000000000003
aF34
aF34.82
aF34.82
aI1544100
aa(lp54
F33.5
aF34.200000000000003
aF33.780000000000001
aF34.020000000000003
aF34.020000000000003
aI699700
aa(lp55
F33.780000000000001
aF34.57
aF34.57
aF33.880000000000003
aF33.880000000000003
aI1113700
aa(lp56
F32.979999999999997
aF34.600000000000001
aF33.310000000000002
aF34.590000000000003
aF34.590000000000003
aI1469600
aa(lp57
F32.600000000000001
aF33.140000000000001
aF32.68
aF33.119999999999997
aF33.119999999999997
aI795500
aa(lp58
F32.350000000000001
aF32.920000000000002
aF32.920000000000002
aF32.659999999999997
aF32.659999999999997
aI720500
aa(lp59
F32.880000000000003
aF33.289999999999999
aF32.899999999999999
aF32.909999999999997
aF32.909999999999997
aI407000
aa(lp60
F32.869999999999997
aF32.869999999999997
aF32.869999999999997
aF32.869999999999997
aF32.869999999999997
aI0
aa(lp61
F32.869999999999997
aF32.869999999999997
aF32.869999999999997
aF32.869999999999997
aF32.869999999999997
aI0
aa(lp62
F32.869999999999997
aF32.869999999999997
aF32.869999999999997
aF32.869999999999997
aF32.869999999999997
aI0
aa(lp63
F32.869999999999997
aF32.869999999999997
aF32.869999999999997
aF32.869999999999997
aF32.869999999999997
aI0
aa(lp64
F32.869999999999997
aF32.869999999999997
aF32.869999999999997
aF32.869999999999997
aF32.869999999999997
aI0
aa(lp65
F32.780000000000001
aF33.5
aF33.289999999999999
aF32.869999999999997
aF32.869999999999997
aI632300
aa(lp66
F32.659999999999997
aF33.390000000000001
aF32.700000000000003
aF33.280000000000001
aF33.280000000000001
aI617000
aa(lp67
F32.600000000000001
aF32.990000000000002
aF32.700000000000003
aF32.740000000000002
aF32.740000000000002
aI767600
aa(lp68
F31.850000000000001
aF32.869999999999997
aF32.479999999999997
aF32.670000000000002
aF32.670000000000002
aI600100
aa(lp69
F31.800000000000001
aF32.740000000000002
aF31.800000000000001
aF32.270000000000003
aF32.270000000000003
aI564700
aa(lp70
F31.030000000000001
aF31.789999999999999
aF31.030000000000001
aF31.77
aF31.77
aI459000
aa(lp71
F31.309999999999999
aF31.989999999999998
aF31.989999999999998
aF31.41
aF31.41
aI555000
aa(lp72
F31.510000000000002
aF33.57
aF33.57
aF31.690000000000001
aF31.690000000000001
aI1381300
aa(lp73
F33.530000000000001
aF35.100000000000001
aF34.460000000000001
aF33.57
aF33.57
aI1202000
aa(lp74
F34.600000000000001
aF35.299999999999997
aF35.109999999999999
aF34.640000000000001
aF34.640000000000001
aI1127500
aa(lp75
F34.200000000000003
aF35.799999999999997
aF34.200000000000003
aF35.509999999999998
aF35.509999999999998
aI1547900
aa(lp76
F33.369999999999997
aF34.740000000000002
aF33.710000000000001
aF33.880000000000003
aF33.880000000000003
aI832900
aa(lp77
F34
aF35.579999999999998
aF35.149999999999999
aF34.07
aF34.07
aI1406500
aa(lp78
F35.350000000000001
aF36.840000000000003
aF36.5
aF35.380000000000003
aF35.380000000000003
aI1733700
aa(lp79
F36
aF38
aF36.170000000000002
aF37.18
aF37.18
aI2476700
aa(lp80
F35.789999999999999
aF37.299999999999997
aF37.009999999999998
aF36.450000000000003
aF36.450000000000003
aI1814600
aa(lp81
F36.509999999999998
aF37.979999999999997
aF37.200000000000003
aF36.979999999999997
aF36.979999999999997
aI2156600
aa(lp82
F37.68
aF38.969999999999999
aF38.969999999999999
aF37.700000000000003
aF37.700000000000003
aI3526300
aa(lp83
F35.579999999999998
aF39.890000000000001
aF35.659999999999997
aF39.380000000000003
aF39.380000000000003
aI5525700
aa(lp84
F35.530000000000001
aF38.5
aF37.990000000000002
aF36.460000000000001
aF36.460000000000001
aI5792800
aa(lp85
F32.439999999999998
aF36.039999999999999
aF32.780000000000001
aF36.039999999999999
aF36.039999999999999
aI3972200
aa(lp86
F30.100000000000001
aF34.130000000000003
aF30.5
aF32.759999999999998
aF32.759999999999998
aI4251200
aa(lp87
F30.5
aF31.5
aF30.629999999999999
aF31.16
aF31.16
aI1290000
aa(lp88
F30.32
aF31.350000000000001
aF30.43
aF30.66
aF30.66
aI878300
aa(lp89
F30.600000000000001
aF31.300000000000001
aF30.899999999999999
aF30.710000000000001
aF30.710000000000001
aI1103300
aa(lp90
F29.829999999999998
aF31.469999999999999
aF30.850000000000001
aF31.129999999999999
aF31.129999999999999
aI2065800
aa(lp91
F31.170000000000002
aF32.189999999999998
aF31.32
aF31.370000000000001
aF31.370000000000001
aI2174200
aa(lp92
F30.32
aF32.380000000000003
aF30.579999999999998
aF31.25
aF31.25
aI1936300
aa(lp93
F30.600000000000001
aF31.899999999999999
aF30.699999999999999
aF30.940000000000001
aF30.940000000000001
aI1492500
aa(lp94
F30.52
aF31.379999999999999
aF31.059999999999999
aF30.879999999999999
aF30.879999999999999
aI1081500
aa(lp95
F30.010000000000002
aF31.710000000000001
aF30.199999999999999
aF31.440000000000001
aF31.440000000000001
aI1609500
aa(lp96
F29.420000000000002
aF30.68
aF30.25
aF30.489999999999998
aF30.489999999999998
aI1245100
aa(lp97
F30.809999999999999
aF30.809999999999999
aF30.809999999999999
aF30.809999999999999
aF30.809999999999999
aI0
aa(lp98
F30.809999999999999
aF30.809999999999999
aF30.809999999999999
aF30.809999999999999
aF30.809999999999999
aI0
aa(lp99
F30.120000000000001
aF31.460000000000001
aF31.460000000000001
aF30.809999999999999
aF30.809999999999999
aI1157400
aa(lp100
F31.030000000000001
aF32.299999999999997
aF31.050000000000001
aF31.460000000000001
aF31.460000000000001
aI1268800
aa(lp101
F30.579999999999998
aF32
aF32
aF31.219999999999999
aF31.219999999999999
aI1516100
aa(lp102
F31.879999999999999
aF32.600000000000001
aF31.890000000000001
aF32.020000000000003
aF32.020000000000003
aI1485700
aa(lp103
F31.34
aF34.579999999999998
aF32.420000000000002
aF32.640000000000001
aF32.640000000000001
aI3146900
aa(lp104
F31.010000000000002
aF33.049999999999997
aF31.300000000000001
aF32.869999999999997
aF32.869999999999997
aI2464600
aa(lp105
F29
aF32.57
aF29.390000000000001
aF31.52
aF31.52
aI2941700
aa(lp106
F29.890000000000001
aF32.990000000000002
aF32.990000000000002
aF29.890000000000001
aF29.890000000000001
aI3134100
aa(lp107
F33.039999999999999
aF36.020000000000003
aF36
aF33.210000000000001
aF33.210000000000001
aI3257300
aa(lp108
F36.509999999999998
aF38.539999999999999
aF37.990000000000002
aF36.530000000000001
aF36.530000000000001
aI2420400
aa(lp109
F37.799999999999997
aF40.490000000000002
aF40.299999999999997
aF38.170000000000002
aF38.170000000000002
aI2867400
aa(lp110
F39.689999999999998
aF40.939999999999998
aF40.210000000000001
aF40.479999999999997
aF40.479999999999997
aI2024700
aa(lp111
F38.880000000000003
aF41.130000000000003
aF40.590000000000003
aF40.609999999999999
aF40.609999999999999
aI2052300
aa(lp112
F40.280000000000001
aF42.450000000000003
aF42
aF40.649999999999999
aF40.649999999999999
aI3392700
aa(lp113
F38.149999999999999
aF43
aF39.600000000000001
aF42.82
aF42.82
aI5230300
aa(lp114
F37.799999999999997
aF40.990000000000002
aF38.770000000000003
aF40.020000000000003
aF40.020000000000003
aI4170200
aa(lp115
F39.990000000000002
aF43.869999999999997
aF43.340000000000003
aF39.990000000000002
aF39.990000000000002
aI4844900
aa(lp116
F43.439999999999998
aF46.659999999999997
aF45.5
aF44.43
aF44.43
aI5458500
aa(lp117
F47.700000000000003
aF53.68
aF53.579999999999998
aF47.899999999999999
aF47.899999999999999
aI6658600
aa(lp118
F52
aF54.770000000000003
aF53
aF52.960000000000001
aF52.960000000000001
aI7021400
aa(lp119
F49.920000000000002
aF56.719999999999999
aF56.719999999999999
aF55.240000000000002
aF55.240000000000002
aI13521400
aa(lp120
F49.700000000000003
aF51.560000000000002
aF51
aF51.560000000000002
aF51.560000000000002
aI4194800
aa(lp121
F45.450000000000003
aF46.869999999999997
aF46.5
aF46.869999999999997
aF46.869999999999997
aI5766400
aa(lp122
F42.609999999999999
aF42.609999999999999
aF42.609999999999999
aF42.609999999999999
aF42.609999999999999
aI2473700
aa(lp123
F38.740000000000002
aF38.740000000000002
aF38.740000000000002
aF38.740000000000002
aF38.740000000000002
aI225300
aa(lp124
F35.219999999999999
aF35.219999999999999
aF35.219999999999999
aF35.219999999999999
aF35.219999999999999
aI254900
aa(lp125
F32.020000000000003
aF32.020000000000003
aF32.020000000000003
aF32.020000000000003
aF32.020000000000003
aI179700
aa(lp126
F29.109999999999999
aF29.109999999999999
aF29.109999999999999
aF29.109999999999999
aF29.109999999999999
aI209900
aa(lp127
F26.460000000000001
aF26.460000000000001
aF26.460000000000001
aF26.460000000000001
aF26.460000000000001
aI59900
aa(lp128
F24.050000000000001
aF24.050000000000001
aF24.050000000000001
aF24.050000000000001
aF24.050000000000001
aI44600
aa(lp129
F21.859999999999999
aF21.859999999999999
aF21.859999999999999
aF21.859999999999999
aF21.859999999999999
aI47400
aa(lp130
F19.870000000000001
aF19.870000000000001
aF19.870000000000001
aF19.870000000000001
aF19.870000000000001
aI29200
aa(lp131
F18.059999999999999
aF18.059999999999999
aF18.059999999999999
aF18.059999999999999
aF18.059999999999999
aI20100
aa(lp132
F16.420000000000002
aF16.420000000000002
aF16.420000000000002
aF16.420000000000002
aF16.420000000000002
aI8700
aa(lp133
F14.93
aF14.93
aF14.93
aF14.93
aF14.93
aI5000
aa(lp134
F13.57
aF13.57
aF13.57
aF13.57
aF13.57
aI9000
aa.