(lp1
(lp2
F30.100000000000001
aF32.810000000000002
aF30.98
aF32.810000000000002
aF32.810000000000002
aI26117300
aa(lp3
F26.940000000000001
aF29.829999999999998
aF27.16
aF29.829999999999998
aF29.829999999999998
aI24834400
aa(lp4
F26.620000000000001
aF27.48
aF26.899999999999999
aF27.120000000000001
aF27.120000000000001
aI9406000
aa(lp5
F26.25
aF26.960000000000001
aF26.579999999999998
aF26.940000000000001
aF26.940000000000001
aI8317300
aa(lp6
F25.620000000000001
aF26.48
aF25.879999999999999
aF26.43
aF26.43
aI6828700
aa(lp7
F24.879999999999999
aF25.629999999999999
aF25.100000000000001
aF25.609999999999999
aF25.609999999999999
aI5264100
aa(lp8
F24.5
aF25.84
aF25.609999999999999
aF24.690000000000001
aF24.690000000000001
aI6416800
aa(lp9
F25.199999999999999
aF26.629999999999999
aF26.399999999999999
aF25.710000000000001
aF25.710000000000001
aI6007300
aa(lp10
F26.25
aF27.260000000000002
aF26.91
aF26.309999999999999
aF26.309999999999999
aI6810400
aa(lp11
F26.48
aF27.170000000000002
aF27.010000000000002
aF26.879999999999999
aF26.879999999999999
aI5943800
aa(lp12
F27.23
aF27.23
aF27.23
aF27.23
aF27.23
aI0
aa(lp13
F27.18
aF28.190000000000001
aF28
aF27.23
aF27.23
aI10814400
aa(lp14
F27.059999999999999
aF28.460000000000001
aF27.210000000000001
aF28.16
aF28.16
aI15255200
aa(lp15
F26.850000000000001
aF27.649999999999999
aF27.199999999999999
aF27.390000000000001
aF27.390000000000001
aI12808600
aa(lp16
F26.699999999999999
aF27.5
aF26.699999999999999
aF27.190000000000001
aF27.190000000000001
aI12833600
aa(lp17
F26.359999999999999
aF26.789999999999999
aF26.600000000000001
aF26.559999999999999
aF26.559999999999999
aI6524700
aa(lp18
F26.609999999999999
aF27.199999999999999
aF27.199999999999999
aF26.850000000000001
aF26.850000000000001
aI7656500
aa(lp19
F26.66
aF27.280000000000001
aF26.850000000000001
aF27.120000000000001
aF27.120000000000001
aI10050600
aa(lp20
F25.940000000000001
aF26.82
aF25.940000000000001
aF26.809999999999999
aF26.809999999999999
aI7566900
aa(lp21
F25.859999999999999
aF26.550000000000001
aF26.550000000000001
aF26.030000000000001
aF26.030000000000001
aI7180000
aa(lp22
F26.5
aF26.870000000000001
aF26.579999999999998
aF26.530000000000001
aF26.530000000000001
aI7255700
aa(lp23
F25.629999999999999
aF26.440000000000001
aF25.949999999999999
aF26.359999999999999
aF26.359999999999999
aI5235900
aa(lp24
F25.82
aF27
aF27
aF25.989999999999998
aF25.989999999999998
aI8035000
aa(lp25
F26.920000000000002
aF28.100000000000001
aF27.27
aF27.140000000000001
aF27.140000000000001
aI11729400
aa(lp26
F26.440000000000001
aF27.440000000000001
aF26.800000000000001
aF27.27
aF27.27
aI13532300
aa(lp27
F26.23
aF26.989999999999998
aF26.440000000000001
aF26.789999999999999
aF26.789999999999999
aI10017300
aa(lp28
F25.800000000000001
aF26.789999999999999
aF26.73
aF26.52
aF26.52
aI9779800
aa(lp29
F26.100000000000001
aF26.969999999999999
aF26.969999999999999
aF26.77
aF26.77
aI12775400
aa(lp30
F26.329999999999998
aF27.079999999999998
aF26.5
aF26.879999999999999
aF26.879999999999999
aI13751800
aa(lp31
F26.399999999999999
aF26.399999999999999
aF26.399999999999999
aF26.399999999999999
aF26.399999999999999
aI0
aa(lp32
F25.890000000000001
aF26.52
aF26.100000000000001
aF26.399999999999999
aF26.399999999999999
aI11591200
aa(lp33
F25.780000000000001
aF26.620000000000001
aF25.859999999999999
aF26.350000000000001
aF26.350000000000001
aI12799600
aa(lp34
F25.620000000000001
aF25.989999999999998
aF25.91
aF25.920000000000002
aF25.920000000000002
aI9880200
aa(lp35
F25.600000000000001
aF25.949999999999999
aF25.620000000000001
aF25.800000000000001
aF25.800000000000001
aI9908900
aa(lp36
F25.449999999999999
aF26
aF26
aF25.77
aF25.77
aI12580100
aa(lp37
F25.550000000000001
aF26.59
aF26.219999999999999
aF25.949999999999999
aF25.949999999999999
aI20994700
aa(lp38
F25.800000000000001
aF28.59
aF28.59
aF27.48
aF27.48
aI41415800
aa(lp39
F25.989999999999998
aF25.989999999999998
aF25.989999999999998
aF25.989999999999998
aF25.989999999999998
aI239400
aa(lp40
F23.629999999999999
aF23.629999999999999
aF23.629999999999999
aF23.629999999999999
aF23.629999999999999
aI54600
aa(lp41
F21.48
aF21.48
aF21.48
aF21.48
aF21.48
aI30600
aa(lp42
F19.530000000000001
aF19.530000000000001
aF19.530000000000001
aF19.530000000000001
aF19.530000000000001
aI93200
aa.