(lp1
(lp2
F22.48
aF24.77
aF23.149999999999999
aF23.68
aF23.68
aI11016100
aa(lp3
F22.609999999999999
aF24
aF22.629999999999999
aF23.66
aF23.66
aI10896400
aa(lp4
F22.010000000000002
aF23
aF22.699999999999999
aF22.530000000000001
aF22.530000000000001
aI7902300
aa(lp5
F22.5
aF23.640000000000001
aF22.879999999999999
aF23.16
aF23.16
aI10743700
aa(lp6
F20.870000000000001
aF23.5
aF21.399999999999999
aF23.300000000000001
aF23.300000000000001
aI13315200
aa(lp7
F20.59
aF22.300000000000001
aF21.640000000000001
aF21.41
aF21.41
aI10848900
aa(lp8
F21.32
aF24
aF22.649999999999999
aF21.57
aF21.57
aI11659100
aa(lp9
F21.710000000000001
aF24.25
aF22.32
aF23.109999999999999
aF23.109999999999999
aI14723100
aa(lp10
F21.600000000000001
aF23.379999999999999
aF22
aF22.489999999999998
aF22.489999999999998
aI18281900
aa(lp11
F19.449999999999999
aF21.309999999999999
aF19.600000000000001
aF21.309999999999999
aF21.309999999999999
aI16965600
aa(lp12
F19.370000000000001
aF19.370000000000001
aF19.370000000000001
aF19.370000000000001
aF19.370000000000001
aI0
aa(lp13
F18.899999999999999
aF19.870000000000001
aF19.109999999999999
aF19.370000000000001
aF19.370000000000001
aI6688800
aa(lp14
F18.530000000000001
aF19.199999999999999
aF18.600000000000001
aF18.93
aF18.93
aI4157700
aa(lp15
F18.629999999999999
aF19.579999999999998
aF19.579999999999998
aF18.66
aF18.66
aI5119700
aa(lp16
F19.48
aF19.989999999999998
aF19.760000000000002
aF19.690000000000001
aF19.690000000000001
aI7491400
aa(lp17
F19.149999999999999
aF19.850000000000001
aF19.329999999999998
aF19.760000000000002
aF19.760000000000002
aI6367300
aa(lp18
F19.109999999999999
aF19.780000000000001
aF19.199999999999999
aF19.59
aF19.59
aI8151900
aa(lp19
F18.600000000000001
aF19.280000000000001
aF18.719999999999999
aF19.18
aF19.18
aI6233000
aa(lp20
F18.18
aF18.629999999999999
aF18.18
aF18.59
aF18.59
aI5198900
aa(lp21
F18
aF19
aF18.5
aF18.039999999999999
aF18.039999999999999
aI4835300
aa(lp22
F18.68
aF19.25
aF19
aF18.760000000000002
aF18.760000000000002
aI5306900
aa(lp23
F18.100000000000001
aF19.149999999999999
aF18.449999999999999
aF18.859999999999999
aF18.859999999999999
aI3160000
aa(lp24
F18.600000000000001
aF19.780000000000001
aF19.780000000000001
aF18.649999999999999
aF18.649999999999999
aI4467800
aa(lp25
F19.640000000000001
aF20.199999999999999
aF20.010000000000002
aF19.780000000000001
aF19.780000000000001
aI5431700
aa(lp26
F19.449999999999999
aF20.5
aF19.829999999999998
aF20.23
aF20.23
aI7410000
aa(lp27
F19
aF19.829999999999998
aF19
aF19.719999999999999
aF19.719999999999999
aI4484500
aa(lp28
F18.640000000000001
aF20.43
aF20.420000000000002
aF19.260000000000002
aF19.260000000000002
aI7186100
aa(lp29
F19.879999999999999
aF20.850000000000001
aF20.850000000000001
aF20.449999999999999
aF20.449999999999999
aI7663500
aa(lp30
F19.84
aF21
aF19.84
aF20.260000000000002
aF20.260000000000002
aI9778800
aa(lp31
F19.789999999999999
aF19.789999999999999
aF19.789999999999999
aF19.789999999999999
aF19.789999999999999
aI0
aa(lp32
F19.039999999999999
aF19.809999999999999
aF19.300000000000001
aF19.789999999999999
aF19.789999999999999
aI8173100
aa(lp33
F19.129999999999999
aF19.670000000000002
aF19.550000000000001
aF19.309999999999999
aF19.309999999999999
aI6227300
aa(lp34
F19.379999999999999
aF19.649999999999999
aF19.379999999999999
aF19.510000000000002
aF19.510000000000002
aI5314700
aa(lp35
F19.039999999999999
aF19.670000000000002
aF19.280000000000001
aF19.390000000000001
aF19.390000000000001
aI6640800
aa(lp36
F18.600000000000001
aF19.359999999999999
aF19.199999999999999
aF19.25
aF19.25
aI5765000
aa(lp37
F18.809999999999999
aF19.879999999999999
aF19.309999999999999
aF19.129999999999999
aF19.129999999999999
aI8921400
aa(lp38
F19.600000000000001
aF20.640000000000001
aF20.390000000000001
aF19.93
aF19.93
aI6883100
aa(lp39
F19.219999999999999
aF20.75
aF19.670000000000002
aF20.370000000000001
aF20.370000000000001
aI12689700
aa(lp40
F17.940000000000001
aF20.050000000000001
aF19.170000000000002
aF19.789999999999999
aF19.789999999999999
aI12655700
aa(lp41
F17.949999999999999
aF19.379999999999999
aF18.149999999999999
aF19.219999999999999
aF19.219999999999999
aI11328000
aa(lp42
F17.48
aF18.600000000000001
aF18.59
aF18.149999999999999
aF18.149999999999999
aI12891800
aa(lp43
F16.5
aF18.390000000000001
aF16.699999999999999
aF18.390000000000001
aF18.390000000000001
aI19096200
aa(lp44
F16.43
aF16.809999999999999
aF16.59
aF16.719999999999999
aF16.719999999999999
aI6058200
aa(lp45
F16.120000000000001
aF16.57
aF16.300000000000001
aF16.559999999999999
aF16.559999999999999
aI6093100
aa(lp46
F15.99
aF16.289999999999999
aF16.050000000000001
aF16.25
aF16.25
aI4699200
aa(lp47
F15.91
aF16.190000000000001
aF16.010000000000002
aF15.99
aF15.99
aI3059000
aa(lp48
F15.699999999999999
aF16.07
aF15.949999999999999
aF15.99
aF15.99
aI3750400
aa(lp49
F15.85
aF16.239999999999998
aF16.239999999999998
aF15.92
aF15.92
aI5123600
aa(lp50
F16.079999999999998
aF16.379999999999999
aF16.300000000000001
aF16.27
aF16.27
aI5727600
aa(lp51
F15.609999999999999
aF16.48
aF15.710000000000001
aF16.399999999999999
aF16.399999999999999
aI11852500
aa(lp52
F15.210000000000001
aF15.59
aF15.359999999999999
aF15.57
aF15.57
aI4469000
aa(lp53
F15.26
aF15.529999999999999
aF15.43
aF15.359999999999999
aF15.359999999999999
aI2996700
aa(lp54
F15.050000000000001
aF15.449999999999999
aF15.050000000000001
aF15.43
aF15.43
aI3619200
aa(lp55
F15.119999999999999
aF15.369999999999999
aF15.300000000000001
aF15.130000000000001
aF15.130000000000001
aI3035600
aa(lp56
F15.18
aF15.380000000000001
aF15.26
aF15.380000000000001
aF15.380000000000001
aI3396600
aa(lp57
F15.109999999999999
aF15.27
aF15.210000000000001
aF15.26
aF15.26
aI2181000
aa(lp58
F14.970000000000001
aF15.26
aF15.01
aF15.24
aF15.24
aI2285600
aa(lp59
F14.960000000000001
aF15.27
aF15.199999999999999
aF15.07
aF15.07
aI2073200
aa(lp60
F15.23
aF15.23
aF15.23
aF15.23
aF15.23
aI0
aa(lp61
F15.23
aF15.23
aF15.23
aF15.23
aF15.23
aI0
aa(lp62
F15.23
aF15.23
aF15.23
aF15.23
aF15.23
aI0
aa(lp63
F15.23
aF15.23
aF15.23
aF15.23
aF15.23
aI0
aa(lp64
F15.23
aF15.23
aF15.23
aF15.23
aF15.23
aI0
aa(lp65
F15.1
aF15.43
aF15.26
aF15.23
aF15.23
aI3219800
aa(lp66
F15.25
aF15.69
aF15.359999999999999
aF15.460000000000001
aF15.460000000000001
aI6032200
aa(lp67
F14.83
aF15.32
aF15.09
aF15.17
aF15.17
aI6097600
aa(lp68
F14.25
aF14.59
aF14.289999999999999
aF14.51
aF14.51
aI1589000
aa(lp69
F14.15
aF14.33
aF14.279999999999999
aF14.25
aF14.25
aI1127300
aa(lp70
F14.07
aF14.25
aF14.130000000000001
aF14.24
aF14.24
aI1130400
aa(lp71
F14.07
aF14.35
aF14.199999999999999
aF14.15
aF14.15
aI1176300
aa(lp72
F14.15
aF14.779999999999999
aF14.699999999999999
aF14.23
aF14.23
aI2278800
aa(lp73
F14.710000000000001
aF14.99
aF14.99
aF14.720000000000001
aF14.720000000000001
aI1745700
aa(lp74
F14.800000000000001
aF15.07
aF14.98
aF14.869999999999999
aF14.869999999999999
aI1860000
aa(lp75
F14.789999999999999
aF15.06
aF14.890000000000001
aF15.050000000000001
aF15.050000000000001
aI2323600
aa(lp76
F14.57
aF15.119999999999999
aF14.75
aF14.92
aF14.92
aI2230200
aa(lp77
F14.69
aF15.1
aF15.02
aF14.75
aF14.75
aI2224100
aa(lp78
F14.93
aF15.279999999999999
aF15.050000000000001
aF15.050000000000001
aF15.050000000000001
aI2579600
aa(lp79
F14.85
aF15.140000000000001
aF14.85
aF15.119999999999999
aF15.119999999999999
aI2075400
aa(lp80
F14.82
aF15.16
aF15.1
aF14.98
aF14.98
aI2149000
aa(lp81
F14.92
aF15.15
aF14.949999999999999
aF15.09
aF15.09
aI2230800
aa(lp82
F14.960000000000001
aF15.390000000000001
aF15.300000000000001
aF14.99
aF14.99
aI3670200
aa(lp83
F15.09
aF15.449999999999999
aF15.09
aF15.279999999999999
aF15.279999999999999
aI4624600
aa(lp84
F15.08
aF15.68
aF15.26
aF15.289999999999999
aF15.289999999999999
aI7147600
aa(lp85
F14.300000000000001
aF15.26
aF14.44
aF15.25
aF15.25
aI9254200
aa(lp86
F13.82
aF14.609999999999999
aF14
aF14.43
aF14.43
aI5170900
aa(lp87
F13.85
aF14.140000000000001
aF13.859999999999999
aF14.109999999999999
aF14.109999999999999
aI2210600
aa(lp88
F13.82
aF13.99
aF13.92
aF13.94
aF13.94
aI1964600
aa(lp89
F13.800000000000001
aF14.19
aF14.18
aF13.869999999999999
aF13.869999999999999
aI1729200
aa(lp90
F13.869999999999999
aF14.119999999999999
aF14
aF14.07
aF14.07
aI1386800
aa(lp91
F13.800000000000001
aF14.369999999999999
aF14.369999999999999
aF13.92
aF13.92
aI2587900
aa(lp92
F14.369999999999999
aF14.640000000000001
aF14.640000000000001
aF14.380000000000001
aF14.380000000000001
aI2885700
aa(lp93
F14.31
aF14.859999999999999
aF14.35
aF14.640000000000001
aF14.640000000000001
aI4642900
aa(lp94
F14.27
aF14.49
aF14.390000000000001
aF14.369999999999999
aF14.369999999999999
aI2289100
aa(lp95
F14.02
aF14.539999999999999
aF14.109999999999999
aF14.51
aF14.51
aI3487600
aa(lp96
F13.949999999999999
aF14.25
aF14.119999999999999
aF14.119999999999999
aF14.119999999999999
aI2573300
aa(lp97
F14.24
aF14.24
aF14.24
aF14.24
aF14.24
aI0
aa(lp98
F14.24
aF14.24
aF14.24
aF14.24
aF14.24
aI0
aa(lp99
F14.029999999999999
aF14.25
aF14.16
aF14.24
aF14.24
aI1665200
aa(lp100
F14.02
aF14.449999999999999
aF14.25
aF14.140000000000001
aF14.140000000000001
aI1945600
aa(lp101
F14.08
aF14.619999999999999
aF14.6
aF14.25
aF14.25
aI2422700
aa(lp102
F14.51
aF14.73
aF14.720000000000001
aF14.65
aF14.65
aI1903000
aa(lp103
F14.51
aF14.83
aF14.609999999999999
aF14.720000000000001
aF14.720000000000001
aI2440800
aa(lp104
F14.380000000000001
aF14.69
aF14.380000000000001
aF14.65
aF14.65
aI2301300
aa(lp105
F14.17
aF14.699999999999999
aF14.17
aF14.32
aF14.32
aI2108900
aa(lp106
F13.880000000000001
aF15.1
aF15.08
aF14.09
aF14.09
aI5143900
aa(lp107
F15.02
aF15.83
aF15.48
aF15.210000000000001
aF15.210000000000001
aI3725000
aa(lp108
F15.35
aF16
aF15.35
aF15.6
aF15.6
aI4242600
aa(lp109
F15.23
aF15.710000000000001
aF15.699999999999999
aF15.300000000000001
aF15.300000000000001
aI3246400
aa(lp110
F15.699999999999999
aF15.85
aF15.779999999999999
aF15.75
aF15.75
aI2497700
aa(lp111
F15.59
aF15.960000000000001
aF15.65
aF15.94
aF15.94
aI3110600
aa(lp112
F15.48
aF16
aF16
aF15.76
aF15.76
aI3575000
aa(lp113
F15.359999999999999
aF15.98
aF15.550000000000001
aF15.92
aF15.92
aI4214400
aa(lp114
F14.859999999999999
aF15.58
aF14.859999999999999
aF15.57
aF15.57
aI3862400
aa(lp115
F14.81
aF15.93
aF15.91
aF14.84
aF14.84
aI7143500
aa(lp116
F15.73
aF16.149999999999999
aF16.039999999999999
aF15.970000000000001
aF15.970000000000001
aI5012500
aa(lp117
F15.890000000000001
aF17.09
aF17.09
aF16.190000000000001
aF16.190000000000001
aI9559100
aa(lp118
F17.010000000000002
aF17.280000000000001
aF17.239999999999998
aF17.149999999999999
aF17.149999999999999
aI5783700
aa(lp119
F16.940000000000001
aF17.5
aF17.5
aF17.219999999999999
aF17.219999999999999
aI8380800
aa(lp120
F17.079999999999998
aF17.960000000000001
aF17.289999999999999
aF17.52
aF17.52
aI8617600
aa(lp121
F16.809999999999999
aF17.550000000000001
aF17.02
aF17.309999999999999
aF17.309999999999999
aI6936200
aa(lp122
F16.879999999999999
aF17.649999999999999
aF17.649999999999999
aF17.219999999999999
aF17.219999999999999
aI10868200
aa(lp123
F17.600000000000001
aF18.260000000000002
aF17.75
aF17.690000000000001
aF17.690000000000001
aI9173500
aa(lp124
F17.5
aF17.969999999999999
aF17.68
aF17.75
aF17.75
aI6968600
aa(lp125
F17.5
aF18.190000000000001
aF18.190000000000001
aF17.829999999999998
aF17.829999999999998
aI9633600
aa(lp126
F17.48
aF18.370000000000001
aF17.829999999999998
aF18.27
aF18.27
aI12521600
aa(lp127
F17.550000000000001
aF18.449999999999999
aF17.68
aF17.670000000000002
aF17.670000000000002
aI12348900
aa(lp128
F16.82
aF17.98
aF16.829999999999998
aF17.809999999999999
aF17.809999999999999
aI12945900
aa(lp129
F16.739999999999998
aF17.41
aF17
aF17.010000000000002
aF17.010000000000002
aI6027100
aa(lp130
F16.579999999999998
aF17.57
aF16.760000000000002
aF17.239999999999998
aF17.239999999999998
aI9339200
aa(lp131
F16.329999999999998
aF17.370000000000001
aF16.329999999999998
aF16.68
aF16.68
aI9177900
aa(lp132
F16.899999999999999
aF18.539999999999999
aF18.379999999999999
aF16.899999999999999
aF16.899999999999999
aI17347900
aa(lp133
F18.079999999999998
aF20.59
aF18.420000000000002
aF18.780000000000001
aF18.780000000000001
aI24700800
aa(lp134
F16.5
aF19.489999999999998
aF17.699999999999999
aF18.98
aF18.98
aI21984700
aa(lp135
F17.510000000000002
aF18.989999999999998
aF18.600000000000001
aF17.91
aF17.91
aI20676700
aa(lp136
F17.100000000000001
aF19.620000000000001
aF17.899999999999999
aF19.219999999999999
aF19.219999999999999
aI32050300
aa(lp137
F16.260000000000002
aF17.899999999999999
aF16.32
aF17.899999999999999
aF17.899999999999999
aI33234100
aa(lp138
F15.68
aF16.370000000000001
aF15.98
aF16.27
aF16.27
aI12808400
aa(lp139
F14.970000000000001
aF16.09
aF15.09
aF16.010000000000002
aF16.010000000000002
aI12712800
aa(lp140
F15.039999999999999
aF15.380000000000001
aF15.380000000000001
aF15.109999999999999
aF15.109999999999999
aI3656600
aa(lp141
F15.15
aF15.52
aF15.16
aF15.369999999999999
aF15.369999999999999
aI4625400
aa(lp142
F14.91
aF15.18
aF14.949999999999999
aF15.130000000000001
aF15.130000000000001
aI3928000
aa(lp143
F15.07
aF15.449999999999999
aF15.26
aF15.1
aF15.1
aI4605100
aa(lp144
F14.85
aF15.24
aF14.92
aF15.17
aF15.17
aI4778700
aa(lp145
F14.57
aF14.92
aF14.66
aF14.84
aF14.84
aI3835100
aa(lp146
F14.5
aF15.58
aF15.58
aF14.539999999999999
aF14.539999999999999
aI7533100
aa(lp147
F15.300000000000001
aF16.57
aF15.99
aF15.58
aF15.58
aI11494000
aa(lp148
F15.16
aF17
aF16
aF16.239999999999998
aF16.239999999999998
aI14430300
aa(lp149
F15.82
aF16.5
aF15.9
aF16.010000000000002
aF16.010000000000002
aI7309400
aa(lp150
F15.699999999999999
aF16.16
aF15.91
aF15.99
aF15.99
aI4556300
aa(lp151
F15.779999999999999
aF16.09
aF15.779999999999999
aF15.9
aF15.9
aI5020000
aa(lp152
F14.699999999999999
aF16.050000000000001
aF15.220000000000001
aF15.9
aF15.9
aI9225800
aa(lp153
F15.300000000000001
aF15.619999999999999
aF15.460000000000001
aF15.34
aF15.34
aI3344700
aa(lp154
F15.41
aF15.67
aF15.460000000000001
aF15.52
aF15.52
aI2827900
aa(lp155
F15.460000000000001
aF15.76
aF15.630000000000001
aF15.49
aF15.49
aI2836800
aa(lp156
F15.460000000000001
aF15.65
aF15.6
aF15.619999999999999
aF15.619999999999999
aI3161800
aa(lp157
F15.630000000000001
aF16.010000000000002
aF16
aF15.699999999999999
aF15.699999999999999
aI5696300
aa(lp158
F15.92
aF16.289999999999999
aF16
aF16.16
aF16.16
aI4762300
aa(lp159
F15.779999999999999
aF16.050000000000001
aF16.010000000000002
aF15.949999999999999
aF15.949999999999999
aI4725500
aa(lp160
F16.16
aF16.16
aF16.16
aF16.16
aF16.16
aI0
aa(lp161
F16.16
aF16.16
aF16.16
aF16.16
aF16.16
aI0
aa(lp162
F16.16
aF16.16
aF16.16
aF16.16
aF16.16
aI0
aa(lp163
F16.16
aF16.16
aF16.16
aF16.16
aF16.16
aI0
aa(lp164
F16.16
aF16.16
aF16.16
aF16.16
aF16.16
aI0
aa(lp165
F16.02
aF16.27
aF16.149999999999999
aF16.109999999999999
aF16.109999999999999
aI4064800
aa(lp166
F16.120000000000001
aF16.48
aF16.300000000000001
aF16.16
aF16.16
aI6467100
aa(lp167
F15.949999999999999
aF16.48
aF16
aF16.280000000000001
aF16.280000000000001
aI5289200
aa(lp168
F16.140000000000001
aF16.789999999999999
aF16.48
aF16.219999999999999
aF16.219999999999999
aI10886900
aa(lp169
F16.399999999999999
aF16.899999999999999
aF16.850000000000001
aF16.75
aF16.75
aI16762800
aa(lp170
F16.98
aF18.350000000000001
aF17.800000000000001
aF17.390000000000001
aF17.390000000000001
aI31634600
aa(lp171
F15.539999999999999
aF17.309999999999999
aF15.6
aF17.309999999999999
aF17.309999999999999
aI20232600
aa(lp172
F15.5
aF15.9
aF15.56
aF15.74
aF15.74
aI4527800
aa(lp173
F15.4
aF15.93
aF15.880000000000001
aF15.6
aF15.6
aI7089300
aa(lp174
F15.44
aF16.34
aF15.81
aF16.02
aF16.02
aI8145900
aa(lp175
F15.74
aF16.890000000000001
aF16.859999999999999
aF15.77
aF15.77
aI13366200
aa(lp176
F16.699999999999999
aF17.050000000000001
aF16.920000000000002
aF16.890000000000001
aF16.890000000000001
aI8282900
aa(lp177
F16.699999999999999
aF17.300000000000001
aF17.100000000000001
aF17.059999999999999
aF17.059999999999999
aI13553000
aa(lp178
F17.059999999999999
aF18.059999999999999
aF17.640000000000001
aF17.390000000000001
aF17.390000000000001
aI17610600
aa(lp179
F16.399999999999999
aF18.800000000000001
aF16.5
aF17.789999999999999
aF17.789999999999999
aI32553200
aa(lp180
F17.16
aF18.23
aF18
aF17.550000000000001
aF17.550000000000001
aI49147800
aa(lp181
F16.949999999999999
aF16.949999999999999
aF16.949999999999999
aF16.949999999999999
aF16.949999999999999
aI0
aa(lp182
F16.91
aF16.949999999999999
aF16.949999999999999
aF16.949999999999999
aF16.949999999999999
aI27880300
aa(lp183
F15.41
aF15.41
aF15.41
aF15.41
aF15.41
aI2225100
aa(lp184
F14.01
aF14.01
aF14.01
aF14.01
aF14.01
aI1438700
aa(lp185
F12.74
aF12.74
aF12.74
aF12.74
aF12.74
aI1324300
aa(lp186
F11.58
aF11.58
aF11.58
aF11.58
aF11.58
aI1813500
aa(lp187
F10.529999999999999
aF10.529999999999999
aF10.529999999999999
aF10.529999999999999
aF10.529999999999999
aI2604200
aa(lp188
F9.5700000000000003
aF9.5700000000000003
aF9.5700000000000003
aF9.5700000000000003
aF9.5700000000000003
aI1647900
aa(lp189
F8.6999999999999993
aF8.6999999999999993
aF8.6999999999999993
aF8.6999999999999993
aF8.6999999999999993
aI493900
aa(lp190
F7.9100000000000001
aF7.9100000000000001
aF7.9100000000000001
aF7.9100000000000001
aF7.9100000000000001
aI213800
aa(lp191
F7.1900000000000004
aF7.1900000000000004
aF7.1900000000000004
aF7.1900000000000004
aF7.1900000000000004
aI109000
aa.