(lp1
(lp2
F40.329999999999998
aF41.939999999999998
aF41.5
aF41.939999999999998
aF41.939999999999998
aI10347300
aa(lp3
F34.689999999999998
aF38.130000000000003
aF34.689999999999998
aF38.130000000000003
aF38.130000000000003
aI12544400
aa(lp4
F32.5
aF36
aF32.899999999999999
aF34.659999999999997
aF34.659999999999997
aI12945300
aa(lp5
F32.700000000000003
aF36
aF33.329999999999998
aF33.799999999999997
aF33.799999999999997
aI13307100
aa(lp6
F30.27
aF33.5
aF31.399999999999999
aF33.420000000000002
aF33.420000000000002
aI12669700
aa(lp7
F29.050000000000001
aF31.32
aF29.050000000000001
aF30.890000000000001
aF30.890000000000001
aI12044400
aa(lp8
F28.780000000000001
aF29.989999999999998
aF29.100000000000001
aF28.780000000000001
aF28.780000000000001
aI12520700
aa(lp9
F31.780000000000001
aF36.369999999999997
aF36.369999999999997
aF31.98
aF31.98
aI24936500
aa(lp10
F34.490000000000002
aF34.490000000000002
aF34.490000000000002
aF34.490000000000002
aF34.490000000000002
aI1119400
aa(lp11
F31.350000000000001
aF31.350000000000001
aF31.350000000000001
aF31.350000000000001
aF31.350000000000001
aI396600
aa(lp12
F28.5
aF28.5
aF28.5
aF28.5
aF28.5
aI0
aa(lp13
F28.5
aF28.5
aF28.5
aF28.5
aF28.5
aI152500
aa(lp14
F25.91
aF25.91
aF25.91
aF25.91
aF25.91
aI135000
aa(lp15
F23.550000000000001
aF23.550000000000001
aF23.550000000000001
aF23.550000000000001
aF23.550000000000001
aI83400
aa(lp16
F21.41
aF21.41
aF21.41
aF21.41
aF21.41
aI46400
aa(lp17
F19.460000000000001
aF19.460000000000001
aF19.460000000000001
aF19.460000000000001
aF19.460000000000001
aI29000
aa(lp18
F17.690000000000001
aF17.690000000000001
aF17.690000000000001
aF17.690000000000001
aF17.690000000000001
aI12900
aa(lp19
F16.079999999999998
aF16.079999999999998
aF16.079999999999998
aF16.079999999999998
aF16.079999999999998
aI65200
aa.