(lp1
(lp2
F34.020000000000003
aF34.020000000000003
aF34.020000000000003
aF34.020000000000003
aF34.020000000000003
aI322400
aa(lp3
F30.93
aF30.93
aF30.93
aF30.93
aF30.93
aI243700
aa(lp4
F28.120000000000001
aF28.120000000000001
aF28.120000000000001
aF28.120000000000001
aF28.120000000000001
aI0
aa(lp5
F28.120000000000001
aF28.120000000000001
aF28.120000000000001
aF28.120000000000001
aF28.120000000000001
aI0
aa(lp6
F28.120000000000001
aF28.120000000000001
aF28.120000000000001
aF28.120000000000001
aF28.120000000000001
aI0
aa(lp7
F28.120000000000001
aF28.120000000000001
aF28.120000000000001
aF28.120000000000001
aF28.120000000000001
aI0
aa(lp8
F28.120000000000001
aF28.120000000000001
aF28.120000000000001
aF28.120000000000001
aF28.120000000000001
aI0
aa(lp9
F27.699999999999999
aF28.68
aF28.100000000000001
aF28.120000000000001
aF28.120000000000001
aI2138300
aa(lp10
F27.809999999999999
aF28.989999999999998
aF28.719999999999999
aF28.079999999999998
aF28.079999999999998
aI1645700
aa(lp11
F27.609999999999999
aF28.870000000000001
aF28.010000000000002
aF28.809999999999999
aF28.809999999999999
aI2148100
aa(lp12
F28.02
aF28.02
aF28.02
aF28.02
aF28.02
aI0
aa(lp13
F27.920000000000002
aF28.370000000000001
aF28.18
aF28.02
aF28.02
aI1870100
aa(lp14
F27.199999999999999
aF28.420000000000002
aF27.449999999999999
aF28.190000000000001
aF28.190000000000001
aI2536300
aa(lp15
F27.82
aF29.41
aF29.149999999999999
aF28.109999999999999
aF28.109999999999999
aI2713300
aa(lp16
F28.210000000000001
aF29.84
aF28.52
aF29.32
aF29.32
aI3969000
aa(lp17
F27.600000000000001
aF28.59
aF28.5
aF28.140000000000001
aF28.140000000000001
aI2935400
aa(lp18
F27.5
aF28.800000000000001
aF27.989999999999998
aF28.789999999999999
aF28.789999999999999
aI3786500
aa(lp19
F27.539999999999999
aF28.170000000000002
aF27.699999999999999
aF27.739999999999998
aF27.739999999999998
aI2867000
aa(lp20
F26.27
aF27.370000000000001
aF26.27
aF27.34
aF27.34
aI1765400
aa(lp21
F26.100000000000001
aF27.379999999999999
aF27.280000000000001
aF26.350000000000001
aF26.350000000000001
aI2055000
aa(lp22
F26.780000000000001
aF27.68
aF26.780000000000001
aF27.379999999999999
aF27.379999999999999
aI2436200
aa(lp23
F26.039999999999999
aF26.989999999999998
aF26.559999999999999
aF26.75
aF26.75
aI1566800
aa(lp24
F26.699999999999999
aF27.850000000000001
aF27.73
aF26.73
aF26.73
aI2285900
aa(lp25
F27.75
aF28.52
aF28.170000000000002
aF27.899999999999999
aF27.899999999999999
aI2651100
aa(lp26
F27.289999999999999
aF28.399999999999999
aF27.390000000000001
aF28.100000000000001
aF28.100000000000001
aI3579100
aa(lp27
F26.170000000000002
aF27.48
aF26.52
aF27.239999999999998
aF27.239999999999998
aI2063100
aa(lp28
F25.969999999999999
aF27.280000000000001
aF27.280000000000001
aF26.609999999999999
aF26.609999999999999
aI2301100
aa(lp29
F26.5
aF27.800000000000001
aF27.670000000000002
aF27.219999999999999
aF27.219999999999999
aI2690100
aa(lp30
F27.120000000000001
aF27.859999999999999
aF27.27
aF27.690000000000001
aF27.690000000000001
aI2858100
aa(lp31
F27.170000000000002
aF27.170000000000002
aF27.170000000000002
aF27.170000000000002
aF27.170000000000002
aI0
aa(lp32
F26.850000000000001
aF27.43
aF27.43
aF27.170000000000002
aF27.170000000000002
aI3007700
aa(lp33
F26.199999999999999
aF27.649999999999999
aF26.199999999999999
aF27.43
aF27.43
aI4866400
aa(lp34
F25.670000000000002
aF26.129999999999999
aF25.780000000000001
aF26.120000000000001
aF26.120000000000001
aI1692500
aa(lp35
F25.719999999999999
aF26.079999999999998
aF26.07
aF25.77
aF25.77
aI1431200
aa(lp36
F25.800000000000001
aF26.140000000000001
aF25.84
aF26.079999999999998
aF26.079999999999998
aI2102700
aa(lp37
F25.48
aF25.989999999999998
aF25.920000000000002
aF25.84
aF25.84
aI1411000
aa(lp38
F25.809999999999999
aF26.800000000000001
aF26.420000000000002
aF25.870000000000001
aF25.870000000000001
aI2207700
aa(lp39
F25.010000000000002
aF26.539999999999999
aF25.620000000000001
aF26.32
aF26.32
aI2653700
aa(lp40
F24.719999999999999
aF26.350000000000001
aF26.16
aF25.649999999999999
aF25.649999999999999
aI2887300
aa(lp41
F25.52
aF26.149999999999999
aF25.949999999999999
aF26.140000000000001
aF26.140000000000001
aI2719100
aa(lp42
F24.899999999999999
aF25.989999999999998
aF24.899999999999999
aF25.949999999999999
aF25.949999999999999
aI3898500
aa(lp43
F24.600000000000001
aF24.960000000000001
aF24.960000000000001
aF24.850000000000001
aF24.850000000000001
aI1996900
aa(lp44
F24.359999999999999
aF25.100000000000001
aF24.559999999999999
aF25
aF25
aI2792100
aa(lp45
F24.239999999999998
aF24.84
aF24.239999999999998
aF24.550000000000001
aF24.550000000000001
aI2532600
aa(lp46
F23.449999999999999
aF24.239999999999998
aF23.5
aF24.239999999999998
aF24.239999999999998
aI2147500
aa(lp47
F23.109999999999999
aF23.440000000000001
aF23.280000000000001
aF23.43
aF23.43
aI856700
aa(lp48
F22.91
aF23.57
aF23.43
aF23.039999999999999
aF23.039999999999999
aI1035100
aa(lp49
F23.25
aF23.719999999999999
aF23.620000000000001
aF23.350000000000001
aF23.350000000000001
aI830000
aa(lp50
F23.420000000000002
aF23.82
aF23.469999999999999
aF23.550000000000001
aF23.550000000000001
aI804700
aa(lp51
F23.109999999999999
aF23.850000000000001
aF23.850000000000001
aF23.620000000000001
aF23.620000000000001
aI938300
aa(lp52
F23.469999999999999
aF23.940000000000001
aF23.649999999999999
aF23.890000000000001
aF23.890000000000001
aI1860500
aa(lp53
F23.09
aF23.600000000000001
aF23.550000000000001
aF23.600000000000001
aF23.600000000000001
aI1300100
aa(lp54
F23.079999999999998
aF23.579999999999998
aF23.18
aF23.510000000000002
aF23.510000000000002
aI1070500
aa(lp55
F23.199999999999999
aF24
aF23.789999999999999
aF23.239999999999998
aF23.239999999999998
aI1700600
aa(lp56
F22.780000000000001
aF23.75
aF22.780000000000001
aF23.739999999999998
aF23.739999999999998
aI2290800
aa(lp57
F22.52
aF22.789999999999999
aF22.649999999999999
aF22.75
aF22.75
aI748600
aa(lp58
F22.329999999999998
aF22.690000000000001
aF22.5
aF22.649999999999999
aF22.649999999999999
aI623000
aa(lp59
F22.329999999999998
aF22.600000000000001
aF22.550000000000001
aF22.370000000000001
aF22.370000000000001
aI565000
aa(lp60
F22.559999999999999
aF22.559999999999999
aF22.559999999999999
aF22.559999999999999
aF22.559999999999999
aI0
aa(lp61
F22.559999999999999
aF22.559999999999999
aF22.559999999999999
aF22.559999999999999
aF22.559999999999999
aI0
aa(lp62
F22.559999999999999
aF22.559999999999999
aF22.559999999999999
aF22.559999999999999
aF22.559999999999999
aI0
aa(lp63
F22.559999999999999
aF22.559999999999999
aF22.559999999999999
aF22.559999999999999
aF22.559999999999999
aI0
aa(lp64
F22.559999999999999
aF22.559999999999999
aF22.559999999999999
aF22.559999999999999
aF22.559999999999999
aI0
aa(lp65
F22.399999999999999
aF22.66
aF22.600000000000001
aF22.559999999999999
aF22.559999999999999
aI510300
aa(lp66
F22.329999999999998
aF22.68
aF22.420000000000002
aF22.600000000000001
aF22.600000000000001
aI682400
aa(lp67
F22.190000000000001
aF22.420000000000002
aF22.289999999999999
aF22.390000000000001
aF22.390000000000001
aI921900
aa(lp68
F21.710000000000001
aF22.280000000000001
aF21.870000000000001
aF22.260000000000002
aF22.260000000000002
aI832200
aa(lp69
F21.530000000000001
aF21.949999999999999
aF21.800000000000001
aF21.77
aF21.77
aI526100
aa(lp70
F21.399999999999999
aF21.989999999999998
aF21.489999999999998
aF21.800000000000001
aF21.800000000000001
aI765500
aa(lp71
F21.34
aF21.789999999999999
aF21.559999999999999
aF21.489999999999998
aF21.489999999999998
aI454500
aa(lp72
F21.23
aF21.949999999999999
aF21.949999999999999
aF21.52
aF21.52
aI739600
aa(lp73
F21.75
aF22.469999999999999
aF22.399999999999999
aF21.879999999999999
aF21.879999999999999
aI650600
aa(lp74
F22.030000000000001
aF22.600000000000001
aF22.510000000000002
aF22.09
aF22.09
aI628100
aa(lp75
F21.969999999999999
aF22.600000000000001
aF22
aF22.510000000000002
aF22.510000000000002
aI510300
aa(lp76
F21.57
aF22.300000000000001
aF22.300000000000001
aF22.030000000000001
aF22.030000000000001
aI638100
aa(lp77
F22.41
aF23.359999999999999
aF23.359999999999999
aF22.41
aF22.41
aI1100600
aa(lp78
F23.379999999999999
aF23.899999999999999
aF23.649999999999999
aF23.5
aF23.300000000000001
aI1122400
aa(lp79
F23.149999999999999
aF23.800000000000001
aF23.350000000000001
aF23.710000000000001
aF23.510000000000002
aI1457700
aa(lp80
F23.120000000000001
aF23.5
aF23.239999999999998
aF23.350000000000001
aF23.149999999999999
aI974000
aa(lp81
F22.879999999999999
aF23.25
aF23.100000000000001
aF23.140000000000001
aF22.949999999999999
aI1019100
aa(lp82
F23.07
aF23.75
aF23.699999999999999
aF23.129999999999999
aF22.940000000000001
aI1302500
aa(lp83
F23.129999999999999
aF23.699999999999999
aF23.5
aF23.640000000000001
aF23.440000000000001
aI1839200
aa(lp84
F23.129999999999999
aF23.960000000000001
aF23.5
aF23.489999999999998
aF23.289999999999999
aI2486300
aa(lp85
F22.100000000000001
aF23.800000000000001
aF22.100000000000001
aF23.59
aF23.390000000000001
aI3039800
aa(lp86
F21.5
aF22.77
aF21.800000000000001
aF21.989999999999998
aF21.800000000000001
aI2020900
aa(lp87
F21.600000000000001
aF22.25
aF21.780000000000001
aF22.010000000000002
aF21.82
aI1232300
aa(lp88
F21.059999999999999
aF22.300000000000001
aF21.059999999999999
aF21.800000000000001
aF21.620000000000001
aI1506000
aa(lp89
F20.949999999999999
aF21.239999999999998
aF21.239999999999998
aF21.02
aF20.84
aI804800
aa(lp90
F20.899999999999999
aF21.390000000000001
aF20.899999999999999
aF21.239999999999998
aF21.059999999999999
aI876800
aa(lp91
F20.850000000000001
aF21.670000000000002
aF21.670000000000002
aF20.870000000000001
aF20.690000000000001
aI909900
aa(lp92
F21.539999999999999
aF21.969999999999999
aF21.710000000000001
aF21.800000000000001
aF21.620000000000001
aI916800
aa(lp93
F21.350000000000001
aF21.969999999999999
aF21.350000000000001
aF21.739999999999998
aF21.559999999999999
aI1019300
aa(lp94
F21.41
aF21.800000000000001
aF21.699999999999999
aF21.579999999999998
aF21.399999999999999
aI787400
aa(lp95
F20.780000000000001
aF21.800000000000001
aF20.780000000000001
aF21.800000000000001
aF21.620000000000001
aI1109800
aa(lp96
F20.600000000000001
aF21.350000000000001
aF21.25
aF21.079999999999998
aF20.899999999999999
aI872400
aa(lp97
F21.390000000000001
aF21.390000000000001
aF21.390000000000001
aF21.390000000000001
aF21.210000000000001
aI0
aa(lp98
F21.390000000000001
aF21.390000000000001
aF21.390000000000001
aF21.390000000000001
aF21.210000000000001
aI0
aa(lp99
F21.129999999999999
aF21.449999999999999
aF21.390000000000001
aF21.390000000000001
aF21.210000000000001
aI645200
aa(lp100
F21.100000000000001
aF21.460000000000001
aF21.309999999999999
aF21.23
aF21.050000000000001
aI493800
aa(lp101
F21.129999999999999
aF21.960000000000001
aF21.940000000000001
aF21.25
aF21.07
aI1023800
aa(lp102
F22
aF22.239999999999998
aF22.210000000000001
aF22.09
aF21.899999999999999
aI721800
aa(lp103
F21.899999999999999
aF22.440000000000001
aF22.399999999999999
aF22.280000000000001
aF22.09
aI1159400
aa(lp104
F21.469999999999999
aF22.370000000000001
aF21.489999999999998
aF22.350000000000001
aF22.16
aI1560300
aa(lp105
F20.899999999999999
aF21.890000000000001
aF20.91
aF21.170000000000002
aF20.989999999999998
aI1092400
aa(lp106
F20.899999999999999
aF23.25
aF23.25
aF20.91
aF20.73
aI1793800
aa(lp107
F23.010000000000002
aF24.199999999999999
aF23.850000000000001
aF23.219999999999999
aF23.02
aI1411700
aa(lp108
F23.949999999999999
aF24.48
aF24.100000000000001
aF23.969999999999999
aF23.77
aI1127000
aa(lp109
F24.109999999999999
aF25.16
aF24.800000000000001
aF24.239999999999998
aF24.039999999999999
aI1373800
aa(lp110
F24.93
aF25.16
aF25.07
aF24.969999999999999
aF24.760000000000002
aI1018700
aa(lp111
F24.710000000000001
aF25.52
aF25.010000000000002
aF25.460000000000001
aF25.25
aI1129300
aa(lp112
F24.620000000000001
aF25
aF24.800000000000001
aF24.920000000000002
aF24.710000000000001
aI811300
aa(lp113
F24.5
aF25
aF24.5
aF24.82
aF24.609999999999999
aI1113500
aa(lp114
F24.030000000000001
aF24.789999999999999
aF24.030000000000001
aF24.68
aF24.469999999999999
aI1293200
aa(lp115
F24
aF26.489999999999998
aF26.489999999999998
aF24.02
aF23.82
aI3323700
aa(lp116
F26.100000000000001
aF27
aF27
aF26.34
aF26.120000000000001
aI1726800
aa(lp117
F26.010000000000002
aF27.050000000000001
aF27.010000000000002
aF26.309999999999999
aF26.09
aI2962800
aa(lp118
F27.199999999999999
aF27.550000000000001
aF27.440000000000001
aF27.27
aF27.039999999999999
aI2210000
aa(lp119
F26.710000000000001
aF27.579999999999998
aF27.32
aF27.41
aF27.18
aI2576700
aa(lp120
F26.699999999999999
aF27.699999999999999
aF26.699999999999999
aF27.309999999999999
aF27.079999999999998
aI2189900
aa(lp121
F26.52
aF27.399999999999999
aF27.399999999999999
aF26.739999999999998
aF26.510000000000002
aI2267100
aa(lp122
F27.420000000000002
aF28.100000000000001
aF27.989999999999998
aF27.530000000000001
aF27.300000000000001
aI2198200
aa(lp123
F27.510000000000002
aF28.219999999999999
aF27.510000000000002
aF27.899999999999999
aF27.66
aI2764900
aa(lp124
F27.100000000000001
aF27.59
aF27.27
aF27.5
aF27.27
aI1847100
aa(lp125
F27
aF27.969999999999999
aF27.879999999999999
aF27.25
aF27.02
aI2575800
aa(lp126
F27.079999999999998
aF27.969999999999999
aF27.41
aF27.82
aF27.59
aI2510400
aa(lp127
F26.850000000000001
aF27.649999999999999
aF26.989999999999998
aF27.09
aF26.859999999999999
aI2303800
aa(lp128
F26.199999999999999
aF27.289999999999999
aF26.399999999999999
aF26.989999999999998
aF26.760000000000002
aI1847400
aa(lp129
F26.460000000000001
aF27.100000000000001
aF27.100000000000001
aF26.760000000000002
aF26.530000000000001
aI1660200
aa(lp130
F26.390000000000001
aF27.27
aF26.59
aF27.100000000000001
aF26.870000000000001
aI2143500
aa(lp131
F25
aF27.199999999999999
aF26.609999999999999
aF26.800000000000001
aF26.57
aI3130800
aa(lp132
F26.289999999999999
aF29.5
aF28.510000000000002
aF26.57
aF26.350000000000001
aI5310100
aa(lp133
F28.989999999999998
aF31.489999999999998
aF30.43
aF29.07
aF28.829999999999998
aI7007100
aa(lp134
F29.210000000000001
aF31.899999999999999
aF29.600000000000001
aF31.870000000000001
aF31.600000000000001
aI8473600
aa(lp135
F29.100000000000001
aF31.5
aF29.899999999999999
aF30.420000000000002
aF30.16
aI8184200
aa(lp136
F28.030000000000001
aF29.859999999999999
aF28.23
aF29.829999999999998
aF29.579999999999998
aI5836800
aa(lp137
F27.949999999999999
aF30
aF28.300000000000001
aF28.280000000000001
aF28.039999999999999
aI6918400
aa(lp138
F26.890000000000001
aF28.969999999999999
aF26.899999999999999
aF28.52
aF28.280000000000001
aI6400000
aa(lp139
F26.5
aF27.370000000000001
aF27.09
aF26.879999999999999
aF26.649999999999999
aI3249500
aa(lp140
F27.309999999999999
aF28.469999999999999
aF27.440000000000001
aF27.620000000000001
aF27.390000000000001
aI4437300
aa(lp141
F27.039999999999999
aF27.710000000000001
aF27.25
aF27.43
aF27.199999999999999
aI3444800
aa(lp142
F26.629999999999999
aF27.48
aF26.879999999999999
aF27.370000000000001
aF27.140000000000001
aI4774200
aa(lp143
F26.309999999999999
aF27.199999999999999
aF27.170000000000002
aF27.010000000000002
aF26.780000000000001
aI4964500
aa(lp144
F26.829999999999998
aF28
aF26.98
aF27.390000000000001
aF27.16
aI6676900
aa(lp145
F25.899999999999999
aF27.280000000000001
aF25.969999999999999
aF27.23
aF27
aI6069500
aa(lp146
F26.420000000000002
aF28.559999999999999
aF28.460000000000001
aF26.420000000000002
aF26.199999999999999
aI6408700
aa(lp147
F28.100000000000001
aF31.870000000000001
aF29.100000000000001
aF29.350000000000001
aF29.100000000000001
aI9933200
aa(lp148
F28.640000000000001
aF31.600000000000001
aF30.399999999999999
aF29.07
aF28.829999999999998
aI9946100
aa(lp149
F27.25
aF29.91
aF27.25
aF29.91
aF29.66
aI5655700
aa(lp150
F26.109999999999999
aF28.420000000000002
aF26.75
aF27.190000000000001
aF26.960000000000001
aI8451000
aa(lp151
F24.949999999999999
aF27.530000000000001
aF25.039999999999999
aF26.780000000000001
aF26.550000000000001
aI8773800
aa(lp152
F23.18
aF25.300000000000001
aF24.100000000000001
aF25.039999999999999
aF24.829999999999998
aI5587900
aa(lp153
F24.120000000000001
aF24.690000000000001
aF24.300000000000001
aF24.219999999999999
aF24.02
aI3673800
aa(lp154
F23.710000000000001
aF24.390000000000001
aF23.73
aF24.379999999999999
aF24.170000000000002
aI2051000
aa(lp155
F23.710000000000001
aF24.050000000000001
aF23.899999999999999
aF23.780000000000001
aF23.579999999999998
aI1008200
aa(lp156
F23.670000000000002
aF24.300000000000001
aF24.289999999999999
aF23.879999999999999
aF23.68
aI1674600
aa(lp157
F24
aF24.5
aF24.129999999999999
aF24.210000000000001
aF24.010000000000002
aI1469200
aa(lp158
F23.879999999999999
aF24.460000000000001
aF24.350000000000001
aF24.100000000000001
aF23.899999999999999
aI2056600
aa(lp159
F24.199999999999999
aF24.5
aF24.449999999999999
aF24.350000000000001
aF24.140000000000001
aI1475000
aa(lp160
F24.370000000000001
aF24.370000000000001
aF24.370000000000001
aF24.370000000000001
aF24.16
aI0
aa(lp161
F24.370000000000001
aF24.370000000000001
aF24.370000000000001
aF24.370000000000001
aF24.16
aI0
aa(lp162
F24.370000000000001
aF24.370000000000001
aF24.370000000000001
aF24.370000000000001
aF24.16
aI0
aa(lp163
F24.370000000000001
aF24.370000000000001
aF24.370000000000001
aF24.370000000000001
aF24.16
aI0
aa(lp164
F24.370000000000001
aF24.370000000000001
aF24.370000000000001
aF24.370000000000001
aF24.16
aI0
aa(lp165
F24.23
aF24.420000000000002
aF24.260000000000002
aF24.370000000000001
aF24.16
aI1445700
aa(lp166
F24.210000000000001
aF24.52
aF24.300000000000001
aF24.289999999999999
aF24.09
aI1867000
aa(lp167
F23.949999999999999
aF24.350000000000001
aF24.129999999999999
aF24.25
aF24.050000000000001
aI1544400
aa(lp168
F24.02
aF24.629999999999999
aF24.48
aF24.050000000000001
aF23.850000000000001
aI2270700
aa(lp169
F23.539999999999999
aF24.579999999999998
aF23.640000000000001
aF24.399999999999999
aF24.190000000000001
aI4350400
aa(lp170
F23.100000000000001
aF23.68
aF23.199999999999999
aF23.539999999999999
aF23.34
aI1553300
aa(lp171
F22.890000000000001
aF23.420000000000002
aF23.420000000000002
aF23.23
aF23.030000000000001
aI1182100
aa(lp172
F23.27
aF23.48
aF23.300000000000001
aF23.449999999999999
aF23.25
aI853200
aa(lp173
F23.190000000000001
aF23.629999999999999
aF23.379999999999999
aF23.350000000000001
aF23.149999999999999
aI1130900
aa(lp174
F23.02
aF23.550000000000001
aF23.149999999999999
aF23.440000000000001
aF23.239999999999998
aI1702400
aa(lp175
F23
aF24.359999999999999
aF24.239999999999998
aF23.239999999999998
aF23.039999999999999
aI2836400
aa(lp176
F24.109999999999999
aF24.530000000000001
aF24.309999999999999
aF24.25
aF24.050000000000001
aI2110100
aa(lp177
F24.32
aF24.809999999999999
aF24.800000000000001
aF24.390000000000001
aF24.18
aI2515100
aa(lp178
F24.239999999999998
aF24.989999999999998
aF24.280000000000001
aF24.690000000000001
aF24.48
aI5339600
aa(lp179
F23.600000000000001
aF24.260000000000002
aF23.789999999999999
aF24.25
aF24.050000000000001
aI2798400
aa(lp180
F23.620000000000001
aF24.100000000000001
aF24.079999999999998
aF23.82
aF23.620000000000001
aI1629200
aa(lp181
F23.98
aF23.98
aF23.98
aF23.98
aF23.780000000000001
aI0
aa(lp182
F23.77
aF24.300000000000001
aF24.289999999999999
aF23.98
aF23.780000000000001
aI2318700
aa(lp183
F23.920000000000002
aF24.649999999999999
aF24.120000000000001
aF24.329999999999998
aF24.129999999999999
aI3200400
aa(lp184
F23.850000000000001
aF24.329999999999998
aF24.300000000000001
aF24.079999999999998
aF23.879999999999999
aI3330600
aa(lp185
F24.059999999999999
aF24.879999999999999
aF24.059999999999999
aF24.449999999999999
aF24.239999999999998
aI4880500
aa(lp186
F23.300000000000001
aF23.879999999999999
aF23.5
aF23.75
aF23.550000000000001
aI1973700
aa(lp187
F22.91
aF23.48
aF22.969999999999999
aF23.440000000000001
aF23.239999999999998
aI1981400
aa(lp188
F22.809999999999999
aF23.440000000000001
aF23.079999999999998
aF23.059999999999999
aF22.870000000000001
aI1521700
aa(lp189
F22.920000000000002
aF23.329999999999998
aF22.989999999999998
aF23.100000000000001
aF22.91
aI1251300
aa(lp190
F22.809999999999999
aF23.690000000000001
aF23.690000000000001
aF22.829999999999998
aF22.640000000000001
aI3165200
aa(lp191
F23.460000000000001
aF24.210000000000001
aF23.829999999999998
aF23.870000000000001
aF23.670000000000002
aI3238600
aa(lp192
F23.600000000000001
aF24.379999999999999
aF24.059999999999999
aF23.710000000000001
aF23.510000000000002
aI4742800
aa(lp193
F24.25
aF25.399999999999999
aF24.989999999999998
aF24.460000000000001
aF24.25
aI6436100
aa(lp194
F23.829999999999998
aF26.82
aF24.800000000000001
aF25.800000000000001
aF25.579999999999998
aI11279200
aa(lp195
F23.18
aF24.850000000000001
aF23.300000000000001
aF24.719999999999999
aF24.510000000000002
aI10750900
aa(lp196
F22.98
aF23.350000000000001
aF22.989999999999998
aF23.260000000000002
aF23.059999999999999
aI3756600
aa(lp197
F22.649999999999999
aF23.079999999999998
aF22.859999999999999
aF22.940000000000001
aF22.75
aI2781000
aa(lp198
F22.600000000000001
aF23.27
aF22.949999999999999
aF22.940000000000001
aF22.75
aI3897300
aa(lp199
F22.879999999999999
aF23.350000000000001
aF23.34
aF22.989999999999998
aF22.800000000000001
aI4109100
aa(lp200
F23.23
aF23.82
aF23.82
aF23.34
aF23.140000000000001
aI5243800
aa(lp201
F23.52
aF23.949999999999999
aF23.73
aF23.870000000000001
aF23.670000000000002
aI4088800
aa(lp202
F23.66
aF24.16
aF24
aF23.710000000000001
aF23.510000000000002
aI5821200
aa(lp203
F24.100000000000001
aF24.859999999999999
aF24.600000000000001
aF24.27
aF24.07
aI6350900
aa(lp204
F24.129999999999999
aF24.879999999999999
aF24.399999999999999
aF24.66
aF24.449999999999999
aI8632600
aa(lp205
F24.870000000000001
aF25.989999999999998
aF25.309999999999999
aF25.100000000000001
aF24.890000000000001
aI10588700
aa(lp206
F25
aF28.559999999999999
aF27.079999999999998
aF26.41
aF26.190000000000001
aI20007900
aa(lp207
F23.989999999999998
aF26.18
aF24.100000000000001
aF26.18
aF25.960000000000001
aI13180800
aa(lp208
F21.879999999999999
aF23.800000000000001
aF22.800000000000001
aF23.800000000000001
aF23.600000000000001
aI19619900
aa(lp209
F21.640000000000001
aF21.640000000000001
aF21.640000000000001
aF21.640000000000001
aF21.460000000000001
aI7083100
aa(lp210
F19.670000000000002
aF19.670000000000002
aF19.670000000000002
aF19.670000000000002
aF19.5
aI721800
aa(lp211
F17.879999999999999
aF17.879999999999999
aF17.879999999999999
aF17.879999999999999
aF17.73
aI374600
aa(lp212
F16.25
aF16.25
aF16.25
aF16.25
aF16.109999999999999
aI294500
aa(lp213
F14.77
aF14.77
aF14.77
aF14.77
aF14.65
aI225300
aa(lp214
F13.43
aF13.43
aF13.43
aF13.43
aF13.32
aI124600
aa(lp215
F12.210000000000001
aF12.210000000000001
aF12.210000000000001
aF12.210000000000001
aF12.109999999999999
aI51200
aa(lp216
F11.1
aF11.1
aF11.1
aF11.1
aF11.01
aI44900
aa.