(lp1
(lp2
F36.170000000000002
aF38.689999999999998
aF36.170000000000002
aF38.689999999999998
aF38.689999999999998
aI10013000
aa(lp3
F32
aF35.170000000000002
aF32
aF35.170000000000002
aF35.170000000000002
aI10751200
aa(lp4
F29.5
aF32.960000000000001
aF29.859999999999999
aF31.969999999999999
aF31.969999999999999
aI10770200
aa(lp5
F29.02
aF30.859999999999999
aF29.399999999999999
aF30.300000000000001
aF30.300000000000001
aI12396400
aa(lp6
F26.899999999999999
aF29.600000000000001
aF27.379999999999999
aF29.120000000000001
aF29.120000000000001
aI10532300
aa(lp7
F26.100000000000001
aF26.989999999999998
aF26.120000000000001
aF26.91
aF26.91
aI4615500
aa(lp8
F25.850000000000001
aF28.399999999999999
aF28.300000000000001
aF25.989999999999998
aF25.989999999999998
aI7052700
aa(lp9
F27.469999999999999
aF29.989999999999998
aF28.149999999999999
aF28.629999999999999
aF28.629999999999999
aI10457900
aa(lp10
F26.809999999999999
aF28.68
aF27.5
aF28.399999999999999
aF28.399999999999999
aI9335200
aa(lp11
F27
aF27.829999999999998
aF27.620000000000001
aF27.289999999999999
aF27.289999999999999
aI3391700
aa(lp12
F27.559999999999999
aF27.559999999999999
aF27.559999999999999
aF27.559999999999999
aF27.559999999999999
aI0
aa(lp13
F27.300000000000001
aF28.5
aF27.300000000000001
aF27.559999999999999
aF27.559999999999999
aI5289500
aa(lp14
F26.289999999999999
aF27.879999999999999
aF27.010000000000002
aF27.440000000000001
aF27.440000000000001
aI4522800
aa(lp15
F26.890000000000001
aF28.75
aF27.879999999999999
aF27.260000000000002
aF27.260000000000002
aI6435200
aa(lp16
F26.760000000000002
aF27.760000000000002
aF26.850000000000001
aF27.68
aF27.68
aI5976500
aa(lp17
F26.25
aF27.02
aF27
aF26.789999999999999
aF26.789999999999999
aI4023700
aa(lp18
F26.670000000000002
aF27.489999999999998
aF27.370000000000001
aF27.109999999999999
aF27.109999999999999
aI4052000
aa(lp19
F26.719999999999999
aF27.379999999999999
aF26.800000000000001
aF27.09
aF27.09
aI4148200
aa(lp20
F25.699999999999999
aF26.850000000000001
aF25.699999999999999
aF26.620000000000001
aF26.620000000000001
aI3582600
aa(lp21
F25.629999999999999
aF27.399999999999999
aF27.379999999999999
aF25.710000000000001
aF25.710000000000001
aI6723500
aa(lp22
F27.600000000000001
aF28.59
aF28.300000000000001
aF27.719999999999999
aF27.719999999999999
aI5114100
aa(lp23
F27.199999999999999
aF29.329999999999998
aF28.280000000000001
aF28.370000000000001
aF28.370000000000001
aI5642100
aa(lp24
F27.780000000000001
aF30.23
aF29.199999999999999
aF28.289999999999999
aF28.289999999999999
aI8044900
aa(lp25
F27.5
aF29.5
aF27.649999999999999
aF29.350000000000001
aF29.350000000000001
aI9971100
aa(lp26
F26.27
aF28.280000000000001
aF26.629999999999999
aF27.989999999999998
aF27.989999999999998
aI9091100
aa(lp27
F25.73
aF26.68
aF26.050000000000001
aF26.399999999999999
aF26.399999999999999
aI5497900
aa(lp28
F25.59
aF27.43
aF27
aF26.149999999999999
aF26.149999999999999
aI6649500
aa(lp29
F26.280000000000001
aF28
aF26.77
aF27.23
aF27.23
aI9358300
aa(lp30
F25.800000000000001
aF26.780000000000001
aF26
aF26.66
aF26.66
aI9224800
aa(lp31
F26.100000000000001
aF26.100000000000001
aF26.100000000000001
aF26.100000000000001
aF26.100000000000001
aI0
aa(lp32
F25
aF26.149999999999999
aF25.210000000000001
aF26.100000000000001
aF26.100000000000001
aI10092000
aa(lp33
F24.890000000000001
aF25.68
aF25.100000000000001
aF25.25
aF25.25
aI5959600
aa(lp34
F24.359999999999999
aF25.100000000000001
aF24.59
aF25.059999999999999
aF25.059999999999999
aI5673700
aa(lp35
F24.5
aF25.09
aF24.510000000000002
aF24.609999999999999
aF24.609999999999999
aI4125200
aa(lp36
F24.600000000000001
aF25.25
aF25
aF24.780000000000001
aF24.780000000000001
aI3689700
aa(lp37
F24.300000000000001
aF25.239999999999998
aF24.800000000000001
aF25.079999999999998
aF25.079999999999998
aI5460300
aa(lp38
F24.800000000000001
aF25.91
aF25.350000000000001
aF25.010000000000002
aF25.010000000000002
aI8096500
aa(lp39
F24.91
aF25.899999999999999
aF25.100000000000001
aF25.449999999999999
aF25.449999999999999
aI7185500
aa(lp40
F24.5
aF26.059999999999999
aF25.530000000000001
aF25.469999999999999
aF25.469999999999999
aI9352300
aa(lp41
F24.800000000000001
aF25.690000000000001
aF25.16
aF25.300000000000001
aF25.300000000000001
aI7792500
aa(lp42
F24.399999999999999
aF25.559999999999999
aF24.600000000000001
aF25.140000000000001
aF25.140000000000001
aI12383000
aa(lp43
F25.289999999999999
aF26.93
aF26.879999999999999
aF25.899999999999999
aF25.899999999999999
aI19108400
aa(lp44
F22.550000000000001
aF24.890000000000001
aF22.550000000000001
aF24.890000000000001
aF24.890000000000001
aI14136400
aa(lp45
F22.199999999999999
aF22.850000000000001
aF22.68
aF22.629999999999999
aF22.629999999999999
aI8553400
aa(lp46
F22.09
aF22.789999999999999
aF22.100000000000001
aF22.5
aF22.5
aI7914400
aa(lp47
F21.5
aF22.32
aF21.75
aF21.890000000000001
aF21.890000000000001
aI7555300
aa(lp48
F21.699999999999999
aF23.489999999999998
aF23.120000000000001
aF21.75
aF21.75
aI15028700
aa(lp49
F21.600000000000001
aF24.879999999999999
aF21.699999999999999
aF23.59
aF23.59
aI21317800
aa(lp50
F22.510000000000002
aF23.870000000000001
aF23.870000000000001
aF22.82
aF22.82
aI29217400
aa(lp51
F22.350000000000001
aF22.350000000000001
aF22.350000000000001
aF22.350000000000001
aF22.350000000000001
aI825800
aa(lp52
F20.32
aF20.32
aF20.32
aF20.32
aF20.32
aI60300
aa(lp53
F18.469999999999999
aF18.469999999999999
aF18.469999999999999
aF18.469999999999999
aF18.469999999999999
aI14300
aa(lp54
F16.789999999999999
aF16.789999999999999
aF16.789999999999999
aF16.789999999999999
aF16.789999999999999
aI17800
aa(lp55
F12.720000000000001
aF15.26
aF12.720000000000001
aF15.26
aF15.26
aI42000
aa.