(lp1
(lp2
F33.5
aF34.990000000000002
aF34.890000000000001
aF34.039999999999999
aF34.039999999999999
aI10143300
aa(lp3
F34.299999999999997
aF35.490000000000002
aF34.649999999999999
aF34.560000000000002
aF34.560000000000002
aI9757900
aa(lp4
F34.509999999999998
aF36.399999999999999
aF35
aF34.829999999999998
aF34.829999999999998
aI15250900
aa(lp5
F32.909999999999997
aF36.280000000000001
aF33.299999999999997
aF35.689999999999998
aF35.689999999999998
aI19881200
aa(lp6
F30.780000000000001
aF33.469999999999999
aF32
aF33.409999999999997
aF33.409999999999997
aI16609700
aa(lp7
F31.68
aF33.68
aF33
aF32.189999999999998
aF32.189999999999998
aI4705300
aa(lp8
F32.439999999999998
aF34.490000000000002
aF34.265000000000001
aF32.950000000000003
aF15.975
aI8447000
aa(lp9
F33.625
aF34.75
aF33.625
aF34.140000000000001
aF16.552
aI9892500
aa(lp10
F33.390000000000001
aF35.049999999999997
aF35.049999999999997
aF33.619999999999997
aF16.300000000000001
aI9614300
aa(lp11
F66.109999999999999
aF70.5
aF67.030000000000001
aF70
aF33.938000000000002
aI6473700
aa(lp12
F132.58000000000001
aF132.58000000000001
aF132.58000000000001
aF132.58000000000001
aF64.278000000000006
aI0
aa(lp13
F130.72
aF134
aF132.40000000000001
aF132.58000000000001
aF64.278000000000006
aI4734400
aa(lp14
F126.86
aF130.16
aF126.86
aF128.69999999999999
aF62.396999999999998
aI2698900
aa(lp15
F126
aF132.44
aF132.44
aF126.64
aF61.398000000000003
aI4867200
aa(lp16
F130.46000000000001
aF135.09999999999999
aF131.56
aF132.97999999999999
aF64.471999999999994
aI3926400
aa(lp17
F128.75999999999999
aF131.69999999999999
aF130.84
aF130.59999999999999
aF63.317999999999998
aI3512000
aa(lp18
F132
aF135.97999999999999
aF135.91999999999999
aF133.44
aF64.694999999999993
aI3966200
aa(lp19
F134.5
aF139.30000000000001
aF134.5
aF135.88
aF65.878
aI4703700
aa(lp20
F126.40000000000001
aF134.53999999999999
aF126.59999999999999
aF133.75999999999999
aF64.849999999999994
aI3994000
aa(lp21
F125.59999999999999
aF131.02000000000001
aF130.90000000000001
aF126.81999999999999
aF61.485999999999997
aI3881700
aa(lp22
F129.02000000000001
aF132.58000000000001
aF130.81999999999999
aF131.12
aF63.57
aI3673000
aa(lp23
F123.73999999999999
aF130.91999999999999
aF125.04000000000001
aF128.75999999999999
aF62.426000000000002
aI3572300
aa(lp24
F127.2
aF134.53999999999999
aF134.53999999999999
aF127.38
aF61.756999999999998
aI4761300
aa(lp25
F133.75999999999999
aF139
aF138.63999999999999
aF134.62
aF65.266999999999996
aI5056000
aa(lp26
F137.44
aF141.40000000000001
aF139.40000000000001
aF138.59999999999999
aF67.197000000000003
aI5237000
aa(lp27
F134.03999999999999
aF139.58000000000001
aF135.16
aF138.28
aF67.042000000000002
aI5035000
aa(lp28
F129.56
aF138.68000000000001
aF137.97999999999999
aF135.94
aF65.906999999999996
aI5727900
aa(lp29
F134.13999999999999
aF143.69999999999999
aF142.03999999999999
aF137.08000000000001
aF66.459999999999994
aI7129900
aa(lp30
F132.24000000000001
aF139.94
aF132.31999999999999
aF139.78
aF67.769000000000005
aI7357400
aa(lp31
F131.13999999999999
aF131.13999999999999
aF131.13999999999999
aF131.13999999999999
aF63.579999999999998
aI0
aa(lp32
F128.03999999999999
aF131.34
aF129.40000000000001
aF131.13999999999999
aF63.579999999999998
aI5418300
aa(lp33
F127.59999999999999
aF133
aF129.5
aF130.08000000000001
aF63.066000000000003
aI5195700
aa(lp34
F123.04000000000001
aF131.18000000000001
aF123.59999999999999
aF129.06
aF62.572000000000003
aI7321000
aa(lp35
F122.81999999999999
aF125.06
aF124.22
aF123.76000000000001
aF60.002000000000002
aI4709600
aa(lp36
F123.58
aF127.16
aF124.42
aF124.2
aF60.215000000000003
aI5512300
aa(lp37
F123.16
aF125.94
aF123.40000000000001
aF124.68000000000001
aF60.448
aI4863400
aa(lp38
F123.76000000000001
aF131.90000000000001
aF131.59999999999999
aF123.98
aF60.109000000000002
aI10092700
aa(lp39
F131.30000000000001
aF143.75999999999999
aF138.12
aF131.58000000000001
aF63.792999999999999
aI15898200
aa(lp40
F122.04000000000001
aF135
aF123.8
aF134.63999999999999
aF65.277000000000001
aI9881700
aa(lp41
F116.62
aF127.26000000000001
aF116.62
aF124.59999999999999
aF60.408999999999999
aI6328000
aa(lp42
F112.40000000000001
aF116.95999999999999
aF114.22
aF116.23999999999999
aF56.356000000000002
aI3668400
aa(lp43
F111.2
aF115.7
aF112.76000000000001
aF115.28
aF55.890999999999998
aI5052800
aa(lp44
F108.84
aF113.95999999999999
aF109.86
aF112.94
aF54.756
aI4640700
aa(lp45
F106.06
aF109.92
aF107.09999999999999
aF109.44
aF53.058999999999997
aI5050400
aa(lp46
F105.56
aF107.2
aF106
aF107.06
aF51.905000000000001
aI3886400
aa(lp47
F103.7
aF107.94
aF105.92
aF105.59999999999999
aF51.198
aI3602200
aa(lp48
F100.09999999999999
aF107.95999999999999
aF100.12
aF104.66
aF50.741999999999997
aI6330300
aa(lp49
F99.599999999999994
aF102.68000000000001
aF102
aF100.3
aF48.628
aI3473600
aa(lp50
F100.44
aF104.31999999999999
aF101.7
aF102.76000000000001
aF49.820999999999998
aI4373100
aa(lp51
F100.14
aF104.88
aF101.02
aF101.52
aF49.219000000000001
aI6367400
aa(lp52
F94.659999999999997
aF101.7
aF95.420000000000002
aF101.04000000000001
aF48.987000000000002
aI7525000
aa(lp53
F93
aF94.760000000000005
aF94.400000000000006
aF94.560000000000002
aF45.844999999999999
aI2548900
aa(lp54
F93.840000000000003
aF95.140000000000001
aF94.400000000000006
aF94.819999999999993
aF45.970999999999997
aI2392100
aa(lp55
F94.319999999999993
aF97.180000000000007
aF95.099999999999994
aF94.620000000000005
aF45.874000000000002
aI4622300
aa(lp56
F93.599999999999994
aF95.879999999999995
aF93.939999999999998
aF95.680000000000007
aF46.387999999999998
aI3360100
aa(lp57
F93.140000000000001
aF94
aF93.900000000000006
aF93.400000000000006
aF45.283000000000001
aI1748700
aa(lp58
F91.599999999999994
aF94.159999999999997
aF92.299999999999997
aF93.840000000000003
aF45.496000000000002
aI1970800
aa(lp59
F92.180000000000007
aF94.579999999999998
aF94.299999999999997
aF92.200000000000003
aF44.701000000000001
aI1897100
aa(lp60
F93.959999999999994
aF93.959999999999994
aF93.959999999999994
aF93.959999999999994
aF45.554000000000002
aI0
aa(lp61
F93.959999999999994
aF93.959999999999994
aF93.959999999999994
aF93.959999999999994
aF45.554000000000002
aI0
aa(lp62
F93.959999999999994
aF93.959999999999994
aF93.959999999999994
aF93.959999999999994
aF45.554000000000002
aI0
aa(lp63
F93.959999999999994
aF93.959999999999994
aF93.959999999999994
aF93.959999999999994
aF45.554000000000002
aI0
aa(lp64
F93.959999999999994
aF93.959999999999994
aF93.959999999999994
aF93.959999999999994
aF45.554000000000002
aI0
aa(lp65
F92.359999999999999
aF94.159999999999997
aF93.5
aF93.959999999999994
aF45.554000000000002
aI2342500
aa(lp66
F91.840000000000003
aF94.359999999999999
aF91.840000000000003
aF93.560000000000002
aF45.359999999999999
aI2675800
aa(lp67
F91
aF92.599999999999994
aF91.659999999999997
aF91.739999999999995
aF44.478000000000002
aI3125900
aa(lp68
F87.920000000000002
aF92.640000000000001
aF87.920000000000002
aF91.260000000000005
aF44.244999999999997
aI3541300
aa(lp69
F87.579999999999998
aF88.400000000000006
aF87.959999999999994
aF87.920000000000002
aF42.625999999999998
aI1671200
aa(lp70
F87.060000000000002
aF88.140000000000001
aF87.239999999999995
aF87.920000000000002
aF42.625999999999998
aI1371400
aa(lp71
F86.700000000000003
aF88.400000000000006
aF86.799999999999997
aF87.5
aF42.421999999999997
aI1028500
aa(lp72
F87.299999999999997
aF89.900000000000006
aF89.900000000000006
aF87.420000000000002
aF42.383000000000003
aI2210000
aa(lp73
F89.5
aF91.599999999999994
aF91.019999999999996
aF90.040000000000006
aF43.654000000000003
aI2320200
aa(lp74
F90.099999999999994
aF93.299999999999997
aF93
aF90.140000000000001
aF43.701999999999998
aI3207700
aa(lp75
F90.780000000000001
aF92.920000000000002
aF91
aF92.780000000000001
aF44.981999999999999
aI2117100
aa(lp76
F90.480000000000004
aF91.980000000000004
aF91.560000000000002
aF90.780000000000001
aF44.012
aI1652600
aa(lp77
F92.019999999999996
aF94.560000000000002
aF93.640000000000001
aF92.180000000000007
aF44.691000000000003
aI1754700
aa(lp78
F92.400000000000006
aF94.700000000000003
aF93
aF93.780000000000001
aF45.466999999999999
aI2029000
aa(lp79
F93.060000000000002
aF94.359999999999999
aF94.219999999999999
aF93.640000000000001
aF45.399000000000001
aI2856900
aa(lp80
F94
aF97.680000000000007
aF97.599999999999994
aF95.040000000000006
aF46.078000000000003
aI4453300
aa(lp81
F95.420000000000002
aF98.560000000000002
aF95.420000000000002
aF97.340000000000003
aF47.192999999999998
aI4598900
aa(lp82
F94.659999999999997
aF97.599999999999994
aF95.079999999999998
aF95.560000000000002
aF46.329999999999998
aI6099100
aa(lp83
F93.760000000000005
aF95.060000000000002
aF95.060000000000002
aF94.439999999999998
aF45.786999999999999
aI3346500
aa(lp84
F93.420000000000002
aF95.959999999999994
aF93.799999999999997
aF95.060000000000002
aF46.088000000000001
aI6846900
aa(lp85
F88.739999999999995
aF94.659999999999997
aF88.780000000000001
aF94.019999999999996
aF45.582999999999998
aI8909900
aa(lp86
F84.599999999999994
aF91.599999999999994
aF88
aF86.379999999999995
aF41.878999999999998
aI4887000
aa(lp87
F87.560000000000002
aF91
aF87.659999999999997
aF89.200000000000003
aF43.246000000000002
aI3312600
aa(lp88
F87
aF88.939999999999998
aF87.640000000000001
aF87.840000000000003
aF42.587000000000003
aI2650400
aa(lp89
F87.799999999999997
aF91.760000000000005
aF90.840000000000003
aF87.980000000000004
aF42.655000000000001
aI3757200
aa(lp90
F89.799999999999997
aF91.920000000000002
aF91.819999999999993
aF90.920000000000002
aF44.079999999999998
aI4390800
aa(lp91
F87.299999999999997
aF91.959999999999994
aF87.400000000000006
aF91.819999999999993
aF44.517000000000003
aI6731800
aa(lp92
F88
aF91.760000000000005
aF89.299999999999997
aF88.079999999999998
aF42.703000000000003
aI6243400
aa(lp93
F85.280000000000001
aF91.659999999999997
aF85.599999999999994
aF90.5
aF43.877000000000002
aI6499000
aa(lp94
F85.420000000000002
aF87.620000000000005
aF87.620000000000005
aF86.159999999999997
aF41.773000000000003
aI2752300
aa(lp95
F84.019999999999996
aF87.760000000000005
aF84.980000000000004
aF87.659999999999997
aF42.5
aI4058200
aa(lp96
F81.799999999999997
aF86.959999999999994
aF83.180000000000007
aF85.480000000000004
aF41.442999999999998
aI3435900
aa(lp97
F84.060000000000002
aF84.060000000000002
aF84.060000000000002
aF84.060000000000002
aF40.753999999999998
aI0
aa(lp98
F84.060000000000002
aF84.060000000000002
aF84.060000000000002
aF84.060000000000002
aF40.753999999999998
aI0
aa(lp99
F82.920000000000002
aF84.5
aF83
aF84.060000000000002
aF40.753999999999998
aI1688900
aa(lp100
F83
aF86.200000000000003
aF85.620000000000005
aF83.379999999999995
aF40.424999999999997
aI2163700
aa(lp101
F85.359999999999999
aF87.319999999999993
aF87.319999999999993
aF85.459999999999994
aF41.433
aI2372200
aa(lp102
F85.560000000000002
aF88.260000000000005
aF86.359999999999999
aF87.540000000000006
aF42.442
aI2729800
aa(lp103
F85.079999999999998
aF87.019999999999996
aF86.599999999999994
aF86.739999999999995
aF42.054000000000002
aI3238600
aa(lp104
F83.760000000000005
aF87.980000000000004
aF84.019999999999996
aF87.219999999999999
aF42.286000000000001
aI4799600
aa(lp105
F79.739999999999995
aF83.599999999999994
aF79.760000000000005
aF83.140000000000001
aF40.308
aI3399200
aa(lp106
F79
aF82.659999999999997
aF82.659999999999997
aF79.760000000000005
aF38.670000000000002
aI3293000
aa(lp107
F81.400000000000006
aF86.299999999999997
aF86.280000000000001
aF83.040000000000006
aF40.259999999999998
aI4493300
aa(lp108
F85.920000000000002
aF87.579999999999998
aF86
aF86.340000000000003
aF41.859999999999999
aI2864300
aa(lp109
F85.599999999999994
aF89.159999999999997
aF89.040000000000006
aF85.900000000000006
aF41.646999999999998
aI5902200
aa(lp110
F89.760000000000005
aF90.819999999999993
aF90.620000000000005
aF89.780000000000001
aF43.527999999999999
aI3244200
aa(lp111
F90.040000000000006
aF92.400000000000006
aF90.939999999999998
aF91.879999999999995
aF44.545999999999999
aI2838300
aa(lp112
F89.340000000000003
aF91.599999999999994
aF90.599999999999994
aF91.319999999999993
aF44.274000000000001
aI2696100
aa(lp113
F88.5
aF91.099999999999994
aF88.799999999999997
aF90.680000000000007
aF43.963999999999999
aI3045200
aa(lp114
F86.599999999999994
aF90.159999999999997
aF87.200000000000003
aF89.359999999999999
aF43.323999999999998
aI3509500
aa(lp115
F87.239999999999995
aF93.519999999999996
aF93.519999999999996
aF87.420000000000002
aF42.383000000000003
aI7827400
aa(lp116
F92.659999999999997
aF95.439999999999998
aF93.599999999999994
aF93.799999999999997
aF45.476999999999997
aI4237400
aa(lp117
F93.959999999999994
aF97.400000000000006
aF96.900000000000006
aF94.319999999999993
aF45.728999999999999
aI6270500
aa(lp118
F97.400000000000006
aF99.379999999999995
aF98.859999999999999
aF97.579999999999998
aF47.308999999999997
aI5728100
aa(lp119
F95.599999999999994
aF98.560000000000002
aF97.599999999999994
aF98.340000000000003
aF47.677999999999997
aI6086300
aa(lp120
F95.140000000000001
aF99.099999999999994
aF95.599999999999994
aF97.579999999999998
aF47.308999999999997
aI6821500
aa(lp121
F93.920000000000002
aF96
aF95.599999999999994
aF95.280000000000001
aF46.194000000000003
aI4528400
aa(lp122
F95.040000000000006
aF98.299999999999997
aF98.299999999999997
aF96.040000000000006
aF46.563000000000002
aI5531400
aa(lp123
F96.840000000000003
aF99.540000000000006
aF97.400000000000006
aF97.920000000000002
aF47.473999999999997
aI5695400
aa(lp124
F95
aF97.060000000000002
aF96.099999999999994
aF96.480000000000004
aF46.776000000000003
aI4090700
aa(lp125
F94.599999999999994
aF98.5
aF98.5
aF95.900000000000006
aF46.494999999999997
aI7227000
aa(lp126
F97.599999999999994
aF100.52
aF99.400000000000006
aF98.439999999999998
aF47.725999999999999
aI6526400
aa(lp127
F97.560000000000002
aF99.900000000000006
aF97.560000000000002
aF98.799999999999997
aF47.901000000000003
aI5681900
aa(lp128
F97.219999999999999
aF99.299999999999997
aF97.980000000000004
aF97.819999999999993
aF47.426000000000002
aI4639100
aa(lp129
F97.599999999999994
aF101.72
aF100.7
aF99.079999999999998
aF48.036999999999999
aI6763800
aa(lp130
F98
aF101.3
aF98.859999999999999
aF100.94
aF48.938000000000002
aI7777100
aa(lp131
F93.980000000000004
aF100.59999999999999
aF95.599999999999994
aF98.480000000000004
aF47.746000000000002
aI7699100
aa(lp132
F93.299999999999997
aF99.939999999999998
aF98.579999999999998
aF96.060000000000002
aF46.572000000000003
aI9377200
aa(lp133
F95.640000000000001
aF102.66
aF96.959999999999994
aF99.939999999999998
aF48.453000000000003
aI14583600
aa(lp134
F90.819999999999993
aF99.859999999999999
aF91
aF98.420000000000002
aF47.716999999999999
aI12068700
aa(lp135
F91.239999999999995
aF95.920000000000002
aF95.819999999999993
aF91.319999999999993
aF44.274000000000001
aI8559500
aa(lp136
F93.239999999999995
aF95.840000000000003
aF93.319999999999993
aF95.359999999999999
aF46.232999999999997
aI6619300
aa(lp137
F92.900000000000006
aF99.920000000000002
aF97.219999999999999
aF93.480000000000004
aF45.320999999999998
aI13035200
aa(lp138
F94.060000000000002
aF97.959999999999994
aF94.620000000000005
aF97.200000000000003
aF47.125
aI8651700
aa(lp139
F93.599999999999994
aF97
aF95
aF94.920000000000002
aF46.020000000000003
aI6687300
aa(lp140
F92.640000000000001
aF96.599999999999994
aF93.700000000000003
aF95.920000000000002
aF46.503999999999998
aI8915700
aa(lp141
F92.599999999999994
aF97.5
aF92.939999999999998
aF93.620000000000005
aF45.389000000000003
aI12592700
aa(lp142
F87.319999999999993
aF94.760000000000005
aF87.799999999999997
aF93.640000000000001
aF45.399000000000001
aI16206000
aa(lp143
F85.200000000000003
aF87.859999999999999
aF85.560000000000002
aF86.200000000000003
aF41.792000000000002
aI8573300
aa(lp144
F85.200000000000003
aF87.040000000000006
aF86
aF85.599999999999994
aF41.500999999999998
aI9592000
aa(lp145
F81.019999999999996
aF85.519999999999996
aF82
aF85.319999999999993
aF41.365000000000002
aI8509500
aa(lp146
F80
aF82.019999999999996
aF82.019999999999996
aF80.799999999999997
aF39.173999999999999
aI3827500
aa(lp147
F81.900000000000006
aF84.299999999999997
aF83.420000000000002
aF82.379999999999995
aF39.939999999999998
aI6055600
aa(lp148
F83.319999999999993
aF86.859999999999999
aF85.480000000000004
aF83.400000000000006
aF40.433999999999997
aI7725100
aa(lp149
F84.060000000000002
aF87.980000000000004
aF84.140000000000001
aF84.900000000000006
aF41.161999999999999
aI10438100
aa(lp150
F82.099999999999994
aF85.159999999999997
aF82.239999999999995
aF84.040000000000006
aF40.744999999999997
aI9898400
aa(lp151
F82.079999999999998
aF83.599999999999994
aF82.900000000000006
aF82.420000000000002
aF39.959000000000003
aI6534600
aa(lp152
F78.719999999999999
aF82.959999999999994
aF78.819999999999993
aF82.359999999999999
aF39.93
aI10186500
aa(lp153
F78.719999999999999
aF80.200000000000003
aF79.120000000000005
aF78.939999999999998
aF38.271999999999998
aI3089400
aa(lp154
F78.640000000000001
aF79.959999999999994
aF79.5
aF79.659999999999997
aF38.621000000000002
aI3036300
aa(lp155
F79.239999999999995
aF80.799999999999997
aF80.099999999999994
aF79.620000000000005
aF38.601999999999997
aI3281700
aa(lp156
F78.400000000000006
aF80.400000000000006
aF79.400000000000006
aF80.299999999999997
aF38.930999999999997
aI3517300
aa(lp157
F79.599999999999994
aF80.680000000000007
aF80.480000000000004
aF79.840000000000003
aF38.707999999999998
aI3583100
aa(lp158
F79.799999999999997
aF81.459999999999994
aF81.459999999999994
aF80.780000000000001
aF39.164000000000001
aI4734000
aa(lp159
F80.599999999999994
aF81.739999999999995
aF80.599999999999994
aF81.180000000000007
aF39.357999999999997
aI4874500
aa(lp160
F80.239999999999995
aF80.239999999999995
aF80.239999999999995
aF80.239999999999995
aF38.902000000000001
aI0
aa(lp161
F80.239999999999995
aF80.239999999999995
aF80.239999999999995
aF80.239999999999995
aF38.902000000000001
aI0
aa(lp162
F80.239999999999995
aF80.239999999999995
aF80.239999999999995
aF80.239999999999995
aF38.902000000000001
aI0
aa(lp163
F80.239999999999995
aF80.239999999999995
aF80.239999999999995
aF80.239999999999995
aF38.902000000000001
aI0
aa(lp164
F80.239999999999995
aF80.239999999999995
aF80.239999999999995
aF80.239999999999995
aF38.902000000000001
aI0
aa(lp165
F79.120000000000005
aF80.540000000000006
aF79.400000000000006
aF80.239999999999995
aF38.902000000000001
aI4174000
aa(lp166
F78.200000000000003
aF79.859999999999999
aF78.340000000000003
aF79.079999999999998
aF38.340000000000003
aI4131100
aa(lp167
F77.400000000000006
aF78.980000000000004
aF78.879999999999995
aF77.819999999999993
aF37.728999999999999
aI5648700
aa(lp168
F79.180000000000007
aF81.159999999999997
aF81
aF79.340000000000003
aF38.466000000000001
aI7562100
aa(lp169
F79.819999999999993
aF82.719999999999999
aF80.299999999999997
aF81.120000000000005
aF39.329000000000001
aI7606100
aa(lp170
F79.799999999999997
aF81.379999999999995
aF80.560000000000002
aF80.359999999999999
aF38.960999999999999
aI6585900
aa(lp171
F79.620000000000005
aF82.560000000000002
aF82.560000000000002
aF80.299999999999997
aF38.930999999999997
aI9641400
aa(lp172
F81.840000000000003
aF83.560000000000002
aF82.599999999999994
aF82.859999999999999
aF40.173000000000002
aI7942700
aa(lp173
F81.560000000000002
aF84.519999999999996
aF83.180000000000007
aF82.159999999999997
aF39.832999999999998
aI16005300
aa(lp174
F85.599999999999994
aF93.319999999999993
aF87.120000000000005
aF85.659999999999997
aF41.530000000000001
aI24409800
aa(lp175
F83
aF87.359999999999999
aF84
aF86.859999999999999
aF42.112000000000002
aI25537800
aa(lp176
F82
aF86.420000000000002
aF86.420000000000002
aF86.420000000000002
aF41.899000000000001
aI45386100
aa(lp177
F78.560000000000002
aF78.560000000000002
aF78.560000000000002
aF78.560000000000002
aF38.088000000000001
aI488300
aa(lp178
F71.420000000000002
aF71.420000000000002
aF71.420000000000002
aF71.420000000000002
aF34.625999999999998
aI107800
aa(lp179
F64.920000000000002
aF64.920000000000002
aF64.920000000000002
aF64.920000000000002
aF31.475000000000001
aI84200
aa.