(lp1
(lp2
F21.449999999999999
aF23.5
aF21.739999999999998
aF23.190000000000001
aF23.190000000000001
aI14880200
aa(lp3
F20.02
aF21.879999999999999
aF20.149999999999999
aF21.739999999999998
aF21.739999999999998
aI10238200
aa(lp4
F19.800000000000001
aF20.739999999999998
aF20.050000000000001
aF20.32
aF20.32
aI6379800
aa(lp5
F19.27
aF20.059999999999999
aF19.48
aF19.920000000000002
aF19.920000000000002
aI4464700
aa(lp6
F18.550000000000001
aF19.379999999999999
aF18.760000000000002
aF19.260000000000002
aF19.260000000000002
aI3607000
aa(lp7
F18.059999999999999
aF18.469999999999999
aF18.100000000000001
aF18.460000000000001
aF18.460000000000001
aI2235800
aa(lp8
F17.77
aF19.489999999999998
aF19.199999999999999
aF17.949999999999999
aF17.949999999999999
aI2875800
aa(lp9
F19.109999999999999
aF20.18
aF19.77
aF19.280000000000001
aF19.280000000000001
aI1908000
aa(lp10
F19.66
aF20.350000000000001
aF20.300000000000001
aF19.870000000000001
aF19.719999999999999
aI2158300
aa(lp11
F20.02
aF20.5
aF20.199999999999999
aF20.280000000000001
aF20.129999999999999
aI2229100
aa(lp12
F20.199999999999999
aF20.199999999999999
aF20.199999999999999
aF20.199999999999999
aF20.050000000000001
aI0
aa(lp13
F19.899999999999999
aF20.510000000000002
aF20.489999999999998
aF20.199999999999999
aF20.050000000000001
aI2833500
aa(lp14
F19.899999999999999
aF20.5
aF19.940000000000001
aF20.48
aF20.329999999999998
aI2216000
aa(lp15
F19.829999999999998
aF21
aF20.940000000000001
aF19.890000000000001
aF19.739999999999998
aI4140700
aa(lp16
F20.370000000000001
aF21
aF20.649999999999999
aF20.940000000000001
aF20.780000000000001
aI4978500
aa(lp17
F20.5
aF21.030000000000001
aF20.699999999999999
aF20.789999999999999
aF20.629999999999999
aI4150700
aa(lp18
F20.629999999999999
aF21.34
aF21.18
aF21.02
aF20.859999999999999
aI5937300
aa(lp19
F20.449999999999999
aF21.239999999999998
aF20.510000000000002
aF21.129999999999999
aF20.969999999999999
aI6378200
aa(lp20
F19.710000000000001
aF20.66
aF20
aF20.609999999999999
aF20.449999999999999
aI4768400
aa(lp21
F20
aF20.84
aF20.760000000000002
aF20.030000000000001
aF19.879999999999999
aI5500200
aa(lp22
F20.530000000000001
aF21.390000000000001
aF20.93
aF21.039999999999999
aF20.879999999999999
aI6626100
aa(lp23
F20.010000000000002
aF21.399999999999999
aF20.010000000000002
aF20.91
aF20.75
aI7191400
aa(lp24
F21.390000000000001
aF23.210000000000001
aF21.5
aF21.77
aF21.609999999999999
aI15520200
aa(lp25
F20.52
aF21.329999999999998
aF21.329999999999998
aF21.329999999999998
aF21.170000000000002
aI12690900
aa(lp26
F19.390000000000001
aF19.390000000000001
aF19.390000000000001
aF19.390000000000001
aF19.239999999999998
aI0
aa(lp27
F18.809999999999999
aF19.489999999999998
aF18.850000000000001
aF19.390000000000001
aF19.239999999999998
aI2984200
aa(lp28
F18.780000000000001
aF19.600000000000001
aF19.600000000000001
aF18.969999999999999
aF18.829999999999998
aI4454800
aa(lp29
F19.329999999999998
aF20.43
aF20.399999999999999
aF19.609999999999999
aF19.460000000000001
aI5929500
aa(lp30
F19.899999999999999
aF20.629999999999999
aF20.23
aF20.43
aF20.280000000000001
aI6297900
aa(lp31
F20.219999999999999
aF20.219999999999999
aF20.219999999999999
aF20.219999999999999
aF20.07
aI0
aa(lp32
F19.670000000000002
aF20.800000000000001
aF19.75
aF20.219999999999999
aF20.07
aI6237400
aa(lp33
F19.609999999999999
aF20.059999999999999
aF19.629999999999999
aF19.960000000000001
aF19.809999999999999
aI6524400
aa(lp34
F19.469999999999999
aF19.75
aF19.600000000000001
aF19.609999999999999
aF19.460000000000001
aI4332000
aa(lp35
F19.190000000000001
aF19.68
aF19.52
aF19.620000000000001
aF19.469999999999999
aI4301600
aa(lp36
F19.109999999999999
aF19.989999999999998
aF19.52
aF19.469999999999999
aF19.32
aI5422500
aa(lp37
F19.449999999999999
aF20
aF19.829999999999998
aF19.899999999999999
aF19.75
aI7634900
aa(lp38
F19.399999999999999
aF20.300000000000001
aF19.82
aF19.84
aF19.690000000000001
aI10842800
aa(lp39
F18.18
aF20.219999999999999
aF18.190000000000001
aF20.010000000000002
aF19.859999999999999
aI16525700
aa(lp40
F17.699999999999999
aF18.829999999999998
aF18.829999999999998
aF18.379999999999999
aF18.239999999999998
aI5260700
aa(lp41
F18.600000000000001
aF18.93
aF18.84
aF18.789999999999999
aF18.649999999999999
aI4593400
aa(lp42
F18.379999999999999
aF18.870000000000001
aF18.379999999999999
aF18.82
aF18.68
aI7296100
aa(lp43
F17.91
aF18.449999999999999
aF18.399999999999999
aF18.34
aF18.199999999999999
aI4627200
aa(lp44
F17.899999999999999
aF18.300000000000001
aF17.920000000000002
aF18.27
aF18.129999999999999
aI4615700
aa(lp45
F17.609999999999999
aF17.940000000000001
aF17.670000000000002
aF17.899999999999999
aF17.760000000000002
aI3814800
aa(lp46
F17.350000000000001
aF17.670000000000002
aF17.420000000000002
aF17.66
aF17.530000000000001
aI2773500
aa(lp47
F17.100000000000001
aF17.289999999999999
aF17.149999999999999
aF17.260000000000002
aF17.129999999999999
aI1527800
aa(lp48
F17.039999999999999
aF17.239999999999998
aF17.109999999999999
aF17.109999999999999
aF16.98
aI1851600
aa(lp49
F17.050000000000001
aF17.57
aF17.460000000000001
aF17.140000000000001
aF17.010000000000002
aI2412300
aa(lp50
F17.43
aF17.690000000000001
aF17.579999999999998
aF17.48
aF17.350000000000001
aI1735900
aa(lp51
F17.359999999999999
aF17.690000000000001
aF17.420000000000002
aF17.579999999999998
aF17.449999999999999
aI1833200
aa(lp52
F17.469999999999999
aF17.870000000000001
aF17.84
aF17.539999999999999
aF17.41
aI1894700
aa(lp53
F17.68
aF18.100000000000001
aF17.989999999999998
aF17.84
aF17.710000000000001
aI2774000
aa(lp54
F17.800000000000001
aF18.149999999999999
aF18
aF17.98
aF17.84
aI3098900
aa(lp55
F17.449999999999999
aF18.559999999999999
aF17.550000000000001
aF18.149999999999999
aF18.010000000000002
aI7915700
aa(lp56
F17.010000000000002
aF17.699999999999999
aF17.449999999999999
aF17.66
aF17.530000000000001
aI3948700
aa(lp57
F17.23
aF17.489999999999998
aF17.23
aF17.390000000000001
aF17.260000000000002
aI1729000
aa(lp58
F17.100000000000001
aF17.43
aF17.43
aF17.370000000000001
aF17.239999999999998
aI1803100
aa(lp59
F17.010000000000002
aF17.620000000000001
aF17.190000000000001
aF17.390000000000001
aF17.260000000000002
aI2228800
aa(lp60
F17.170000000000002
aF17.170000000000002
aF17.170000000000002
aF17.170000000000002
aF17.039999999999999
aI0
aa(lp61
F17.170000000000002
aF17.170000000000002
aF17.170000000000002
aF17.170000000000002
aF17.039999999999999
aI0
aa(lp62
F17.170000000000002
aF17.170000000000002
aF17.170000000000002
aF17.170000000000002
aF17.039999999999999
aI0
aa(lp63
F17.170000000000002
aF17.170000000000002
aF17.170000000000002
aF17.170000000000002
aF17.039999999999999
aI0
aa(lp64
F17.170000000000002
aF17.170000000000002
aF17.170000000000002
aF17.170000000000002
aF17.039999999999999
aI0
aa(lp65
F17.09
aF17.449999999999999
aF17.309999999999999
aF17.170000000000002
aF17.039999999999999
aI1737600
aa(lp66
F17.100000000000001
aF17.449999999999999
aF17.149999999999999
aF17.309999999999999
aF17.18
aI1555800
aa(lp67
F17.140000000000001
aF17.350000000000001
aF17.23
aF17.199999999999999
aF17.07
aI1766800
aa(lp68
F16.809999999999999
aF17.239999999999998
aF16.809999999999999
aF17.07
aF16.940000000000001
aI1556500
aa(lp69
F16.68
aF17.079999999999998
aF16.690000000000001
aF16.949999999999999
aF16.82
aI1676400
aa(lp70
F16.57
aF16.789999999999999
aF16.75
aF16.68
aF16.550000000000001
aI1449300
aa(lp71
F16.390000000000001
aF16.84
aF16.579999999999998
aF16.670000000000002
aF16.539999999999999
aI1225400
aa(lp72
F16.510000000000002
aF17.489999999999998
aF17.390000000000001
aF16.710000000000001
aF16.579999999999998
aI3278700
aa(lp73
F17.350000000000001
aF18.059999999999999
aF17.920000000000002
aF17.370000000000001
aF17.239999999999998
aI2301500
aa(lp74
F17.800000000000001
aF18.199999999999999
aF18
aF17.800000000000001
aF17.670000000000002
aI2614800
aa(lp75
F17.82
aF18.25
aF17.969999999999999
aF18.100000000000001
aF17.960000000000001
aI2607300
aa(lp76
F17.210000000000001
aF18.140000000000001
aF17.600000000000001
aF17.890000000000001
aF17.75
aI2151400
aa(lp77
F17.57
aF18.280000000000001
aF17.850000000000001
aF17.800000000000001
aF17.670000000000002
aI3447100
aa(lp78
F17.91
aF18.760000000000002
aF18.66
aF17.969999999999999
aF17.829999999999998
aI3796300
aa(lp79
F18.579999999999998
aF19.100000000000001
aF18.949999999999999
aF18.760000000000002
aF18.620000000000001
aI3540800
aa(lp80
F18.539999999999999
aF19.16
aF18.899999999999999
aF18.949999999999999
aF18.809999999999999
aI4162900
aa(lp81
F18.579999999999998
aF19.079999999999998
aF19.02
aF18.84
aF18.699999999999999
aI4797700
aa(lp82
F19
aF19.66
aF19.600000000000001
aF19.059999999999999
aF18.920000000000002
aI8906900
aa(lp83
F18.359999999999999
aF20.030000000000001
aF18.449999999999999
aF19.98
aF19.829999999999998
aI15419100
aa(lp84
F18.449999999999999
aF19.620000000000001
aF19.329999999999998
aF18.809999999999999
aF18.670000000000002
aI14340900
aa(lp85
F17
aF18.989999999999998
aF17.280000000000001
aF18.989999999999998
aF18.850000000000001
aI15397400
aa(lp86
F16.710000000000001
aF18.350000000000001
aF17
aF17.260000000000002
aF17.129999999999999
aI7597300
aa(lp87
F16.91
aF17.649999999999999
aF16.91
aF17.309999999999999
aF17.18
aI6038100
aa(lp88
F17.239999999999998
aF17.850000000000001
aF17.25
aF17.309999999999999
aF17.18
aI4226000
aa(lp89
F17.18
aF17.98
aF17.600000000000001
aF17.219999999999999
aF17.09
aI4059500
aa(lp90
F17.039999999999999
aF18.379999999999999
aF17.289999999999999
aF17.82
aF17.690000000000001
aI4899800
aa(lp91
F17.600000000000001
aF18.420000000000002
aF17.699999999999999
aF17.82
aF17.690000000000001
aI4942500
aa(lp92
F17.57
aF18.41
aF17.75
aF17.75
aF17.620000000000001
aI7447500
aa(lp93
F18.16
aF19.719999999999999
aF18.489999999999998
aF18.449999999999999
aF18.309999999999999
aI9255100
aa(lp94
F18.460000000000001
aF19.5
aF19.02
aF18.98
aF18.84
aI12977700
aa(lp95
F16.629999999999999
aF18.739999999999998
aF16.879999999999999
aF18.739999999999998
aF18.600000000000001
aI7503300
aa(lp96
F16.530000000000001
aF17.260000000000002
aF17.199999999999999
aF17.039999999999999
aF16.91
aI4792800
aa(lp97
F17.420000000000002
aF17.420000000000002
aF17.420000000000002
aF17.420000000000002
aF17.289999999999999
aI0
aa(lp98
F17.420000000000002
aF17.420000000000002
aF17.420000000000002
aF17.420000000000002
aF17.289999999999999
aI0
aa(lp99
F17.399999999999999
aF18.550000000000001
aF18.539999999999999
aF17.420000000000002
aF17.289999999999999
aI7566400
aa(lp100
F17.960000000000001
aF19.699999999999999
aF19.280000000000001
aF18.18
aF18.039999999999999
aI10869500
aa(lp101
F17.120000000000001
aF19.760000000000002
aF17.850000000000001
aF19.719999999999999
aF19.57
aI14926800
aa(lp102
F18.100000000000001
aF18.890000000000001
aF18.100000000000001
aF18.23
aF18.09
aI11402900
aa(lp103
F18.809999999999999
aF20.48
aF19.890000000000001
aF19.280000000000001
aF19.129999999999999
aI17448000
aa(lp104
F17.559999999999999
aF18.899999999999999
aF17.559999999999999
aF18.899999999999999
aF18.760000000000002
aI10888400
aa(lp105
F14.99
aF17.18
aF15
aF17.18
aF17.050000000000001
aI10572600
aa(lp106
F15.619999999999999
aF17
aF17
aF15.619999999999999
aF15.5
aI6642900
aa(lp107
F17.27
aF19
aF19
aF17.359999999999999
aF17.23
aI9694200
aa(lp108
F19.129999999999999
aF20.23
aF20
aF19.190000000000001
aF19.050000000000001
aI8202900
aa(lp109
F19.629999999999999
aF20.760000000000002
aF19.800000000000001
aF20.120000000000001
aF19.969999999999999
aI8962300
aa(lp110
F20.050000000000001
aF20.559999999999999
aF20.199999999999999
aF20.219999999999999
aF20.07
aI12833400
aa(lp111
F21.460000000000001
aF23.5
aF23.489999999999998
aF21.510000000000002
aF21.350000000000001
aI20771500
aa(lp112
F21
aF23.84
aF21.41
aF23.84
aF23.66
aI23788700
aa(lp113
F20.510000000000002
aF21.670000000000002
aF21.670000000000002
aF21.670000000000002
aF21.510000000000002
aI23518600
aa(lp114
F19.699999999999999
aF19.699999999999999
aF19.699999999999999
aF19.699999999999999
aF19.550000000000001
aI550000
aa(lp115
F17.91
aF17.91
aF17.91
aF17.91
aF17.77
aI297800
aa(lp116
F16.280000000000001
aF16.280000000000001
aF16.280000000000001
aF16.280000000000001
aF16.16
aI160500
aa(lp117
F14.800000000000001
aF14.800000000000001
aF14.800000000000001
aF14.800000000000001
aF14.69
aI106100
aa(lp118
F13.449999999999999
aF13.449999999999999
aF13.449999999999999
aF13.449999999999999
aF13.35
aI15200
aa(lp119
F12.23
aF12.23
aF12.23
aF12.23
aF12.140000000000001
aI29100
aa(lp120
F11.119999999999999
aF11.119999999999999
aF11.119999999999999
aF11.119999999999999
aF11.039999999999999
aI16200
aa(lp121
F10.109999999999999
aF10.109999999999999
aF10.109999999999999
aF10.109999999999999
aF10.029999999999999
aI13500
aa(lp122
F9.1899999999999995
aF9.1899999999999995
aF9.1899999999999995
aF9.1899999999999995
aF9.1199999999999992
aI12200
aa(lp123
F8.3499999999999996
aF8.3499999999999996
aF8.3499999999999996
aF8.3499999999999996
aF8.2899999999999991
aI84500
aa.