(lp1
(lp2
F57.880000000000003
aF57.880000000000003
aF57.880000000000003
aF57.880000000000003
aF57.880000000000003
aI0
aa(lp3
F53.619999999999997
aF57.880000000000003
aF53.640000000000001
aF57.880000000000003
aF57.880000000000003
aI8891700
aa(lp4
F46.799999999999997
aF53.090000000000003
aF48.950000000000003
aF52.619999999999997
aF52.619999999999997
aI7497700
aa(lp5
F46.549999999999997
aF49.490000000000002
aF47.149999999999999
aF48.799999999999997
aF48.799999999999997
aI8511600
aa(lp6
F43.270000000000003
aF47.289999999999999
aF43.280000000000001
aF47.109999999999999
aF47.109999999999999
aI7528200
aa(lp7
F40.359999999999999
aF43.549999999999997
aF41
aF43
aF43
aI5847100
aa(lp8
F40.100000000000001
aF42.189999999999998
aF42.189999999999998
aF40.310000000000002
aF40.310000000000002
aI5494800
aa(lp9
F41.289999999999999
aF44.469999999999999
aF41.799999999999997
aF42.210000000000001
aF42.210000000000001
aI10201700
aa(lp10
F39.979999999999997
aF42.520000000000003
aF41.43
aF41.990000000000002
aF41.990000000000002
aI8367700
aa(lp11
F41.109999999999999
aF44.799999999999997
aF42.18
aF41.409999999999997
aF41.409999999999997
aI11132400
aa(lp12
F41.609999999999999
aF41.609999999999999
aF41.609999999999999
aF41.609999999999999
aF41.609999999999999
aI0
aa(lp13
F39.350000000000001
aF42.850000000000001
aF40.68
aF41.609999999999999
aF41.609999999999999
aI14632500
aa(lp14
F35.509999999999998
aF39.32
aF36.299999999999997
aF38.950000000000003
aF38.950000000000003
aI8705800
aa(lp15
F35.280000000000001
aF38.280000000000001
aF37.880000000000003
aF36.130000000000003
aF36.130000000000003
aI7678500
aa(lp16
F37
aF39
aF38.479999999999997
aF37.799999999999997
aF37.799999999999997
aI10422300
aa(lp17
F33.630000000000003
aF38.57
aF34.149999999999999
aF38.57
aF38.57
aI14832500
aa(lp18
F34.710000000000001
aF35.990000000000002
aF35
aF35.060000000000002
aF35.060000000000002
aI7358400
aa(lp19
F33.310000000000002
aF35.869999999999997
aF33.409999999999997
aF34.93
aF34.93
aI6792800
aa(lp20
F32.020000000000003
aF33.600000000000001
aF32.020000000000003
aF33.520000000000003
aF33.520000000000003
aI5306400
aa(lp21
F32.149999999999999
aF34.960000000000001
aF34.600000000000001
aF32.200000000000003
aF32.200000000000003
aI8968800
aa(lp22
F34.560000000000002
aF36.270000000000003
aF35.729999999999997
aF34.590000000000003
aF34.590000000000003
aI7906300
aa(lp23
F33.5
aF35.880000000000003
aF35
aF35.210000000000001
aF35.210000000000001
aI7839300
aa(lp24
F35.020000000000003
aF37.439999999999998
aF35.75
aF35.219999999999999
aF35.219999999999999
aI12134100
aa(lp25
F34.049999999999997
aF36.659999999999997
aF34.079999999999998
aF35.75
aF35.75
aI11810700
aa(lp26
F33.420000000000002
aF36.280000000000001
aF33.950000000000003
aF34.840000000000003
aF34.840000000000003
aI15656600
aa(lp27
F29.879999999999999
aF33.289999999999999
aF30.120000000000001
aF33.289999999999999
aF33.289999999999999
aI12261900
aa(lp28
F29.129999999999999
aF30.68
aF30.68
aF30.260000000000002
aF30.260000000000002
aI8001300
aa(lp29
F30.120000000000001
aF31.800000000000001
aF31.800000000000001
aF30.859999999999999
aF30.859999999999999
aI8989200
aa(lp30
F30.809999999999999
aF31.899999999999999
aF31.199999999999999
aF31.620000000000001
aF31.620000000000001
aI10139900
aa(lp31
F31.260000000000002
aF31.260000000000002
aF31.260000000000002
aF31.260000000000002
aF31.260000000000002
aI0
aa(lp32
F29.300000000000001
aF31.550000000000001
aF29.449999999999999
aF31.260000000000002
aF31.260000000000002
aI12793900
aa(lp33
F29
aF29.780000000000001
aF29.309999999999999
aF29.73
aF29.73
aI9462400
aa(lp34
F28.359999999999999
aF29.370000000000001
aF28.460000000000001
aF29.23
aF29.23
aI8815800
aa(lp35
F28.350000000000001
aF28.82
aF28.629999999999999
aF28.5
aF28.5
aI5679000
aa(lp36
F28.329999999999998
aF29.16
aF28.710000000000001
aF28.609999999999999
aF28.609999999999999
aI6098000
aa(lp37
F28.5
aF28.949999999999999
aF28.850000000000001
aF28.690000000000001
aF28.690000000000001
aI5089500
aa(lp38
F28.399999999999999
aF29.440000000000001
aF29.100000000000001
aF28.710000000000001
aF28.710000000000001
aI8494300
aa(lp39
F27.969999999999999
aF29.870000000000001
aF28.379999999999999
aF29.59
aF29.59
aI12627100
aa(lp40
F27.57
aF29.350000000000001
aF29.350000000000001
aF28.43
aF28.43
aI11759400
aa(lp41
F28.850000000000001
aF29.850000000000001
aF28.859999999999999
aF29.199999999999999
aF29.199999999999999
aI10367400
aa(lp42
F28.07
aF29.27
aF28.199999999999999
aF28.84
aF28.84
aI10616200
aa(lp43
F27.850000000000001
aF28.300000000000001
aF28.280000000000001
aF28.199999999999999
aF28.199999999999999
aI8845900
aa(lp44
F27.710000000000001
aF28.600000000000001
aF27.800000000000001
aF28.280000000000001
aF28.280000000000001
aI10780100
aa(lp45
F27.399999999999999
aF28.120000000000001
aF27.879999999999999
aF27.84
aF27.84
aI11134900
aa(lp46
F26.370000000000001
aF27.899999999999999
aF26.370000000000001
aF27.710000000000001
aF27.710000000000001
aI14912100
aa(lp47
F25.25
aF26.149999999999999
aF25.25
aF25.969999999999999
aF25.969999999999999
aI8026000
aa(lp48
F25.18
aF26.18
aF26.16
aF25.289999999999999
aF25.289999999999999
aI12635200
aa(lp49
F26.010000000000002
aF26.780000000000001
aF26.09
aF26.190000000000001
aF26.190000000000001
aI9888800
aa(lp50
F25.609999999999999
aF26.559999999999999
aF25.84
aF26.239999999999998
aF26.239999999999998
aI12693700
aa(lp51
F25.600000000000001
aF26.969999999999999
aF26.760000000000002
aF25.989999999999998
aF25.989999999999998
aI21997600
aa(lp52
F27.890000000000001
aF32.659999999999997
aF31.800000000000001
aF28.07
aF28.07
aI36754000
aa(lp53
F27.5
aF30.48
aF28
aF30.48
aF30.48
aI32458200
aa(lp54
F27.710000000000001
aF27.710000000000001
aF27.710000000000001
aF27.710000000000001
aF27.710000000000001
aI7183900
aa(lp55
F25.190000000000001
aF25.190000000000001
aF25.190000000000001
aF25.190000000000001
aF25.190000000000001
aI337600
aa(lp56
F22.899999999999999
aF22.899999999999999
aF22.899999999999999
aF22.899999999999999
aF22.899999999999999
aI57300
aa(lp57
F20.82
aF20.82
aF20.82
aF20.82
aF20.82
aI24300
aa(lp58
F18.93
aF18.93
aF18.93
aF18.93
aF18.93
aI19600
aa(lp59
F17.210000000000001
aF17.210000000000001
aF17.210000000000001
aF17.210000000000001
aF17.210000000000001
aI60400
aa.