(lp1
(lp2
F46.600000000000001
aF53.450000000000003
aF49.990000000000002
aF50.469999999999999
aF50.469999999999999
aI5053300
aa(lp3
F43.82
aF48.710000000000001
aF44.850000000000001
aF48.710000000000001
aF48.710000000000001
aI4221000
aa(lp4
F42
aF45.770000000000003
aF42.130000000000003
aF44.280000000000001
aF44.280000000000001
aI3479000
aa(lp5
F41.600000000000001
aF44.530000000000001
aF43.18
aF43.200000000000003
aF43.200000000000003
aI3725600
aa(lp6
F39.770000000000003
aF43.399999999999999
aF40.060000000000002
aF43.189999999999998
aF43.189999999999998
aI4474200
aa(lp7
F37.689999999999998
aF39.780000000000001
aF38.030000000000001
aF39.68
aF39.68
aI2956100
aa(lp8
F36.75
aF38.5
aF38.140000000000001
aF37.43
aF37.43
aI2465900
aa(lp9
F37.600000000000001
aF41.299999999999997
aF39.549999999999997
aF38.299999999999997
aF38.299999999999997
aI3571500
aa(lp10
F39.009999999999998
aF41.880000000000003
aF41.299999999999997
aF39.649999999999999
aF39.649999999999999
aI3447500
aa(lp11
F38.350000000000001
aF42.909999999999997
aF39.060000000000002
aF42
aF42
aI5487400
aa(lp12
F39.539999999999999
aF39.539999999999999
aF39.539999999999999
aF39.539999999999999
aF39.539999999999999
aI0
aa(lp13
F38.509999999999998
aF41.990000000000002
aF39.5
aF39.539999999999999
aF39.539999999999999
aI7983300
aa(lp14
F35.200000000000003
aF38.920000000000002
aF35.299999999999997
aF38.920000000000002
aF38.920000000000002
aI7051500
aa(lp15
F35.009999999999998
aF37.530000000000001
aF36.850000000000001
aF35.380000000000003
aF35.380000000000003
aI3888000
aa(lp16
F35.549999999999997
aF36.93
aF36.090000000000003
aF36.509999999999998
aF36.509999999999998
aI5109300
aa(lp17
F34.090000000000003
aF35.600000000000001
aF34.560000000000002
aF35.549999999999997
aF35.549999999999997
aI3270500
aa(lp18
F34.57
aF35.590000000000003
aF35.350000000000001
aF35.100000000000001
aF35.100000000000001
aI3173300
aa(lp19
F34.82
aF35.950000000000003
aF35.100000000000001
aF35.350000000000001
aF35.350000000000001
aI3771600
aa(lp20
F33.310000000000002
aF34.829999999999998
aF33.710000000000001
aF34.799999999999997
aF34.799999999999997
aI2655000
aa(lp21
F33.399999999999999
aF34.950000000000003
aF34.009999999999998
aF33.460000000000001
aF33.460000000000001
aI3160500
aa(lp22
F33.780000000000001
aF34.939999999999998
aF34.939999999999998
aF33.969999999999999
aF33.969999999999999
aI4187000
aa(lp23
F33.310000000000002
aF34.649999999999999
aF33.649999999999999
aF34.100000000000001
aF34.100000000000001
aI2234500
aa(lp24
F33.609999999999999
aF35.990000000000002
aF35.75
aF33.659999999999997
aF33.659999999999997
aI3234700
aa(lp25
F35.210000000000001
aF36.780000000000001
aF36.299999999999997
aF35.68
aF35.68
aI3946300
aa(lp26
F34.5
aF37.549999999999997
aF34.859999999999999
aF36.509999999999998
aF36.509999999999998
aI6131900
aa(lp27
F33.670000000000002
aF35.350000000000001
aF33.960000000000001
aF34.82
aF34.82
aI3945000
aa(lp28
F32.850000000000001
aF34.850000000000001
aF34.649999999999999
aF34.25
aF34.25
aI4116500
aa(lp29
F33.649999999999999
aF36.369999999999997
aF35.509999999999998
aF34.990000000000002
aF34.990000000000002
aI5139300
aa(lp30
F34.329999999999998
aF35.619999999999997
aF35.030000000000001
aF35.18
aF35.18
aI5587100
aa(lp31
F35.030000000000001
aF35.030000000000001
aF35.030000000000001
aF35.030000000000001
aF35.030000000000001
aI0
aa(lp32
F33.5
aF35.299999999999997
aF33.789999999999999
aF35.030000000000001
aF35.030000000000001
aI8240600
aa(lp33
F33.329999999999998
aF35.350000000000001
aF33.850000000000001
aF34.270000000000003
aF34.270000000000003
aI7025000
aa(lp34
F32.82
aF33.789999999999999
aF33.18
aF33.729999999999997
aF33.729999999999997
aI6981800
aa(lp35
F31.079999999999998
aF34.859999999999999
aF31.699999999999999
aF33.82
aF33.82
aI10704600
aa(lp36
F31.530000000000001
aF32.700000000000003
aF31.699999999999999
aF31.710000000000001
aF31.710000000000001
aI10024400
aa(lp37
F29.010000000000002
aF33.619999999999997
aF30.620000000000001
aF33.43
aF33.43
aI16371900
aa(lp38
F30.620000000000001
aF30.620000000000001
aF30.620000000000001
aF30.620000000000001
aF30.620000000000001
aI182700
aa(lp39
F27.84
aF27.84
aF27.84
aF27.84
aF27.84
aI30300
aa(lp40
F25.309999999999999
aF25.309999999999999
aF25.309999999999999
aF25.309999999999999
aF25.309999999999999
aI19800
aa(lp41
F23.010000000000002
aF23.010000000000002
aF23.010000000000002
aF23.010000000000002
aF23.010000000000002
aI12000
aa(lp42
F20.920000000000002
aF20.920000000000002
aF20.920000000000002
aF20.920000000000002
aF20.920000000000002
aI33100
aa.