(lp1
(lp2
F41.5
aF46
aF44
aF43.259999999999998
aF43.259999999999998
aI5773300
aa(lp3
F39.850000000000001
aF44.530000000000001
aF40.020000000000003
aF44.530000000000001
aF44.530000000000001
aI6275900
aa(lp4
F39.079999999999998
aF41.68
aF39.829999999999998
aF40.479999999999997
aF40.479999999999997
aI4427200
aa(lp5
F39.350000000000001
aF41.380000000000003
aF41.240000000000002
aF40.640000000000001
aF40.640000000000001
aI7027800
aa(lp6
F41
aF42.859999999999999
aF42.840000000000003
aF41.659999999999997
aF41.659999999999997
aI7023000
aa(lp7
F39.700000000000003
aF43.479999999999997
aF39.810000000000002
aF42.439999999999998
aF42.439999999999998
aI5345100
aa(lp8
F37.640000000000001
aF41.140000000000001
aF38.600000000000001
aF40.450000000000003
aF40.450000000000003
aI5041600
aa(lp9
F38
aF42.600000000000001
aF38.899999999999999
aF39.640000000000001
aF39.640000000000001
aI7432000
aa(lp10
F36.560000000000002
aF41.149999999999999
aF38.990000000000002
aF39.729999999999997
aF39.729999999999997
aI7974100
aa(lp11
F33.060000000000002
aF37.490000000000002
aF34.119999999999997
aF37.490000000000002
aF37.490000000000002
aI7786600
aa(lp12
F34.079999999999998
aF34.079999999999998
aF34.079999999999998
aF34.079999999999998
aF34.079999999999998
aI0
aa(lp13
F32.399999999999999
aF35.859999999999999
aF32.490000000000002
aF34.079999999999998
aF34.079999999999998
aI8990300
aa(lp14
F31.109999999999999
aF32.670000000000002
aF31.300000000000001
aF32.600000000000001
aF32.600000000000001
aI2054500
aa(lp15
F31.309999999999999
aF32.740000000000002
aF32.689999999999998
aF31.600000000000001
aF31.600000000000001
aI2608000
aa(lp16
F32.229999999999997
aF33.200000000000003
aF32.619999999999997
aF32.780000000000001
aF32.780000000000001
aI3690400
aa(lp17
F31.030000000000001
aF32.670000000000002
aF31.25
aF32.539999999999999
aF32.539999999999999
aI3691500
aa(lp18
F31.41
aF31.93
aF31.91
aF31.739999999999998
aF31.739999999999998
aI2226300
aa(lp19
F31.329999999999998
aF32.170000000000002
aF31.329999999999998
aF31.879999999999999
aF31.879999999999999
aI2535100
aa(lp20
F30.300000000000001
aF31.489999999999998
aF30.370000000000001
aF31.32
aF31.32
aI1930400
aa(lp21
F30.34
aF31.780000000000001
aF31.780000000000001
aF30.370000000000001
aF30.370000000000001
aI2644600
aa(lp22
F31.699999999999999
aF32.799999999999997
aF32.399999999999999
aF31.75
aF31.75
aI2698300
aa(lp23
F31.460000000000001
aF32.990000000000002
aF32.350000000000001
aF32.119999999999997
aF32.119999999999997
aI1983400
aa(lp24
F32.399999999999999
aF34.5
aF34.5
aF32.420000000000002
aF32.420000000000002
aI3481400
aa(lp25
F32.700000000000003
aF35.189999999999998
aF33.189999999999998
aF35.049999999999997
aF35.049999999999997
aI5234700
aa(lp26
F32.210000000000001
aF34.140000000000001
aF33.079999999999998
aF33.390000000000001
aF33.390000000000001
aI4943300
aa(lp27
F31.699999999999999
aF33.659999999999997
aF31.989999999999998
aF33.149999999999999
aF33.149999999999999
aI5150700
aa(lp28
F31.170000000000002
aF33.200000000000003
aF32.640000000000001
aF32.149999999999999
aF32.149999999999999
aI3613300
aa(lp29
F31
aF33.229999999999997
aF32.5
aF33.130000000000003
aF33.130000000000003
aI5470200
aa(lp30
F31.710000000000001
aF32.880000000000003
aF32
aF32.740000000000002
aF32.740000000000002
aI5640900
aa(lp31
F33.119999999999997
aF33.119999999999997
aF33.119999999999997
aF33.119999999999997
aF33.119999999999997
aI0
aa(lp32
F31
aF33.899999999999999
aF32.210000000000001
aF33.119999999999997
aF33.119999999999997
aI9668300
aa(lp33
F28.809999999999999
aF32.210000000000001
aF29
aF32.210000000000001
aF32.210000000000001
aI5859000
aa(lp34
F28.5
aF29.969999999999999
aF28.5
aF29.280000000000001
aF29.280000000000001
aI6118300
aa(lp35
F27.800000000000001
aF28.98
aF28
aF28.75
aF28.75
aI6586400
aa(lp36
F28.030000000000001
aF30.300000000000001
aF28.420000000000002
aF29.079999999999998
aF29.079999999999998
aI10627700
aa(lp37
F27
aF28.760000000000002
aF28.5
aF28.07
aF28.07
aI13447000
aa(lp38
F27.050000000000001
aF27.050000000000001
aF27.050000000000001
aF27.050000000000001
aF27.050000000000001
aI244200
aa(lp39
F24.59
aF24.59
aF24.59
aF24.59
aF24.59
aI65400
aa(lp40
F22.350000000000001
aF22.350000000000001
aF22.350000000000001
aF22.350000000000001
aF22.350000000000001
aI47000
aa(lp41
F20.32
aF20.32
aF20.32
aF20.32
aF20.32
aI13400
aa(lp42
F18.469999999999999
aF18.469999999999999
aF18.469999999999999
aF18.469999999999999
aF18.469999999999999
aI6600
aa(lp43
F13.99
aF16.789999999999999
aF13.99
aF16.789999999999999
aF16.789999999999999
aI32000
aa.