(lp1
(lp2
F41.5
aF45.520000000000003
aF43.039999999999999
aF44.469999999999999
aF44.469999999999999
aI3872300
aa(lp3
F39.880000000000003
aF43.979999999999997
aF40.200000000000003
aF43.039999999999999
aF43.039999999999999
aI4245800
aa(lp4
F39.619999999999997
aF40.93
aF40.189999999999998
aF40.280000000000001
aF40.280000000000001
aI3607900
aa(lp5
F38.310000000000002
aF41.700000000000003
aF38.799999999999997
aF40.939999999999998
aF40.939999999999998
aI6204300
aa(lp6
F36.119999999999997
aF38.979999999999997
aF36.649999999999999
aF38.649999999999999
aF38.649999999999999
aI4737800
aa(lp7
F35.020000000000003
aF36.060000000000002
aF35.020000000000003
aF36.060000000000002
aF36.060000000000002
aI2450300
aa(lp8
F34.659999999999997
aF36.469999999999999
aF36
aF34.689999999999998
aF34.689999999999998
aI2330800
aa(lp9
F35.619999999999997
aF37.5
aF36
aF36.060000000000002
aF36.060000000000002
aI3351400
aa(lp10
F35.409999999999997
aF36.780000000000001
aF36.780000000000001
aF36.030000000000001
aF36.030000000000001
aI2212700
aa(lp11
F35.600000000000001
aF37.079999999999998
aF36.659999999999997
aF36.780000000000001
aF36.780000000000001
aI2549400
aa(lp12
F36.659999999999997
aF36.659999999999997
aF36.659999999999997
aF36.659999999999997
aF36.659999999999997
aI0
aa(lp13
F36.299999999999997
aF38.789999999999999
aF37
aF36.659999999999997
aF36.659999999999997
aI4061400
aa(lp14
F35
aF36.68
aF35.5
aF36.149999999999999
aF36.149999999999999
aI3482700
aa(lp15
F35
aF37.090000000000003
aF37.090000000000003
aF35.140000000000001
aF35.140000000000001
aI4200600
aa(lp16
F36.380000000000003
aF37.960000000000001
aF37.710000000000001
aF37.119999999999997
aF37.119999999999997
aI4221100
aa(lp17
F36.009999999999998
aF37.979999999999997
aF36.009999999999998
aF37.219999999999999
aF37.219999999999999
aI5256200
aa(lp18
F35.259999999999998
aF38
aF35.899999999999999
aF37.009999999999998
aF37.009999999999998
aI6876900
aa(lp19
F34.780000000000001
aF36.5
aF35.299999999999997
aF36.009999999999998
aF36.009999999999998
aI9553000
aa(lp20
F31.789999999999999
aF33.740000000000002
aF31.789999999999999
aF33.740000000000002
aF33.740000000000002
aI5792900
aa(lp21
F30
aF32.200000000000003
aF31.780000000000001
aF30.670000000000002
aF30.670000000000002
aI3123800
aa(lp22
F31.43
aF32.259999999999998
aF31.899999999999999
aF31.82
aF31.82
aI2597900
aa(lp23
F30.800000000000001
aF32.020000000000003
aF31
aF31.760000000000002
aF31.760000000000002
aI2179500
aa(lp24
F31.600000000000001
aF33.049999999999997
aF33.049999999999997
aF31.620000000000001
aF31.620000000000001
aI2990100
aa(lp25
F33
aF33.729999999999997
aF33.5
aF33.100000000000001
aF33.100000000000001
aI3135200
aa(lp26
F32
aF34.57
aF32
aF33.899999999999999
aF33.899999999999999
aI6103000
aa(lp27
F30.420000000000002
aF31.780000000000001
aF30.829999999999998
aF31.670000000000002
aF31.670000000000002
aI2920600
aa(lp28
F29.899999999999999
aF31.579999999999998
aF31.52
aF30.870000000000001
aF30.870000000000001
aI2674000
aa(lp29
F31.100000000000001
aF32.600000000000001
aF32.479999999999997
aF31.469999999999999
aF31.469999999999999
aI3579400
aa(lp30
F31.170000000000002
aF32.299999999999997
aF31.170000000000002
aF32.140000000000001
aF32.140000000000001
aI4522800
aa(lp31
F31.170000000000002
aF31.170000000000002
aF31.170000000000002
aF31.170000000000002
aF31.170000000000002
aI0
aa(lp32
F30.350000000000001
aF31.289999999999999
aF30.68
aF31.170000000000002
aF31.170000000000002
aI3839200
aa(lp33
F30.359999999999999
aF31.329999999999998
aF30.359999999999999
aF30.960000000000001
aF30.960000000000001
aI3844300
aa(lp34
F29.550000000000001
aF30.75
aF30.489999999999998
aF30.579999999999998
aF30.579999999999998
aI4959200
aa(lp35
F31
aF32.299999999999997
aF32.100000000000001
aF31.050000000000001
aF31.050000000000001
aI3229300
aa(lp36
F31.300000000000001
aF32.289999999999999
aF31.300000000000001
aF31.829999999999998
aF31.829999999999998
aI3626000
aa(lp37
F29.93
aF30.870000000000001
aF30.199999999999999
aF30.850000000000001
aF30.850000000000001
aI2267000
aa(lp38
F29.649999999999999
aF30.59
aF30.5
aF30.199999999999999
aF30.199999999999999
aI2564800
aa(lp39
F28.850000000000001
aF31
aF28.93
aF30.73
aF30.73
aI5331300
aa(lp40
F28.120000000000001
aF29.370000000000001
aF29.260000000000002
aF28.850000000000001
aF28.850000000000001
aI2437200
aa(lp41
F28.829999999999998
aF29.239999999999998
aF29.050000000000001
aF29.170000000000002
aF29.170000000000002
aI2553200
aa(lp42
F28.780000000000001
aF29.350000000000001
aF29.25
aF29.09
aF29.09
aI2257000
aa(lp43
F28.66
aF29.350000000000001
aF28.850000000000001
aF29.25
aF29.25
aI2948100
aa(lp44
F28.030000000000001
aF29
aF28.199999999999999
aF28.98
aF28.98
aI3247100
aa(lp45
F27.91
aF28.550000000000001
aF28.5
aF28.210000000000001
aF28.210000000000001
aI2000200
aa(lp46
F27.75
aF28.460000000000001
aF28.010000000000002
aF28.359999999999999
aF28.359999999999999
aI1630000
aa(lp47
F27.109999999999999
aF27.780000000000001
aF27.210000000000001
aF27.75
aF27.75
aI782700
aa(lp48
F26.91
aF27.43
aF27.280000000000001
aF27
aF27
aI988500
aa(lp49
F27.199999999999999
aF27.809999999999999
aF27.68
aF27.260000000000002
aF27.260000000000002
aI967700
aa(lp50
F27.5
aF27.98
aF27.98
aF27.620000000000001
aF27.620000000000001
aI1408400
aa(lp51
F27.600000000000001
aF28.079999999999998
aF28.079999999999998
aF27.890000000000001
aF27.890000000000001
aI824100
aa(lp52
F27.600000000000001
aF28.260000000000002
aF27.789999999999999
aF28.07
aF28.07
aI1064100
aa(lp53
F27.699999999999999
aF28.210000000000001
aF28.210000000000001
aF27.789999999999999
aF27.789999999999999
aI1432100
aa(lp54
F27.989999999999998
aF28.57
aF28.050000000000001
aF28.210000000000001
aF28.210000000000001
aI2077100
aa(lp55
F28.109999999999999
aF29.309999999999999
aF28.699999999999999
aF28.23
aF28.23
aI2736100
aa(lp56
F27.960000000000001
aF29
aF28.120000000000001
aF28.899999999999999
aF28.899999999999999
aI2747000
aa(lp57
F26.879999999999999
aF27.949999999999999
aF26.879999999999999
aF27.920000000000002
aF27.920000000000002
aI1563600
aa(lp58
F26.699999999999999
aF27.07
aF26.800000000000001
aF26.989999999999998
aF26.989999999999998
aI573800
aa(lp59
F26.77
aF27.219999999999999
aF27.210000000000001
aF26.800000000000001
aF26.800000000000001
aI872200
aa(lp60
F27.199999999999999
aF27.199999999999999
aF27.199999999999999
aF27.199999999999999
aF27.199999999999999
aI0
aa(lp61
F27.199999999999999
aF27.199999999999999
aF27.199999999999999
aF27.199999999999999
aF27.199999999999999
aI0
aa(lp62
F27.199999999999999
aF27.199999999999999
aF27.199999999999999
aF27.199999999999999
aF27.199999999999999
aI0
aa(lp63
F27.199999999999999
aF27.199999999999999
aF27.199999999999999
aF27.199999999999999
aF27.199999999999999
aI0
aa(lp64
F27.199999999999999
aF27.199999999999999
aF27.199999999999999
aF27.199999999999999
aF27.199999999999999
aI0
aa(lp65
F26.91
aF27.969999999999999
aF27.960000000000001
aF27.199999999999999
aF27.199999999999999
aI1502500
aa(lp66
F27.600000000000001
aF27.890000000000001
aF27.66
aF27.789999999999999
aF27.789999999999999
aI714300
aa(lp67
F26.949999999999999
aF27.890000000000001
aF27.039999999999999
aF27.629999999999999
aF27.629999999999999
aI910300
aa(lp68
F26.710000000000001
aF27.050000000000001
aF26.850000000000001
aF26.949999999999999
aF26.949999999999999
aI599900
aa(lp69
F26.600000000000001
aF27.120000000000001
aF26.800000000000001
aF26.850000000000001
aF26.850000000000001
aI414100
aa(lp70
F26.120000000000001
aF27
aF26.690000000000001
aF26.789999999999999
aF26.789999999999999
aI758800
aa(lp71
F26.489999999999998
aF27.510000000000002
aF27.379999999999999
aF26.690000000000001
aF26.690000000000001
aI1000000
aa(lp72
F27.399999999999999
aF28.359999999999999
aF27.449999999999999
aF27.510000000000002
aF27.510000000000002
aI1102900
aa(lp73
F27.140000000000001
aF28.449999999999999
aF27.789999999999999
aF27.609999999999999
aF27.609999999999999
aI1905700
aa(lp74
F27.02
aF27.960000000000001
aF27.940000000000001
aF27.129999999999999
aF27.129999999999999
aI1083300
aa(lp75
F27
aF28.350000000000001
aF27
aF27.940000000000001
aF27.940000000000001
aI1908600
aa(lp76
F26.620000000000001
aF28.25
aF26.899999999999999
aF27.899999999999999
aF27.899999999999999
aI2160300
aa(lp77
F26.809999999999999
aF27.32
aF27.010000000000002
aF27.059999999999999
aF27.059999999999999
aI951000
aa(lp78
F26.780000000000001
aF27.469999999999999
aF27
aF27.199999999999999
aF27.199999999999999
aI759900
aa(lp79
F26.899999999999999
aF27.620000000000001
aF27.100000000000001
aF27.149999999999999
aF27.149999999999999
aI811600
aa(lp80
F26.32
aF27.5
aF26.940000000000001
aF27.32
aF27.32
aI1604300
aa(lp81
F26.510000000000002
aF27.300000000000001
aF27.109999999999999
aF26.940000000000001
aF26.940000000000001
aI1285200
aa(lp82
F27.050000000000001
aF27.829999999999998
aF27.829999999999998
aF27.109999999999999
aF27.109999999999999
aI1571200
aa(lp83
F26.129999999999999
aF28.079999999999998
aF26.530000000000001
aF27.969999999999999
aF27.969999999999999
aI3261800
aa(lp84
F26.02
aF26.649999999999999
aF26.5
aF26.550000000000001
aF26.550000000000001
aI2396600
aa(lp85
F24.899999999999999
aF26.550000000000001
aF24.91
aF26.460000000000001
aF26.460000000000001
aI3133200
aa(lp86
F24.050000000000001
aF25.469999999999999
aF24.190000000000001
aF24.690000000000001
aF24.690000000000001
aI1875100
aa(lp87
F24
aF24.640000000000001
aF24.079999999999998
aF24.420000000000002
aF24.420000000000002
aI1101500
aa(lp88
F23.780000000000001
aF24.25
aF23.829999999999998
aF23.93
aF23.93
aI622000
aa(lp89
F23.690000000000001
aF24.280000000000001
aF24.120000000000001
aF23.77
aF23.77
aI725200
aa(lp90
F23.5
aF24.280000000000001
aF23.5
aF24.120000000000001
aF24.120000000000001
aI681600
aa(lp91
F23.609999999999999
aF24.48
aF24.469999999999999
aF23.68
aF23.68
aI1029900
aa(lp92
F24.699999999999999
aF25.5
aF25
aF24.739999999999998
aF24.739999999999998
aI1002600
aa(lp93
F24.879999999999999
aF25.539999999999999
aF25.100000000000001
aF25.18
aF25.18
aI883400
aa(lp94
F24.870000000000001
aF25.510000000000002
aF25.5
aF25.149999999999999
aF25.149999999999999
aI807200
aa(lp95
F24.719999999999999
aF25.850000000000001
aF24.890000000000001
aF25.57
aF25.57
aI1314000
aa(lp96
F24.710000000000001
aF25.109999999999999
aF24.91
aF24.949999999999999
aF24.949999999999999
aI1087500
aa(lp97
F25.350000000000001
aF25.350000000000001
aF25.350000000000001
aF25.350000000000001
aF25.350000000000001
aI0
aa(lp98
F25.350000000000001
aF25.350000000000001
aF25.350000000000001
aF25.350000000000001
aF25.350000000000001
aI0
aa(lp99
F24.93
aF25.52
aF25.18
aF25.350000000000001
aF25.350000000000001
aI666300
aa(lp100
F24.719999999999999
aF25.620000000000001
aF25.09
aF25.34
aF25.34
aI563000
aa(lp101
F24.870000000000001
aF25.91
aF25.899999999999999
aF25.100000000000001
aF25.100000000000001
aI945300
aa(lp102
F25.52
aF26.18
aF25.989999999999998
aF25.899999999999999
aF25.899999999999999
aI649900
aa(lp103
F25.530000000000001
aF26.390000000000001
aF26.350000000000001
aF26
aF26
aI1048300
aa(lp104
F24.530000000000001
aF26.379999999999999
aF24.879999999999999
aF26.350000000000001
aF26.350000000000001
aI1544400
aa(lp105
F24.010000000000002
aF25.27
aF24.239999999999998
aF24.390000000000001
aF24.390000000000001
aI1107100
aa(lp106
F23.920000000000002
aF26.559999999999999
aF26.559999999999999
aF23.940000000000001
aF23.940000000000001
aI1848200
aa(lp107
F25.800000000000001
aF27.449999999999999
aF27.359999999999999
aF26.559999999999999
aF26.559999999999999
aI1360100
aa(lp108
F27.300000000000001
aF27.84
aF27.550000000000001
aF27.66
aF27.66
aI791400
aa(lp109
F27.550000000000001
aF28.289999999999999
aF28.289999999999999
aF27.629999999999999
aF27.629999999999999
aI1354400
aa(lp110
F28.289999999999999
aF28.73
aF28.73
aF28.359999999999999
aF28.359999999999999
aI1335200
aa(lp111
F28.5
aF29.129999999999999
aF28.68
aF28.960000000000001
aF28.960000000000001
aI1113100
aa(lp112
F28
aF28.579999999999998
aF28.550000000000001
aF28.550000000000001
aF28.550000000000001
aI1189400
aa(lp113
F27.780000000000001
aF28.66
aF28.149999999999999
aF28.5
aF28.5
aI1386000
aa(lp114
F27.239999999999998
aF28.170000000000002
aF27.239999999999998
aF28.09
aF28.09
aI1430700
aa(lp115
F27.050000000000001
aF28.649999999999999
aF28.649999999999999
aF27.100000000000001
aF27.100000000000001
aI2949100
aa(lp116
F28.600000000000001
aF29.300000000000001
aF29.300000000000001
aF28.699999999999999
aF28.699999999999999
aI2823700
aa(lp117
F29.510000000000002
aF30.859999999999999
aF30.809999999999999
aF29.559999999999999
aF29.559999999999999
aI3949100
aa(lp118
F30.899999999999999
aF31.34
aF31.010000000000002
aF30.98
aF30.98
aI2751400
aa(lp119
F30.52
aF32
aF31.949999999999999
aF31.23
aF31.23
aI3001800
aa(lp120
F30.280000000000001
aF31.59
aF30.280000000000001
aF31.440000000000001
aF31.440000000000001
aI3877900
aa(lp121
F30.02
aF30.890000000000001
aF30.690000000000001
aF30.449999999999999
aF30.449999999999999
aI2212100
aa(lp122
F30.530000000000001
aF31.449999999999999
aF31.23
aF30.640000000000001
aF30.640000000000001
aI2810300
aa(lp123
F30.949999999999999
aF31.800000000000001
aF30.949999999999999
aF31.170000000000002
aF31.170000000000002
aI3451100
aa(lp124
F29.579999999999998
aF30.850000000000001
aF29.920000000000002
aF30.800000000000001
aF30.800000000000001
aI2634900
aa(lp125
F29.300000000000001
aF30.949999999999999
aF30.949999999999999
aF29.879999999999999
aF29.879999999999999
aI4467200
aa(lp126
F30.710000000000001
aF31.59
aF31.100000000000001
aF30.91
aF30.91
aI3187600
aa(lp127
F30.420000000000002
aF31.469999999999999
aF30.48
aF30.739999999999998
aF30.739999999999998
aI3290900
aa(lp128
F29.800000000000001
aF30.84
aF30.050000000000001
aF30.57
aF30.57
aI2710100
aa(lp129
F29.899999999999999
aF31.129999999999999
aF30.960000000000001
aF30.300000000000001
aF30.300000000000001
aI3245300
aa(lp130
F30.23
aF31.149999999999999
aF30.449999999999999
aF30.920000000000002
aF30.920000000000002
aI2566800
aa(lp131
F30
aF31.190000000000001
aF30.050000000000001
aF30.52
aF30.52
aI3230300
aa(lp132
F30.309999999999999
aF33.390000000000001
aF33.259999999999998
aF30.43
aF30.43
aI7549200
aa(lp133
F32.649999999999999
aF34.780000000000001
aF33
aF33.57
aF33.57
aI8519600
aa(lp134
F31.050000000000001
aF34.799999999999997
aF31.600000000000001
aF33.890000000000001
aF33.890000000000001
aI9720700
aa(lp135
F31.030000000000001
aF32.659999999999997
aF32.530000000000001
aF31.66
aF31.66
aI6062400
aa(lp136
F31.489999999999998
aF33
aF31.530000000000001
aF32.710000000000001
aF32.710000000000001
aI6590100
aa(lp137
F31.280000000000001
aF33.890000000000001
aF32
aF31.52
aF31.52
aI9940500
aa(lp138
F30.18
aF32.5
aF30.600000000000001
aF32.109999999999999
aF32.109999999999999
aI8079000
aa(lp139
F30.079999999999998
aF31.57
aF30.329999999999998
aF30.760000000000002
aF30.760000000000002
aI4711500
aa(lp140
F30.600000000000001
aF31.550000000000001
aF31.32
aF30.82
aF30.82
aI7576300
aa(lp141
F30.199999999999999
aF32.789999999999999
aF30.629999999999999
aF31.91
aF31.91
aI9619900
aa(lp142
F29.02
aF30.350000000000001
aF29.02
aF29.899999999999999
aF29.899999999999999
aI7657200
aa(lp143
F28.809999999999999
aF30
aF29.5
aF29.170000000000002
aF29.170000000000002
aI5158600
aa(lp144
F28.100000000000001
aF30.699999999999999
aF28.100000000000001
aF30.010000000000002
aF30.010000000000002
aI8825500
aa(lp145
F27.280000000000001
aF28.350000000000001
aF27.390000000000001
aF28.210000000000001
aF28.210000000000001
aI3015000
aa(lp146
F26.510000000000002
aF28
aF28
aF27.280000000000001
aF27.280000000000001
aI2633100
aa(lp147
F27.34
aF28.850000000000001
aF27.43
aF27.940000000000001
aF27.940000000000001
aI4504500
aa(lp148
F27.219999999999999
aF29
aF29
aF27.350000000000001
aF27.350000000000001
aI5094000
aa(lp149
F27.84
aF29.899999999999999
aF27.84
aF28.940000000000001
aF28.940000000000001
aI8109400
aa(lp150
F26.940000000000001
aF28.149999999999999
aF27
aF27.809999999999999
aF27.809999999999999
aI4765700
aa(lp151
F26.66
aF27.449999999999999
aF26.949999999999999
aF27.18
aF27.18
aI3336900
aa(lp152
F26.120000000000001
aF27.940000000000001
aF27.91
aF27.050000000000001
aF27.050000000000001
aI6555100
aa(lp153
F28.059999999999999
aF28.859999999999999
aF28.309999999999999
aF28.120000000000001
aF28.120000000000001
aI5697800
aa(lp154
F28.109999999999999
aF29.98
aF28.300000000000001
aF29.09
aF29.09
aI8817400
aa(lp155
F28.239999999999998
aF29.289999999999999
aF29
aF28.300000000000001
aF28.300000000000001
aI10135800
aa(lp156
F29.100000000000001
aF30.829999999999998
aF30.829999999999998
aF29.710000000000001
aF29.710000000000001
aI21088800
aa(lp157
F28.030000000000001
aF28.030000000000001
aF28.030000000000001
aF28.030000000000001
aF28.030000000000001
aI554700
aa(lp158
F25.48
aF25.48
aF25.48
aF25.48
aF25.48
aI303000
aa(lp159
F23.16
aF23.16
aF23.16
aF23.16
aF23.16
aI108500
aa(lp160
F21.050000000000001
aF21.050000000000001
aF21.050000000000001
aF21.050000000000001
aF21.050000000000001
aI0
aa(lp161
F21.050000000000001
aF21.050000000000001
aF21.050000000000001
aF21.050000000000001
aF21.050000000000001
aI0
aa(lp162
F21.050000000000001
aF21.050000000000001
aF21.050000000000001
aF21.050000000000001
aF21.050000000000001
aI0
aa(lp163
F21.050000000000001
aF21.050000000000001
aF21.050000000000001
aF21.050000000000001
aF21.050000000000001
aI0
aa(lp164
F21.050000000000001
aF21.050000000000001
aF21.050000000000001
aF21.050000000000001
aF21.050000000000001
aI0
aa(lp165
F21.050000000000001
aF21.050000000000001
aF21.050000000000001
aF21.050000000000001
aF21.050000000000001
aI59800
aa(lp166
F19.140000000000001
aF19.140000000000001
aF19.140000000000001
aF19.140000000000001
aF19.140000000000001
aI30800
aa.