(lp1
(lp2
F66.5
aF69.790000000000006
aF68
aF67.900000000000006
aF67.900000000000006
aI1625600
aa(lp3
F67.879999999999995
aF72
aF72
aF69.859999999999999
aF69.859999999999999
aI1265100
aa(lp4
F66.719999999999999
aF72.780000000000001
aF67
aF69.939999999999998
aF69.939999999999998
aI1665300
aa(lp5
F62.5
aF69.980000000000004
aF63.530000000000001
aF68.799999999999997
aF68.799999999999997
aI2976400
aa(lp6
F57.399999999999999
aF63.659999999999997
aF57.990000000000002
aF63.630000000000003
aF63.630000000000003
aI2181900
aa(lp7
F55.899999999999999
aF59.200000000000003
aF57.780000000000001
aF57.990000000000002
aF57.990000000000002
aI1480800
aa(lp8
F56.009999999999998
aF58.899999999999999
aF58
aF57.579999999999998
aF57.579999999999998
aI1295300
aa(lp9
F57.380000000000003
aF60.880000000000003
aF58.130000000000003
aF58.229999999999997
aF58.229999999999997
aI1354000
aa(lp10
F56.020000000000003
aF59.979999999999997
aF56.299999999999997
aF58.200000000000003
aF58.200000000000003
aI1453100
aa(lp11
F55.299999999999997
aF60.450000000000003
aF58
aF57.590000000000003
aF57.590000000000003
aI2271300
aa(lp12
F57.939999999999998
aF57.939999999999998
aF57.939999999999998
aF57.939999999999998
aF57.939999999999998
aI0
aa(lp13
F52.600000000000001
aF59.100000000000001
aF53.170000000000002
aF57.939999999999998
aF57.939999999999998
aI3713200
aa(lp14
F51.159999999999997
aF56.18
aF51.159999999999997
aF55.270000000000003
aF55.270000000000003
aI5779100
aa(lp15
F56.840000000000003
aF56.840000000000003
aF56.840000000000003
aF56.840000000000003
aF56.840000000000003
aI0
aa(lp16
F56.840000000000003
aF56.840000000000003
aF56.840000000000003
aF56.840000000000003
aF56.840000000000003
aI0
aa(lp17
F56.840000000000003
aF56.840000000000003
aF56.840000000000003
aF56.840000000000003
aF56.840000000000003
aI0
aa(lp18
F52.5
aF56.840000000000003
aF52.5
aF56.840000000000003
aF56.840000000000003
aI3180800
aa(lp19
F47.700000000000003
aF52
aF47.899999999999999
aF51.670000000000002
aF51.670000000000002
aI2972300
aa(lp20
F45
aF47.899999999999999
aF45.5
aF47.490000000000002
aF47.490000000000002
aI1486800
aa(lp21
F45.109999999999999
aF48.880000000000003
aF47.600000000000001
aF45.640000000000001
aF45.640000000000001
aI3048500
aa(lp22
F47.299999999999997
aF49.090000000000003
aF47.920000000000002
aF47.590000000000003
aF47.590000000000003
aI1252000
aa(lp23
F46.200000000000003
aF48.700000000000003
aF46.539999999999999
aF47.939999999999998
aF47.939999999999998
aI1108400
aa(lp24
F46.700000000000003
aF49.700000000000003
aF49.700000000000003
aF47.020000000000003
aF47.020000000000003
aI1459100
aa(lp25
F49.469999999999999
aF51.509999999999998
aF51
aF49.799999999999997
aF49.799999999999997
aI1818600
aa(lp26
F46
aF51.899999999999999
aF47
aF51.009999999999998
aF51.009999999999998
aI4304300
aa(lp27
F47.100000000000001
aF49.229999999999997
aF47.380000000000003
aF48.600000000000001
aF48.600000000000001
aI1854600
aa(lp28
F46.520000000000003
aF48.649999999999999
aF47.560000000000002
aF46.920000000000002
aF46.920000000000002
aI1747800
aa(lp29
F47.5
aF49.770000000000003
aF49.770000000000003
aF48.07
aF48.07
aI1814900
aa(lp30
F46.719999999999999
aF50.020000000000003
aF46.880000000000003
aF49.93
aF49.93
aI3523600
aa(lp31
F46.799999999999997
aF46.799999999999997
aF46.799999999999997
aF46.799999999999997
aF46.799999999999997
aI0
aa(lp32
F46.299999999999997
aF47.640000000000001
aF47.640000000000001
aF46.799999999999997
aF46.799999999999997
aI2027600
aa(lp33
F47.009999999999998
aF48.020000000000003
aF47.869999999999997
aF47.369999999999997
aF47.369999999999997
aI1296200
aa(lp34
F47.100000000000001
aF48.159999999999997
aF47.700000000000003
aF47.780000000000001
aF47.780000000000001
aI1997800
aa(lp35
F46
aF48.890000000000001
aF46.619999999999997
aF47.600000000000001
aF47.600000000000001
aI2943400
aa(lp36
F46.399999999999999
aF47.380000000000003
aF46.899999999999999
aF46.840000000000003
aF46.840000000000003
aI1444700
aa(lp37
F43
aF48.5
aF44.799999999999997
aF47.469999999999999
aF47.469999999999999
aI2973400
aa(lp38
F44.479999999999997
aF45.5
aF45.5
aF44.909999999999997
aF44.909999999999997
aI2801100
aa(lp39
F43.289999999999999
aF47.219999999999999
aF43.289999999999999
aF45.909999999999997
aF45.909999999999997
aI5315300
aa(lp40
F42.490000000000002
aF43.600000000000001
aF42.590000000000003
aF43.219999999999999
aF43.219999999999999
aI5064100
aa(lp41
F42.170000000000002
aF43
aF42.710000000000001
aF42.5
aF42.5
aI5188100
aa(lp42
F42.509999999999998
aF43.25
aF43.170000000000002
aF42.869999999999997
aF42.869999999999997
aI2154900
aa(lp43
F42
aF43.560000000000002
aF43
aF43.340000000000003
aF43.340000000000003
aI2240900
aa(lp44
F42.799999999999997
aF44.200000000000003
aF44.200000000000003
aF43.219999999999999
aF43.219999999999999
aI2944600
aa(lp45
F43.5
aF45.5
aF44.299999999999997
aF44.030000000000001
aF44.030000000000001
aI1812600
aa(lp46
F44.009999999999998
aF45.68
aF44.200000000000003
aF45.039999999999999
aF45.039999999999999
aI1720200
aa(lp47
F42.600000000000001
aF44.700000000000003
aF43.770000000000003
aF44.600000000000001
aF44.600000000000001
aI1735100
aa(lp48
F42.549999999999997
aF44.770000000000003
aF43.329999999999998
aF43.609999999999999
aF43.609999999999999
aI2739200
aa(lp49
F43.009999999999998
aF45.020000000000003
aF45
aF43.939999999999998
aF43.939999999999998
aI3491900
aa(lp50
F42.520000000000003
aF45.68
aF42.68
aF45.479999999999997
aF45.479999999999997
aI3917700
aa(lp51
F40.899999999999999
aF44.719999999999999
aF41.899999999999999
aF43.420000000000002
aF43.420000000000002
aI3615600
aa(lp52
F40.649999999999999
aF42.479999999999997
aF42
aF40.700000000000003
aF40.700000000000003
aI2087300
aa(lp53
F40.25
aF42.850000000000001
aF40.399999999999999
aF42.240000000000002
aF42.240000000000002
aI3946000
aa(lp54
F37.299999999999997
aF40.159999999999997
aF38.049999999999997
aF39.869999999999997
aF39.869999999999997
aI3510100
aa(lp55
F38.299999999999997
aF39.979999999999997
aF38.43
aF38.399999999999999
aF38.399999999999999
aI3159200
aa(lp56
F37.479999999999997
aF39.799999999999997
aF38.119999999999997
aF38.710000000000001
aF38.710000000000001
aI2041800
aa(lp57
F36.32
aF38.789999999999999
aF36.479999999999997
aF38.240000000000002
aF38.240000000000002
aI2812200
aa(lp58
F36.079999999999998
aF37.100000000000001
aF37.100000000000001
aF36.359999999999999
aF36.359999999999999
aI2161200
aa(lp59
F37.159999999999997
aF38.700000000000003
aF38.060000000000002
aF37.210000000000001
aF37.210000000000001
aI1901500
aa(lp60
F38.060000000000002
aF38.060000000000002
aF38.060000000000002
aF38.060000000000002
aF38.060000000000002
aI0
aa(lp61
F38.060000000000002
aF38.060000000000002
aF38.060000000000002
aF38.060000000000002
aF38.060000000000002
aI0
aa(lp62
F38.060000000000002
aF38.060000000000002
aF38.060000000000002
aF38.060000000000002
aF38.060000000000002
aI0
aa(lp63
F38.060000000000002
aF38.060000000000002
aF38.060000000000002
aF38.060000000000002
aF38.060000000000002
aI0
aa(lp64
F38.060000000000002
aF38.060000000000002
aF38.060000000000002
aF38.060000000000002
aF38.060000000000002
aI0
aa(lp65
F36.450000000000003
aF39.960000000000001
aF36.600000000000001
aF38.060000000000002
aF38.060000000000002
aI6665900
aa(lp66
F34.799999999999997
aF36.43
aF36
aF36.43
aF36.43
aI6125800
aa(lp67
F33.119999999999997
aF33.119999999999997
aF33.119999999999997
aF33.119999999999997
aF33.119999999999997
aI0
aa(lp68
F33.119999999999997
aF33.119999999999997
aF33.119999999999997
aF33.119999999999997
aF33.119999999999997
aI0
aa(lp69
F33.119999999999997
aF33.119999999999997
aF33.119999999999997
aF33.119999999999997
aF33.119999999999997
aI0
aa(lp70
F33.119999999999997
aF33.119999999999997
aF33.119999999999997
aF33.119999999999997
aF33.119999999999997
aI0
aa(lp71
F33.119999999999997
aF33.119999999999997
aF33.119999999999997
aF33.119999999999997
aF33.119999999999997
aI0
aa(lp72
F31.82
aF33.149999999999999
aF32.219999999999999
aF33.119999999999997
aF33.119999999999997
aI1525700
aa(lp73
F32.350000000000001
aF33.280000000000001
aF33.280000000000001
aF32.380000000000003
aF32.380000000000003
aI843900
aa(lp74
F32.939999999999998
aF33.549999999999997
aF33.5
aF33
aF33
aI754600
aa(lp75
F32.899999999999999
aF33.659999999999997
aF33.18
aF33.5
aF33.5
aI1204500
aa(lp76
F32.57
aF33.5
aF32.57
aF33.289999999999999
aF33.289999999999999
aI639700
aa(lp77
F32.68
aF33.600000000000001
aF32.859999999999999
aF32.93
aF32.93
aI621700
aa(lp78
F32.899999999999999
aF33.700000000000003
aF33.530000000000001
aF32.969999999999999
aF32.969999999999999
aI910100
aa(lp79
F33.520000000000003
aF34.189999999999998
aF33.780000000000001
aF33.729999999999997
aF33.729999999999997
aI1193900
aa(lp80
F33.359999999999999
aF34.18
aF33.810000000000002
aF33.829999999999998
aF33.829999999999998
aI1733100
aa(lp81
F33.359999999999999
aF34
aF33.579999999999998
aF33.920000000000002
aF33.920000000000002
aI1568500
aa(lp82
F33.409999999999997
aF34.75
aF34.369999999999997
aF33.68
aF33.68
aI1970800
aa(lp83
F33.030000000000001
aF34.75
aF33.030000000000001
aF34.689999999999998
aF34.689999999999998
aI3047900
aa(lp84
F32.82
aF33.649999999999999
aF33.170000000000002
aF33.340000000000003
aF33.340000000000003
aI2658200
aa(lp85
F31.010000000000002
aF33.280000000000001
aF31.02
aF33.229999999999997
aF33.229999999999997
aI4072900
aa(lp86
F30.609999999999999
aF32.549999999999997
aF31.309999999999999
aF31.219999999999999
aF31.219999999999999
aI2067000
aa(lp87
F30.800000000000001
aF32.140000000000001
aF31.48
aF31.609999999999999
aF31.609999999999999
aI1229800
aa(lp88
F31.010000000000002
aF31.68
aF31.100000000000001
aF31.649999999999999
aF31.649999999999999
aI810300
aa(lp89
F30.82
aF31.309999999999999
aF31.18
aF31.129999999999999
aF31.129999999999999
aI879900
aa(lp90
F30.73
aF31.440000000000001
aF31
aF31.390000000000001
aF31.390000000000001
aI790600
aa(lp91
F30.5
aF32
aF31.870000000000001
aF30.940000000000001
aF30.940000000000001
aI1196200
aa(lp92
F31.850000000000001
aF32.350000000000001
aF32
aF31.870000000000001
aF31.870000000000001
aI935700
aa(lp93
F31.949999999999999
aF32.670000000000002
aF32.299999999999997
aF32.270000000000003
aF32.270000000000003
aI1124500
aa(lp94
F32.25
aF33
aF32.799999999999997
aF32.350000000000001
aF32.350000000000001
aI962900
aa(lp95
F31.899999999999999
aF33.189999999999998
aF32.100000000000001
aF33.039999999999999
aF33.039999999999999
aI1500100
aa(lp96
F31.870000000000001
aF32.479999999999997
aF32
aF32.310000000000002
aF32.310000000000002
aI860500
aa(lp97
F32.640000000000001
aF32.640000000000001
aF32.640000000000001
aF32.640000000000001
aF32.640000000000001
aI0
aa(lp98
F32.640000000000001
aF32.640000000000001
aF32.640000000000001
aF32.640000000000001
aF32.640000000000001
aI0
aa(lp99
F31.809999999999999
aF32.899999999999999
aF32.630000000000003
aF32.640000000000001
aF32.640000000000001
aI1174400
aa(lp100
F32
aF33.950000000000003
aF32.32
aF32.829999999999998
aF32.829999999999998
aI2123700
aa(lp101
F32.009999999999998
aF33.890000000000001
aF33.890000000000001
aF32.270000000000003
aF32.270000000000003
aI1818900
aa(lp102
F33
aF34.469999999999999
aF33.359999999999999
aF33.909999999999997
aF33.909999999999997
aI1988600
aa(lp103
F32.799999999999997
aF34.100000000000001
aF33.039999999999999
aF33.57
aF33.57
aI1878700
aa(lp104
F32.149999999999999
aF33.100000000000001
aF32.149999999999999
aF33.039999999999999
aF33.039999999999999
aI1516400
aa(lp105
F30.510000000000002
aF32.649999999999999
aF31.170000000000002
aF32.18
aF32.18
aI1615500
aa(lp106
F29.91
aF31.870000000000001
aF31.77
aF31.32
aF31.32
aI3426300
aa(lp107
F31.710000000000001
aF33.579999999999998
aF33.310000000000002
aF32.219999999999999
aF32.219999999999999
aI2815800
aa(lp108
F33.689999999999998
aF34.299999999999997
aF33.710000000000001
aF33.700000000000003
aF33.700000000000003
aI1178200
aa(lp109
F33.200000000000003
aF34.700000000000003
aF34.43
aF34.340000000000003
aF34.340000000000003
aI2974400
aa(lp110
F34.450000000000003
aF35.049999999999997
aF34.859999999999999
aF34.530000000000001
aF34.530000000000001
aI1950400
aa(lp111
F33.380000000000003
aF34.950000000000003
aF33.380000000000003
aF34.859999999999999
aF34.859999999999999
aI2638000
aa(lp112
F33.57
aF34.270000000000003
aF33.920000000000002
aF33.799999999999997
aF33.799999999999997
aI1793100
aa(lp113
F32.869999999999997
aF33.869999999999997
aF33.090000000000003
aF33.850000000000001
aF33.850000000000001
aI1880800
aa(lp114
F31.609999999999999
aF33.57
aF31.620000000000001
aF33.340000000000003
aF33.340000000000003
aI2454100
aa(lp115
F31.59
aF34.359999999999999
aF34.350000000000001
aF31.969999999999999
aF31.969999999999999
aI5407700
aa(lp116
F34.359999999999999
aF35.899999999999999
aF35.890000000000001
aF34.469999999999999
aF34.469999999999999
aI5357400
aa(lp117
F36.18
aF37.740000000000002
aF37.710000000000001
aF36.359999999999999
aF36.359999999999999
aI4881400
aa(lp118
F37.799999999999997
aF38.850000000000001
aF38.200000000000003
aF37.990000000000002
aF37.990000000000002
aI4771200
aa(lp119
F37.109999999999999
aF38.490000000000002
aF38.210000000000001
aF38.060000000000002
aF38.060000000000002
aI3406400
aa(lp120
F37.030000000000001
aF38.770000000000003
aF37.200000000000003
aF38.149999999999999
aF38.149999999999999
aI4908000
aa(lp121
F36.479999999999997
aF37.950000000000003
aF37.950000000000003
aF37.159999999999997
aF37.159999999999997
aI3797000
aa(lp122
F37.049999999999997
aF38.560000000000002
aF37.770000000000003
aF37.649999999999999
aF37.649999999999999
aI3713800
aa(lp123
F37.009999999999998
aF38.299999999999997
aF37.009999999999998
aF37.909999999999997
aF37.909999999999997
aI4786400
aa(lp124
F36.090000000000003
aF36.869999999999997
aF36.659999999999997
aF36.82
aF36.82
aI3122600
aa(lp125
F35.799999999999997
aF37.310000000000002
aF37.079999999999998
aF36.640000000000001
aF36.640000000000001
aI4776000
aa(lp126
F36.960000000000001
aF37.799999999999997
aF37.600000000000001
aF37.329999999999998
aF37.329999999999998
aI3830300
aa(lp127
F37
aF37.909999999999997
aF37.159999999999997
aF37.390000000000001
aF37.390000000000001
aI3687700
aa(lp128
F36.149999999999999
aF37.799999999999997
aF36.399999999999999
aF37.420000000000002
aF37.420000000000002
aI3890100
aa(lp129
F36.25
aF37.310000000000002
aF37.189999999999998
aF36.799999999999997
aF36.799999999999997
aI3463000
aa(lp130
F36.659999999999997
aF37.960000000000001
aF37.799999999999997
aF37.299999999999997
aF37.299999999999997
aI3922600
aa(lp131
F35.579999999999998
aF37.899999999999999
aF36.210000000000001
aF37.810000000000002
aF37.810000000000002
aI6073300
aa(lp132
F35.899999999999999
aF39.450000000000003
aF39
aF36.210000000000001
aF36.210000000000001
aI8579600
aa(lp133
F39.020000000000003
aF41.469999999999999
aF40
aF39.450000000000003
aF39.450000000000003
aI8149400
aa(lp134
F37.579999999999998
aF41.5
aF37.829999999999998
aF41.030000000000001
aF41.030000000000001
aI9791500
aa(lp135
F37.409999999999997
aF39.799999999999997
aF39.799999999999997
aF38.210000000000001
aF38.210000000000001
aI7414700
aa(lp136
F38.329999999999998
aF40.299999999999997
aF39.649999999999999
aF39.960000000000001
aF39.960000000000001
aI7439900
aa(lp137
F39.159999999999997
aF42.469999999999999
aF40.549999999999997
aF39.649999999999999
aF39.649999999999999
aI8229100
aa(lp138
F38.450000000000003
aF40.600000000000001
aF38.5
aF40.240000000000002
aF40.240000000000002
aI6322100
aa(lp139
F38.299999999999997
aF39.850000000000001
aF38.450000000000003
aF38.740000000000002
aF38.740000000000002
aI5490100
aa(lp140
F37.600000000000001
aF40.770000000000003
aF37.799999999999997
aF38.93
aF38.93
aI8557100
aa(lp141
F37.399999999999999
aF38.950000000000003
aF37.799999999999997
aF37.780000000000001
aF37.780000000000001
aI9081200
aa(lp142
F35.880000000000003
aF38.5
aF36.100000000000001
aF38.159999999999997
aF38.159999999999997
aI9479500
aa(lp143
F34.850000000000001
aF37.5
aF35.049999999999997
aF36.299999999999997
aF36.299999999999997
aI10636100
aa(lp144
F33.740000000000002
aF35.880000000000003
aF33.75
aF35.369999999999997
aF35.369999999999997
aI9979000
aa(lp145
F32.82
aF33.969999999999999
aF33.18
aF33.649999999999999
aF33.649999999999999
aI6445500
aa(lp146
F32.219999999999999
aF33.490000000000002
aF32.649999999999999
aF33.030000000000001
aF33.030000000000001
aI6401000
aa(lp147
F32.530000000000001
aF33.530000000000001
aF33.280000000000001
aF32.810000000000002
aF32.810000000000002
aI7127600
aa(lp148
F33
aF34.969999999999999
aF34.799999999999997
aF33.280000000000001
aF33.280000000000001
aI10463200
aa(lp149
F34.990000000000002
aF36.799999999999997
aF35
aF35.520000000000003
aF35.520000000000003
aI12865600
aa(lp150
F33.43
aF36.659999999999997
aF33.43
aF35.659999999999997
aF35.659999999999997
aI18492000
aa(lp151
F32.710000000000001
aF34.329999999999998
aF32.880000000000003
aF33.439999999999998
aF33.439999999999998
aI12668800
aa(lp152
F31.02
aF35.780000000000001
aF35.780000000000001
aF34.350000000000001
aF34.350000000000001
aI29795700
aa(lp153
F32.530000000000001
aF32.530000000000001
aF32.530000000000001
aF32.530000000000001
aF32.530000000000001
aI266000
aa(lp154
F29.57
aF29.57
aF29.57
aF29.57
aF29.57
aI107800
aa(lp155
F26.879999999999999
aF26.879999999999999
aF26.879999999999999
aF26.879999999999999
aF26.879999999999999
aI62600
aa(lp156
F24.440000000000001
aF24.440000000000001
aF24.440000000000001
aF24.440000000000001
aF24.440000000000001
aI42700
aa.