(lp1
(lp2
F27.260000000000002
aF29.899999999999999
aF29
aF28.43
aF28.43
aI19634200
aa(lp3
F25.329999999999998
aF28.469999999999999
aF25.75
aF28.469999999999999
aF28.469999999999999
aI19392000
aa(lp4
F24.68
aF26.600000000000001
aF25.82
aF25.879999999999999
aF25.879999999999999
aI16714300
aa(lp5
F23.350000000000001
aF25.559999999999999
aF23.350000000000001
aF25.559999999999999
aF25.559999999999999
aI10818000
aa(lp6
F22.120000000000001
aF23.239999999999998
aF22.399999999999999
aF23.239999999999998
aF23.239999999999998
aI3777000
aa(lp7
F21.539999999999999
aF22.100000000000001
aF22
aF22.07
aF22.07
aI2754500
aa(lp8
F21.449999999999999
aF22.789999999999999
aF22.789999999999999
aF21.449999999999999
aF21.449999999999999
aI3542900
aa(lp9
F22.5
aF23.949999999999999
aF23.420000000000002
aF22.879999999999999
aF22.879999999999999
aI5236400
aa(lp10
F22.800000000000001
aF23.559999999999999
aF23.079999999999998
aF23.48
aF23.48
aI4129300
aa(lp11
F22.66
aF23.34
aF22.670000000000002
aF23.059999999999999
aF23.059999999999999
aI2399400
aa(lp12
F22.93
aF22.93
aF22.93
aF22.93
aF22.93
aI0
aa(lp13
F22.899999999999999
aF23.719999999999999
aF23.460000000000001
aF22.93
aF22.93
aI2958900
aa(lp14
F22.800000000000001
aF23.309999999999999
aF22.82
aF23.300000000000001
aF23.300000000000001
aI2844400
aa(lp15
F22.550000000000001
aF24
aF24
aF22.780000000000001
aF22.780000000000001
aI4527300
aa(lp16
F23.710000000000001
aF24.239999999999998
aF23.899999999999999
aF23.989999999999998
aF23.989999999999998
aI4552000
aa(lp17
F23.469999999999999
aF24
aF23.75
aF23.77
aF23.77
aI4647000
aa(lp18
F24
aF24.84
aF24.789999999999999
aF24.199999999999999
aF24.199999999999999
aI6272900
aa(lp19
F24
aF24.789999999999999
aF24.329999999999998
aF24.640000000000001
aF24.640000000000001
aI8915000
aa(lp20
F23.050000000000001
aF24.23
aF23.300000000000001
aF24.199999999999999
aF24.199999999999999
aI7196700
aa(lp21
F23.699999999999999
aF25.48
aF24.600000000000001
aF23.710000000000001
aF23.710000000000001
aI18076600
aa(lp22
F22.16
aF24.109999999999999
aF22.219999999999999
aF24.109999999999999
aF24.109999999999999
aI9284300
aa(lp23
F21
aF22.239999999999998
aF21.5
aF21.920000000000002
aF21.920000000000002
aI3536200
aa(lp24
F21.960000000000001
aF23.16
aF22.890000000000001
aF22
aF22
aI5821700
aa(lp25
F23.300000000000001
aF24.530000000000001
aF23.600000000000001
aF23.489999999999998
aF23.489999999999998
aI6853400
aa(lp26
F22.559999999999999
aF23.739999999999998
aF22.559999999999999
aF23.640000000000001
aF23.640000000000001
aI6330700
aa(lp27
F21.960000000000001
aF22.699999999999999
aF22.09
aF22.550000000000001
aF22.550000000000001
aI3802600
aa(lp28
F21.34
aF22.809999999999999
aF22.809999999999999
aF22.059999999999999
aF22.059999999999999
aI5111600
aa(lp29
F22.5
aF23.789999999999999
aF23.789999999999999
aF22.829999999999998
aF22.829999999999998
aI6616300
aa(lp30
F23
aF23.600000000000001
aF23.309999999999999
aF23.52
aF23.52
aI6291500
aa(lp31
F23.059999999999999
aF23.059999999999999
aF23.059999999999999
aF23.059999999999999
aF23.059999999999999
aI0
aa(lp32
F22.120000000000001
aF23.190000000000001
aF22.399999999999999
aF23.059999999999999
aF23.059999999999999
aI6720600
aa(lp33
F22.02
aF22.780000000000001
aF22.760000000000002
aF22.530000000000001
aF22.530000000000001
aI5836000
aa(lp34
F21.41
aF22.98
aF21.68
aF22.57
aF22.57
aI8655300
aa(lp35
F21.149999999999999
aF21.850000000000001
aF21.300000000000001
aF21.640000000000001
aF21.640000000000001
aI6038300
aa(lp36
F21.129999999999999
aF21.449999999999999
aF21.399999999999999
aF21.289999999999999
aF21.289999999999999
aI3292400
aa(lp37
F20.800000000000001
aF21.350000000000001
aF20.800000000000001
aF21.23
aF21.23
aI2627800
aa(lp38
F21.079999999999998
aF21.879999999999999
aF21.370000000000001
aF21.260000000000002
aF21.260000000000002
aI4908600
aa(lp39
F20.399999999999999
aF21.469999999999999
aF20.640000000000001
aF21.420000000000002
aF21.420000000000002
aI6635200
aa(lp40
F20.27
aF21.350000000000001
aF21.300000000000001
aF20.68
aF20.68
aI4551300
aa(lp41
F20.84
aF21.190000000000001
aF21.129999999999999
aF21.140000000000001
aF21.140000000000001
aI4318700
aa(lp42
F20.829999999999998
aF21.280000000000001
aF21.059999999999999
aF20.870000000000001
aF20.870000000000001
aI3987500
aa(lp43
F20.800000000000001
aF21.59
aF20.920000000000002
aF21.059999999999999
aF21.059999999999999
aI6257700
aa(lp44
F20.309999999999999
aF21.059999999999999
aF20.649999999999999
aF20.899999999999999
aF20.899999999999999
aI6544900
aa(lp45
F19.75
aF20.68
aF19.940000000000001
aF20.670000000000002
aF20.670000000000002
aI5532100
aa(lp46
F19.34
aF19.84
aF19.34
aF19.82
aF19.82
aI3344200
aa(lp47
F18.989999999999998
aF19.399999999999999
aF18.989999999999998
aF19.289999999999999
aF19.289999999999999
aI1275200
aa(lp48
F18.899999999999999
aF19.420000000000002
aF19.300000000000001
aF18.98
aF18.98
aI2356500
aa(lp49
F19.25
aF19.800000000000001
aF19.760000000000002
aF19.34
aF19.34
aI2099100
aa(lp50
F19.43
aF19.780000000000001
aF19.559999999999999
aF19.739999999999998
aF19.739999999999998
aI1851100
aa(lp51
F19.399999999999999
aF19.649999999999999
aF19.649999999999999
aF19.510000000000002
aF19.510000000000002
aI1476700
aa(lp52
F19.399999999999999
aF19.98
aF19.870000000000001
aF19.670000000000002
aF19.670000000000002
aI2522600
aa(lp53
F19.18
aF19.969999999999999
aF19.390000000000001
aF19.870000000000001
aF19.870000000000001
aI3797700
aa(lp54
F19.16
aF19.399999999999999
aF19.210000000000001
aF19.379999999999999
aF19.379999999999999
aI1730100
aa(lp55
F19.149999999999999
aF19.449999999999999
aF19.399999999999999
aF19.199999999999999
aF19.199999999999999
aI2127900
aa(lp56
F18.920000000000002
aF19.5
aF19.079999999999998
aF19.48
aF19.48
aI2317300
aa(lp57
F18.940000000000001
aF19.16
aF19.100000000000001
aF19.039999999999999
aF19.039999999999999
aI1268000
aa(lp58
F18.649999999999999
aF19.100000000000001
aF18.649999999999999
aF19.09
aF19.09
aI1159500
aa(lp59
F18.670000000000002
aF19.25
aF19.25
aF18.789999999999999
aF18.789999999999999
aI1116700
aa(lp60
F19.120000000000001
aF19.120000000000001
aF19.120000000000001
aF19.120000000000001
aF19.120000000000001
aI0
aa(lp61
F19.120000000000001
aF19.120000000000001
aF19.120000000000001
aF19.120000000000001
aF19.120000000000001
aI0
aa(lp62
F19.120000000000001
aF19.120000000000001
aF19.120000000000001
aF19.120000000000001
aF19.120000000000001
aI0
aa(lp63
F19.120000000000001
aF19.120000000000001
aF19.120000000000001
aF19.120000000000001
aF19.120000000000001
aI0
aa(lp64
F19.120000000000001
aF19.120000000000001
aF19.120000000000001
aF19.120000000000001
aF19.120000000000001
aI0
aa(lp65
F19.010000000000002
aF19.300000000000001
aF19.199999999999999
aF19.120000000000001
aF19.120000000000001
aI959300
aa(lp66
F18.949999999999999
aF19.219999999999999
aF18.98
aF19.140000000000001
aF19.140000000000001
aI1018700
aa(lp67
F18.77
aF19.149999999999999
aF18.899999999999999
aF18.98
aF18.98
aI1627400
aa(lp68
F18.32
aF18.989999999999998
aF18.32
aF18.789999999999999
aF18.789999999999999
aI1411500
aa(lp69
F18.120000000000001
aF18.379999999999999
aF18.18
aF18.25
aF18.25
aI806700
aa(lp70
F17.800000000000001
aF18.329999999999998
aF17.949999999999999
aF18.18
aF18.18
aI934300
aa(lp71
F17.789999999999999
aF18.379999999999999
aF18.379999999999999
aF17.949999999999999
aF17.949999999999999
aI1478100
aa(lp72
F18.199999999999999
aF19.300000000000001
aF19.149999999999999
aF18.329999999999998
aF18.329999999999998
aI2535500
aa(lp73
F19.280000000000001
aF19.780000000000001
aF19.600000000000001
aF19.300000000000001
aF19.300000000000001
aI1940100
aa(lp74
F19.5
aF20.09
aF20.09
aF19.5
aF19.5
aI2331800
aa(lp75
F19.460000000000001
aF20.09
aF19.5
aF20.079999999999998
aF20.079999999999998
aI2679200
aa(lp76
F19.030000000000001
aF19.489999999999998
aF19.27
aF19.440000000000001
aF19.440000000000001
aI1462700
aa(lp77
F19.280000000000001
aF19.850000000000001
aF19.649999999999999
aF19.300000000000001
aF19.300000000000001
aI1904100
aa(lp78
F19.670000000000002
aF20
aF19.850000000000001
aF19.68
aF19.68
aI2296200
aa(lp79
F19.710000000000001
aF20.239999999999998
aF19.920000000000002
aF20.09
aF20.09
aI3245700
aa(lp80
F19.640000000000001
aF20.27
aF20.260000000000002
aF19.98
aF19.98
aI3684900
aa(lp81
F19.850000000000001
aF20.390000000000001
aF20.239999999999998
aF20.129999999999999
aF20.129999999999999
aI3246700
aa(lp82
F20.210000000000001
aF21
aF21
aF20.25
aF20.25
aI5984500
aa(lp83
F19.73
aF21.5
aF19.879999999999999
aF21.140000000000001
aF21.140000000000001
aI9818600
aa(lp84
F19.73
aF20.800000000000001
aF20.789999999999999
aF20.120000000000001
aF20.120000000000001
aI10765000
aa(lp85
F18.239999999999998
aF20.039999999999999
aF18.239999999999998
aF20.039999999999999
aF20.039999999999999
aI11039100
aa(lp86
F17.559999999999999
aF18.899999999999999
aF17.800000000000001
aF18.219999999999999
aF18.219999999999999
aI5011900
aa(lp87
F17.73
aF18.120000000000001
aF17.73
aF18
aF18
aI2162500
aa(lp88
F17.530000000000001
aF18.199999999999999
aF17.600000000000001
aF17.780000000000001
aF17.780000000000001
aI1908600
aa(lp89
F17.649999999999999
aF18.09
aF17.870000000000001
aF17.699999999999999
aF17.699999999999999
aI1858400
aa(lp90
F17.550000000000001
aF18.350000000000001
aF17.800000000000001
aF18.030000000000001
aF18.030000000000001
aI2483400
aa(lp91
F17.600000000000001
aF18.41
aF18.41
aF17.710000000000001
aF17.710000000000001
aI3279900
aa(lp92
F18.52
aF19.300000000000001
aF18.699999999999999
aF18.68
aF18.68
aI3621600
aa(lp93
F18.469999999999999
aF19.530000000000001
aF18.719999999999999
aF18.93
aF18.93
aI4648000
aa(lp94
F18.449999999999999
aF19.039999999999999
aF18.850000000000001
aF18.649999999999999
aF18.649999999999999
aI2896500
aa(lp95
F18.300000000000001
aF19.25
aF18.300000000000001
aF19.07
aF19.07
aI4057800
aa(lp96
F17.800000000000001
aF18.699999999999999
aF18.100000000000001
aF18.52
aF18.52
aI2935800
aa(lp97
F18.43
aF18.43
aF18.43
aF18.43
aF18.43
aI0
aa(lp98
F18.43
aF18.43
aF18.43
aF18.43
aF18.43
aI0
aa(lp99
F18.050000000000001
aF18.789999999999999
aF18.41
aF18.43
aF18.43
aI2596000
aa(lp100
F18.379999999999999
aF19.239999999999998
aF18.640000000000001
aF18.539999999999999
aF18.539999999999999
aI2883300
aa(lp101
F18.32
aF19
aF18.920000000000002
aF18.620000000000001
aF18.620000000000001
aI2922200
aa(lp102
F18.82
aF19.75
aF19
aF18.920000000000002
aF18.920000000000002
aI3418500
aa(lp103
F18.850000000000001
aF20.059999999999999
aF19.780000000000001
aF19.32
aF19.32
aI5672500
aa(lp104
F18.420000000000002
aF19.890000000000001
aF18.600000000000001
aF19.800000000000001
aF19.800000000000001
aI6256200
aa(lp105
F17.16
aF19.199999999999999
aF17.300000000000001
aF18.390000000000001
aF18.390000000000001
aI5202000
aa(lp106
F17.550000000000001
aF19.280000000000001
aF19.25
aF17.550000000000001
aF17.550000000000001
aI4706700
aa(lp107
F19.109999999999999
aF20.850000000000001
aF20.609999999999999
aF19.5
aF19.5
aI5226700
aa(lp108
F20.859999999999999
aF21.789999999999999
aF21.449999999999999
aF20.940000000000001
aF20.940000000000001
aI3377100
aa(lp109
F21.449999999999999
aF22.649999999999999
aF22.469999999999999
aF21.550000000000001
aF21.550000000000001
aI3939300
aa(lp110
F22.170000000000002
aF22.699999999999999
aF22.43
aF22.379999999999999
aF22.379999999999999
aI3286300
aa(lp111
F22.010000000000002
aF23.100000000000001
aF22.469999999999999
aF22.620000000000001
aF22.620000000000001
aI3952100
aa(lp112
F22.199999999999999
aF23.239999999999998
aF22.98
aF22.469999999999999
aF22.469999999999999
aI5240600
aa(lp113
F21.52
aF23.899999999999999
aF21.899999999999999
aF23.239999999999998
aF23.239999999999998
aI7414700
aa(lp114
F20.66
aF22.32
aF21.5
aF21.920000000000002
aF21.920000000000002
aI6010200
aa(lp115
F21.739999999999998
aF24.109999999999999
aF23.899999999999999
aF21.739999999999998
aF21.739999999999998
aI9759600
aa(lp116
F24
aF24.949999999999999
aF24.5
aF24.149999999999999
aF24.149999999999999
aI7521600
aa(lp117
F24.399999999999999
aF26.800000000000001
aF26.5
aF24.989999999999998
aF24.989999999999998
aI9658700
aa(lp118
F26.5
aF27.390000000000001
aF27.050000000000001
aF26.800000000000001
aF26.800000000000001
aI8660600
aa(lp119
F26.66
aF28.800000000000001
aF28.800000000000001
aF27.120000000000001
aF27.120000000000001
aI13610400
aa(lp120
F26.890000000000001
aF29.300000000000001
aF27
aF28.789999999999999
aF28.789999999999999
aI18062700
aa(lp121
F25.68
aF28.460000000000001
aF26.07
aF27.59
aF27.59
aI15901700
aa(lp122
F26
aF27.489999999999998
aF27.25
aF26.559999999999999
aF26.559999999999999
aI10009800
aa(lp123
F26.530000000000001
aF27.59
aF27.280000000000001
aF26.809999999999999
aF26.809999999999999
aI9242900
aa(lp124
F26.5
aF27.879999999999999
aF27.100000000000001
aF27.329999999999998
aF27.329999999999998
aI11124700
aa(lp125
F26.989999999999998
aF29
aF28.920000000000002
aF27.300000000000001
aF27.300000000000001
aI19010800
aa(lp126
F27.609999999999999
aF30.48
aF27.890000000000001
aF29.670000000000002
aF29.670000000000002
aI24397800
aa(lp127
F28.23
aF30.5
aF29.699999999999999
aF28.460000000000001
aF28.460000000000001
aI31769600
aa(lp128
F24.539999999999999
aF28.09
aF24.789999999999999
aF28.09
aF28.09
aI20657200
aa(lp129
F24.050000000000001
aF27.52
aF24.5
aF25.539999999999999
aF25.539999999999999
aI21013200
aa(lp130
F26.050000000000001
aF29.16
aF27.879999999999999
aF26.530000000000001
aF26.530000000000001
aI37396600
aa(lp131
F25.5
aF26.510000000000002
aF26.510000000000002
aF26.510000000000002
aF26.510000000000002
aI19648500
aa(lp132
F24.100000000000001
aF24.100000000000001
aF24.100000000000001
aF24.100000000000001
aF24.100000000000001
aI886700
aa(lp133
F21.91
aF21.91
aF21.91
aF21.91
aF21.91
aI443100
aa(lp134
F19.920000000000002
aF19.920000000000002
aF19.920000000000002
aF19.920000000000002
aF19.920000000000002
aI432600
aa(lp135
F18.109999999999999
aF18.109999999999999
aF18.109999999999999
aF18.109999999999999
aF18.109999999999999
aI333500
aa(lp136
F16.460000000000001
aF16.460000000000001
aF16.460000000000001
aF16.460000000000001
aF16.460000000000001
aI200300
aa(lp137
F14.960000000000001
aF14.960000000000001
aF14.960000000000001
aF14.960000000000001
aF14.960000000000001
aI112900
aa(lp138
F13.6
aF13.6
aF13.6
aF13.6
aF13.6
aI78400
aa(lp139
F12.359999999999999
aF12.359999999999999
aF12.359999999999999
aF12.359999999999999
aF12.359999999999999
aI36500
aa(lp140
F11.24
aF11.24
aF11.24
aF11.24
aF11.24
aI20400
aa(lp141
F10.220000000000001
aF10.220000000000001
aF10.220000000000001
aF10.220000000000001
aF10.220000000000001
aI36300
aa(lp142
F7.7400000000000002
aF9.2899999999999991
aF7.7400000000000002
aF9.2899999999999991
aF9.2899999999999991
aI113300
aa.