(lp1
(lp2
F37.579999999999998
aF40.689999999999998
aF39
aF39.549999999999997
aF39.549999999999997
aI4729000
aa(lp3
F39.060000000000002
aF41.789999999999999
aF39.799999999999997
aF39.740000000000002
aF39.740000000000002
aI5171000
aa(lp4
F37.200000000000003
aF39.479999999999997
aF37.600000000000001
aF39.420000000000002
aF39.420000000000002
aI4992900
aa(lp5
F36.829999999999998
aF38.200000000000003
aF37.979999999999997
aF38
aF38
aI4210100
aa(lp6
F35.439999999999998
aF38.450000000000003
aF35.439999999999998
aF37.969999999999999
aF37.969999999999999
aI3845300
aa(lp7
F34.109999999999999
aF35.200000000000003
aF34.119999999999997
aF35.149999999999999
aF35.149999999999999
aI1943000
aa(lp8
F33.450000000000003
aF35.850000000000001
aF35.840000000000003
aF33.759999999999998
aF33.759999999999998
aI2344600
aa(lp9
F35.57
aF37.049999999999997
aF36.200000000000003
aF35.82
aF35.82
aI4327800
aa(lp10
F34.799999999999997
aF36.280000000000001
aF36.280000000000001
aF34.840000000000003
aF34.840000000000003
aI2051500
aa(lp11
F35.32
aF36.579999999999998
aF35.689999999999998
aF36.170000000000002
aF36.170000000000002
aI2066500
aa(lp12
F35.700000000000003
aF35.700000000000003
aF35.700000000000003
aF35.700000000000003
aF35.700000000000003
aI0
aa(lp13
F35.299999999999997
aF36
aF35.700000000000003
aF35.700000000000003
aF35.700000000000003
aI2762800
aa(lp14
F34.799999999999997
aF35.939999999999998
aF34.799999999999997
aF35.880000000000003
aF35.880000000000003
aI1798400
aa(lp15
F34.369999999999997
aF37.100000000000001
aF37.100000000000001
aF35.189999999999998
aF35.189999999999998
aI3223600
aa(lp16
F36.689999999999998
aF38
aF37.5
aF37.189999999999998
aF37.189999999999998
aI3427500
aa(lp17
F35.399999999999999
aF37.780000000000001
aF35.530000000000001
aF37.450000000000003
aF37.450000000000003
aI4807800
aa(lp18
F35.350000000000001
aF36.189999999999998
aF35.82
aF35.990000000000002
aF35.990000000000002
aI3053000
aa(lp19
F35
aF36.369999999999997
aF35.799999999999997
aF36.189999999999998
aF36.189999999999998
aI3439700
aa(lp20
F33.57
aF35.740000000000002
aF33.689999999999998
aF35.619999999999997
aF35.619999999999997
aI3194100
aa(lp21
F33.899999999999999
aF36.5
aF36.5
aF33.990000000000002
aF33.990000000000002
aI5024300
aa(lp22
F35.049999999999997
aF39.140000000000001
aF36.380000000000003
aF37.090000000000003
aF37.090000000000003
aI5438000
aa(lp23
F34.100000000000001
aF36.990000000000002
aF35.299999999999997
aF35.619999999999997
aF35.619999999999997
aI5105400
aa(lp24
F36.789999999999999
aF39.789999999999999
aF39.100000000000001
aF36.789999999999999
aF36.789999999999999
aI6629600
aa(lp25
F38.700000000000003
aF41.979999999999997
aF40.149999999999999
aF40.880000000000003
aF40.880000000000003
aI13379900
aa(lp26
F37.619999999999997
aF38.159999999999997
aF38.159999999999997
aF38.159999999999997
aF38.159999999999997
aI2935700
aa(lp27
F34.689999999999998
aF34.689999999999998
aF34.689999999999998
aF34.689999999999998
aF34.689999999999998
aI1456800
aa(lp28
F28.399999999999999
aF32.18
aF29.780000000000001
aF31.539999999999999
aF31.539999999999999
aI6384300
aa(lp29
F28.5
aF30.5
aF30.010000000000002
aF29.539999999999999
aF29.539999999999999
aI3397200
aa(lp30
F28.870000000000001
aF30.780000000000001
aF29.02
aF29.739999999999998
aF29.739999999999998
aI4347400
aa(lp31
F29.02
aF29.02
aF29.02
aF29.02
aF29.02
aI0
aa(lp32
F27.5
aF30.449999999999999
aF27.780000000000001
aF29.02
aF29.02
aI6019500
aa(lp33
F26.5
aF27.879999999999999
aF26.690000000000001
aF27.77
aF27.77
aI5259700
aa(lp34
F26.120000000000001
aF26.640000000000001
aF26.25
aF26.609999999999999
aF26.609999999999999
aI2670900
aa(lp35
F26.050000000000001
aF26.5
aF26.5
aF26.210000000000001
aF26.210000000000001
aI2052900
aa(lp36
F25.66
aF26.91
aF26.649999999999999
aF26.550000000000001
aF26.550000000000001
aI4020100
aa(lp37
F25.93
aF26.850000000000001
aF26.300000000000001
aF26.52
aF26.52
aI3376400
aa(lp38
F25.91
aF26.699999999999999
aF26.699999999999999
aF25.989999999999998
aF25.989999999999998
aI3553700
aa(lp39
F24.73
aF27.09
aF25.010000000000002
aF27.039999999999999
aF27.039999999999999
aI5377300
aa(lp40
F24.379999999999999
aF25.600000000000001
aF25.600000000000001
aF25.02
aF25.02
aI2594600
aa(lp41
F25.219999999999999
aF25.75
aF25.489999999999998
aF25.59
aF25.59
aI2537700
aa(lp42
F25.100000000000001
aF25.73
aF25.219999999999999
aF25.460000000000001
aF25.460000000000001
aI2766100
aa(lp43
F24.809999999999999
aF25.579999999999998
aF25.5
aF25.32
aF25.32
aI2734000
aa(lp44
F24.710000000000001
aF25.489999999999998
aF25
aF25.43
aF25.43
aI2975400
aa(lp45
F24.289999999999999
aF25.16
aF24.649999999999999
aF25.07
aF25.07
aI3318600
aa(lp46
F23.829999999999998
aF24.489999999999998
aF23.920000000000002
aF24.469999999999999
aF24.469999999999999
aI2370700
aa(lp47
F23.199999999999999
aF23.75
aF23.199999999999999
aF23.739999999999998
aF23.739999999999998
aI1108800
aa(lp48
F23.050000000000001
aF23.59
aF23.379999999999999
aF23.190000000000001
aF23.190000000000001
aI1284900
aa(lp49
F23.48
aF23.809999999999999
aF23.800000000000001
aF23.52
aF23.52
aI1145300
aa(lp50
F23.370000000000001
aF23.879999999999999
aF23.870000000000001
aF23.73
aF23.73
aI1176400
aa(lp51
F23.600000000000001
aF23.98
aF23.98
aF23.879999999999999
aF23.879999999999999
aI854900
aa(lp52
F23.809999999999999
aF24.68
aF24.57
aF23.93
aF23.93
aI1565500
aa(lp53
F24.109999999999999
aF24.670000000000002
aF24.27
aF24.550000000000001
aF24.550000000000001
aI1734000
aa(lp54
F23.949999999999999
aF24.199999999999999
aF24.02
aF24.18
aF24.18
aI1428200
aa(lp55
F23.899999999999999
aF24.359999999999999
aF24.34
aF23.940000000000001
aF23.940000000000001
aI1677500
aa(lp56
F23.649999999999999
aF24.469999999999999
aF23.969999999999999
aF24.420000000000002
aF24.420000000000002
aI1637900
aa(lp57
F23.41
aF23.760000000000002
aF23.609999999999999
aF23.699999999999999
aF23.699999999999999
aI906000
aa(lp58
F23.199999999999999
aF23.629999999999999
aF23.329999999999998
aF23.609999999999999
aF23.609999999999999
aI713500
aa(lp59
F23.32
aF23.77
aF23.66
aF23.329999999999998
aF23.329999999999998
aI730300
aa(lp60
F23.66
aF23.66
aF23.66
aF23.66
aF23.66
aI0
aa(lp61
F23.66
aF23.66
aF23.66
aF23.66
aF23.66
aI0
aa(lp62
F23.66
aF23.66
aF23.66
aF23.66
aF23.66
aI0
aa(lp63
F23.66
aF23.66
aF23.66
aF23.66
aF23.66
aI0
aa(lp64
F23.66
aF23.66
aF23.66
aF23.66
aF23.66
aI0
aa(lp65
F23.5
aF23.949999999999999
aF23.920000000000002
aF23.66
aF23.66
aI845800
aa(lp66
F23.399999999999999
aF23.82
aF23.629999999999999
aF23.73
aF23.73
aI968800
aa(lp67
F23.219999999999999
aF23.75
aF23.399999999999999
aF23.629999999999999
aF23.629999999999999
aI1437500
aa(lp68
F22.75
aF23.48
aF22.829999999999998
aF23.170000000000002
aF23.170000000000002
aI1141200
aa(lp69
F22.359999999999999
aF23.199999999999999
aF22.460000000000001
aF22.859999999999999
aF22.859999999999999
aI1139300
aa(lp70
F22.050000000000001
aF22.52
aF22.199999999999999
aF22.300000000000001
aF22.300000000000001
aI1358800
aa(lp71
F22.059999999999999
aF22.649999999999999
aF22.649999999999999
aF22.280000000000001
aF22.280000000000001
aI963100
aa(lp72
F22.600000000000001
aF24.5
aF24.149999999999999
aF22.739999999999998
aF22.739999999999998
aI2092900
aa(lp73
F24.300000000000001
aF24.789999999999999
aF24.789999999999999
aF24.309999999999999
aF24.309999999999999
aI1119100
aa(lp74
F24.309999999999999
aF24.969999999999999
aF24.510000000000002
aF24.370000000000001
aF24.370000000000001
aI1565600
aa(lp75
F24.59
aF25.5
aF24.59
aF24.800000000000001
aF24.800000000000001
aI1937500
aa(lp76
F23.800000000000001
aF24.890000000000001
aF24.350000000000001
aF24.579999999999998
aF24.579999999999998
aI1195000
aa(lp77
F24.420000000000002
aF25.559999999999999
aF25.010000000000002
aF24.440000000000001
aF24.440000000000001
aI2204900
aa(lp78
F25.199999999999999
aF26.399999999999999
aF26.190000000000001
aF25.309999999999999
aF25.309999999999999
aI3780400
aa(lp79
F24.629999999999999
aF27.289999999999999
aF24.98
aF26.5
aF26.5
aI7074200
aa(lp80
F24.350000000000001
aF25.300000000000001
aF25.300000000000001
aF24.98
aF24.98
aI1966400
aa(lp81
F24.350000000000001
aF25.280000000000001
aF24.5
aF25.260000000000002
aF25.260000000000002
aI2537300
aa(lp82
F24.609999999999999
aF25.699999999999999
aF25.300000000000001
aF24.699999999999999
aF24.699999999999999
aI3812000
aa(lp83
F25.25
aF25.829999999999998
aF25.329999999999998
aF25.489999999999998
aF25.489999999999998
aI4794700
aa(lp84
F25.100000000000001
aF26.949999999999999
aF26.940000000000001
aF25.850000000000001
aF25.850000000000001
aI8954000
aa(lp85
F24.210000000000001
aF26.16
aF24.699999999999999
aF26.16
aF26.16
aI11823200
aa(lp86
F21.949999999999999
aF23.780000000000001
aF21.949999999999999
aF23.780000000000001
aF23.780000000000001
aI5639800
aa(lp87
F21.32
aF21.960000000000001
aF21.440000000000001
aF21.620000000000001
aF21.620000000000001
aI1240400
aa(lp88
F21.199999999999999
aF21.66
aF21.350000000000001
aF21.309999999999999
aF21.309999999999999
aI1065400
aa(lp89
F21.079999999999998
aF21.850000000000001
aF21.789999999999999
aF21.25
aF21.25
aI1458700
aa(lp90
F21.25
aF21.98
aF21.300000000000001
aF21.879999999999999
aF21.879999999999999
aI1034700
aa(lp91
F21.510000000000002
aF22.399999999999999
aF22.120000000000001
aF21.579999999999998
aF21.579999999999998
aI1506700
aa(lp92
F22.48
aF23.399999999999999
aF23.399999999999999
aF22.719999999999999
aF22.719999999999999
aI2792300
aa(lp93
F21.66
aF23.5
aF21.800000000000001
aF23.399999999999999
aF23.399999999999999
aI4980500
aa(lp94
F21.52
aF22.27
aF22.27
aF21.760000000000002
aF21.760000000000002
aI1353200
aa(lp95
F21.25
aF22.399999999999999
aF21.399999999999999
aF22.199999999999999
aF22.199999999999999
aI2052000
aa(lp96
F21.100000000000001
aF21.739999999999998
aF21.600000000000001
aF21.550000000000001
aF21.550000000000001
aI1431600
aa(lp97
F22.02
aF22.02
aF22.02
aF22.02
aF22.02
aI0
aa(lp98
F22.02
aF22.02
aF22.02
aF22.02
aF22.02
aI0
aa(lp99
F21.5
aF22.550000000000001
aF22.190000000000001
aF22.02
aF22.02
aI1531500
aa(lp100
F21.800000000000001
aF22.789999999999999
aF21.800000000000001
aF22.25
aF22.25
aI1629800
aa(lp101
F21.350000000000001
aF22.5
aF22.5
aF21.760000000000002
aF21.760000000000002
aI1625400
aa(lp102
F22.300000000000001
aF23
aF22.649999999999999
aF22.609999999999999
aF22.609999999999999
aI1319400
aa(lp103
F22.100000000000001
aF23.390000000000001
aF23.390000000000001
aF23.02
aF23.02
aI3234300
aa(lp104
F21
aF22.809999999999999
aF21.100000000000001
aF22.809999999999999
aF22.809999999999999
aI2522100
aa(lp105
F20.109999999999999
aF21.469999999999999
aF20.109999999999999
aF20.739999999999998
aF20.739999999999998
aI1882000
aa(lp106
F20.16
aF22.559999999999999
aF22.41
aF20.16
aF20.16
aI2166900
aa(lp107
F22.149999999999999
aF24.120000000000001
aF24
aF22.399999999999999
aF22.399999999999999
aI2246800
aa(lp108
F23.800000000000001
aF24.43
aF23.800000000000001
aF23.84
aF23.84
aI1276700
aa(lp109
F23.899999999999999
aF24.620000000000001
aF24.579999999999998
aF23.960000000000001
aF23.960000000000001
aI1907700
aa(lp110
F24.710000000000001
aF25.170000000000002
aF25.02
aF24.809999999999999
aF24.809999999999999
aI1611500
aa(lp111
F24.699999999999999
aF25.52
aF24.899999999999999
aF25.289999999999999
aF25.289999999999999
aI1385800
aa(lp112
F24.800000000000001
aF25.710000000000001
aF25.359999999999999
aF25.059999999999999
aF25.059999999999999
aI1908000
aa(lp113
F24.239999999999998
aF26.010000000000002
aF24.800000000000001
aF25.460000000000001
aF25.460000000000001
aI2763200
aa(lp114
F23.399999999999999
aF25.18
aF23.5
aF24.75
aF24.75
aI2417100
aa(lp115
F23.690000000000001
aF26.489999999999998
aF25.300000000000001
aF23.859999999999999
aF23.859999999999999
aI3409000
aa(lp116
F25.02
aF25.84
aF25.84
aF25.199999999999999
aF25.199999999999999
aI2742400
aa(lp117
F25.649999999999999
aF27.829999999999998
aF27.77
aF25.920000000000002
aF25.920000000000002
aI4252800
aa(lp118
F27.550000000000001
aF28.239999999999998
aF27.710000000000001
aF27.829999999999998
aF27.829999999999998
aI3155400
aa(lp119
F27.350000000000001
aF29
aF28.629999999999999
aF27.949999999999999
aF27.949999999999999
aI4496200
aa(lp120
F27.34
aF29.77
aF27.420000000000002
aF28.629999999999999
aF28.629999999999999
aI6027800
aa(lp121
F27.050000000000001
aF27.850000000000001
aF27.579999999999998
aF27.5
aF27.5
aI2774100
aa(lp122
F27.300000000000001
aF28.25
aF28.050000000000001
aF27.530000000000001
aF27.530000000000001
aI4039400
aa(lp123
F28.02
aF28.949999999999999
aF28.359999999999999
aF28.359999999999999
aF28.359999999999999
aI4606200
aa(lp124
F27.530000000000001
aF28.34
aF27.760000000000002
aF28.300000000000001
aF28.300000000000001
aI3692600
aa(lp125
F27.399999999999999
aF28.870000000000001
aF28.699999999999999
aF27.75
aF27.75
aI5477500
aa(lp126
F28.170000000000002
aF29.350000000000001
aF28.899999999999999
aF28.82
aF28.82
aI5503500
aa(lp127
F28.02
aF30
aF28.359999999999999
aF28.510000000000002
aF28.510000000000002
aI7871100
aa(lp128
F26.5
aF29.100000000000001
aF26.690000000000001
aF28.780000000000001
aF28.780000000000001
aI8007700
aa(lp129
F26.690000000000001
aF27.460000000000001
aF27.300000000000001
aF27.039999999999999
aF27.039999999999999
aI3951400
aa(lp130
F26.300000000000001
aF27.800000000000001
aF26.550000000000001
aF27.600000000000001
aF27.600000000000001
aI5429400
aa(lp131
F25.98
aF27.469999999999999
aF26.280000000000001
aF26.969999999999999
aF26.969999999999999
aI5161200
aa(lp132
F26.510000000000002
aF30
aF29.02
aF26.719999999999999
aF26.719999999999999
aI7713700
aa(lp133
F29.010000000000002
aF31.890000000000001
aF30
aF29.399999999999999
aF29.399999999999999
aI7557800
aa(lp134
F28.280000000000001
aF33
aF30.699999999999999
aF31.890000000000001
aF31.890000000000001
aI11970400
aa(lp135
F30.890000000000001
aF32.899999999999999
aF31.879999999999999
aF31.329999999999998
aF31.329999999999998
aI11075500
aa(lp136
F30.5
aF34.43
aF32.299999999999997
aF33.299999999999997
aF33.299999999999997
aI18225000
aa(lp137
F30.010000000000002
aF31.300000000000001
aF30.079999999999998
aF31.300000000000001
aF31.300000000000001
aI7479400
aa(lp138
F26.449999999999999
aF28.449999999999999
aF27.199999999999999
aF28.449999999999999
aF28.449999999999999
aI14028700
aa(lp139
F22.800000000000001
aF25.859999999999999
aF22.98
aF25.859999999999999
aF25.859999999999999
aI10981600
aa(lp140
F23.449999999999999
aF26.390000000000001
aF24.800000000000001
aF23.510000000000002
aF23.510000000000002
aI16635400
aa(lp141
F21.670000000000002
aF24.059999999999999
aF22.010000000000002
aF24.059999999999999
aF24.059999999999999
aI11628800
aa(lp142
F20.879999999999999
aF22.199999999999999
aF20.98
aF21.870000000000001
aF21.870000000000001
aI10441900
aa(lp143
F20.969999999999999
aF21.739999999999998
aF21.399999999999999
aF21.09
aF21.09
aI8344300
aa(lp144
F20.27
aF22.100000000000001
aF20.449999999999999
aF21.800000000000001
aF21.800000000000001
aI11276400
aa(lp145
F19.879999999999999
aF20.510000000000002
aF19.91
aF20.280000000000001
aF20.280000000000001
aI7437900
aa(lp146
F19.789999999999999
aF21.649999999999999
aF21.579999999999998
aF20.07
aF20.07
aI11165700
aa(lp147
F21.609999999999999
aF22.879999999999999
aF22
aF21.989999999999998
aF21.989999999999998
aI20170500
aa(lp148
F20.050000000000001
aF20.920000000000002
aF20.300000000000001
aF20.920000000000002
aF20.920000000000002
aI10238700
aa(lp149
F19.02
aF19.02
aF19.02
aF19.02
aF19.02
aI1621200
aa(lp150
F17.289999999999999
aF17.289999999999999
aF17.289999999999999
aF17.289999999999999
aF17.289999999999999
aI262200
aa(lp151
F15.720000000000001
aF15.720000000000001
aF15.720000000000001
aF15.720000000000001
aF15.720000000000001
aI71100
aa(lp152
F14.289999999999999
aF14.289999999999999
aF14.289999999999999
aF14.289999999999999
aF14.289999999999999
aI46000
aa(lp153
F12.99
aF12.99
aF12.99
aF12.99
aF12.99
aI22900
aa(lp154
F9.8399999999999999
aF11.81
aF9.8399999999999999
aF11.81
aF11.81
aI48800
aa.