(lp1
(lp2
F20.800000000000001
aF22.359999999999999
aF21.699999999999999
aF21.760000000000002
aF21.760000000000002
aI13665500
aa(lp3
F20.199999999999999
aF22.48
aF20.32
aF21.699999999999999
aF21.699999999999999
aI14025300
aa(lp4
F20.629999999999999
aF21.93
aF21.600000000000001
aF20.710000000000001
aF20.710000000000001
aI20876100
aa(lp5
F19.48
aF21.079999999999998
aF19.48
aF21.079999999999998
aF21.079999999999998
aI14598700
aa(lp6
F18.48
aF19.350000000000001
aF18.48
aF19.16
aF19.16
aI10204400
aa(lp7
F17.93
aF18.460000000000001
aF17.93
aF18.43
aF18.43
aI5198200
aa(lp8
F17.260000000000002
aF17.93
aF17.32
aF17.879999999999999
aF17.879999999999999
aI6951800
aa(lp9
F17.390000000000001
aF18.16
aF17.780000000000001
aF17.530000000000001
aF17.530000000000001
aI6527500
aa(lp10
F17.530000000000001
aF18.510000000000002
aF18.399999999999999
aF17.629999999999999
aF17.629999999999999
aI6608600
aa(lp11
F18.02
aF18.809999999999999
aF18.280000000000001
aF18.489999999999998
aF18.489999999999998
aI5786200
aa(lp12
F18.260000000000002
aF18.260000000000002
aF18.260000000000002
aF18.260000000000002
aF18.260000000000002
aI0
aa(lp13
F18.25
aF18.949999999999999
aF18.699999999999999
aF18.260000000000002
aF18.260000000000002
aI6795300
aa(lp14
F18.379999999999999
aF18.969999999999999
aF18.379999999999999
aF18.68
aF18.68
aI6959700
aa(lp15
F18.190000000000001
aF19.309999999999999
aF19.309999999999999
aF18.329999999999998
aF18.329999999999998
aI11488600
aa(lp16
F19.199999999999999
aF19.800000000000001
aF19.25
aF19.32
aF19.32
aI12566300
aa(lp17
F19.100000000000001
aF21.199999999999999
aF21.199999999999999
aF19.710000000000001
aF19.710000000000001
aI25984300
aa(lp18
F17.789999999999999
aF19.57
aF17.789999999999999
aF19.57
aF19.57
aI22097000
aa(lp19
F17.530000000000001
aF17.91
aF17.539999999999999
aF17.789999999999999
aF17.789999999999999
aI9634600
aa(lp20
F16.890000000000001
aF17.52
aF16.899999999999999
aF17.5
aF17.5
aI6358600
aa(lp21
F16.91
aF17.399999999999999
aF17.399999999999999
aF16.920000000000002
aF16.920000000000002
aI9041600
aa(lp22
F17.449999999999999
aF18.48
aF17.98
aF17.48
aF17.48
aI14150400
aa(lp23
F16.629999999999999
aF17.390000000000001
aF17
aF17.129999999999999
aF17.129999999999999
aI6626700
aa(lp24
F17.079999999999998
aF18.079999999999998
aF17.850000000000001
aF17.18
aF17.18
aI9806600
aa(lp25
F17.079999999999998
aF18.07
aF17.190000000000001
aF18.039999999999999
aF18.039999999999999
aI14699000
aa(lp26
F16.800000000000001
aF17.399999999999999
aF16.949999999999999
aF17.27
aF17.27
aI9702000
aa(lp27
F16.239999999999998
aF16.84
aF16.440000000000001
aF16.780000000000001
aF16.780000000000001
aI7390100
aa(lp28
F16.079999999999998
aF17.07
aF17.059999999999999
aF16.489999999999998
aF16.489999999999998
aI11493000
aa(lp29
F17.010000000000002
aF17.859999999999999
aF17.489999999999998
aF17.34
aF17.34
aI10278900
aa(lp30
F17
aF17.420000000000002
aF17.210000000000001
aF17.350000000000001
aF17.350000000000001
aI10390400
aa(lp31
F17.190000000000001
aF17.190000000000001
aF17.190000000000001
aF17.190000000000001
aF17.190000000000001
aI0
aa(lp32
F16.609999999999999
aF17.5
aF16.719999999999999
aF17.190000000000001
aF17.190000000000001
aI11541300
aa(lp33
F16.34
aF16.789999999999999
aF16.350000000000001
aF16.780000000000001
aF16.780000000000001
aI10867100
aa(lp34
F16.140000000000001
aF16.379999999999999
aF16.170000000000002
aF16.350000000000001
aF16.350000000000001
aI6198000
aa(lp35
F16.109999999999999
aF16.579999999999998
aF16.579999999999998
aF16.18
aF16.18
aI6704500
aa(lp36
F16.23
aF16.449999999999999
aF16.359999999999999
aF16.420000000000002
aF16.420000000000002
aI7749300
aa(lp37
F16.25
aF16.460000000000001
aF16.289999999999999
aF16.289999999999999
aF16.289999999999999
aI4819200
aa(lp38
F16.25
aF16.739999999999998
aF16.469999999999999
aF16.289999999999999
aF16.289999999999999
aI8396100
aa(lp39
F15.75
aF16.789999999999999
aF15.92
aF16.559999999999999
aF16.559999999999999
aI11917300
aa(lp40
F15.630000000000001
aF16.379999999999999
aF16.379999999999999
aF15.94
aF15.94
aI8641500
aa(lp41
F16.039999999999999
aF16.390000000000001
aF16.039999999999999
aF16.289999999999999
aF16.289999999999999
aI9121200
aa(lp42
F15.880000000000001
aF16.170000000000002
aF16.120000000000001
aF16.039999999999999
aF16.039999999999999
aI6816000
aa(lp43
F15.83
aF16.25
aF16.149999999999999
aF16.010000000000002
aF16.010000000000002
aI8754800
aa(lp44
F15.619999999999999
aF16.140000000000001
aF15.77
aF16.129999999999999
aF16.129999999999999
aI10907300
aa(lp45
F15.43
aF15.859999999999999
aF15.58
aF15.779999999999999
aF15.779999999999999
aI9854400
aa(lp46
F15.25
aF15.539999999999999
aF15.26
aF15.529999999999999
aF15.529999999999999
aI7093100
aa(lp47
F15.109999999999999
aF15.48
aF15.119999999999999
aF15.26
aF15.26
aI4651100
aa(lp48
F14.880000000000001
aF15.17
aF15.1
aF14.92
aF14.92
aI3680700
aa(lp49
F15.02
aF15.35
aF15.279999999999999
aF15.050000000000001
aF15.050000000000001
aI3503800
aa(lp50
F15.15
aF15.359999999999999
aF15.25
aF15.279999999999999
aF15.279999999999999
aI3561100
aa(lp51
F15.01
aF15.26
aF15.25
aF15.25
aF15.25
aI2609600
aa(lp52
F15.16
aF15.720000000000001
aF15.449999999999999
aF15.199999999999999
aF15.199999999999999
aI4475700
aa(lp53
F15.300000000000001
aF15.69
aF15.619999999999999
aF15.369999999999999
aF15.369999999999999
aI6139500
aa(lp54
F15.050000000000001
aF15.800000000000001
aF15.07
aF15.710000000000001
aF15.710000000000001
aI12151900
aa(lp55
F15.08
aF15.220000000000001
aF15.18
aF15.09
aF15.09
aI4363200
aa(lp56
F15.06
aF15.369999999999999
aF15.369999999999999
aF15.26
aF15.26
aI4587400
aa(lp57
F14.800000000000001
aF15.35
aF14.800000000000001
aF15.23
aF15.23
aI6350800
aa(lp58
F14.6
aF14.92
aF14.6
aF14.91
aF14.91
aI2839600
aa(lp59
F14.56
aF14.69
aF14.609999999999999
aF14.58
aF14.58
aI1602500
aa(lp60
F14.69
aF14.69
aF14.69
aF14.69
aF14.69
aI0
aa(lp61
F14.69
aF14.69
aF14.69
aF14.69
aF14.69
aI0
aa(lp62
F14.69
aF14.69
aF14.69
aF14.69
aF14.69
aI0
aa(lp63
F14.69
aF14.69
aF14.69
aF14.69
aF14.69
aI0
aa(lp64
F14.69
aF14.69
aF14.69
aF14.69
aF14.69
aI0
aa(lp65
F14.619999999999999
aF14.75
aF14.699999999999999
aF14.69
aF14.69
aI1796700
aa(lp66
F14.58
aF14.75
aF14.630000000000001
aF14.69
aF14.69
aI2214400
aa(lp67
F14.43
aF14.65
aF14.550000000000001
aF14.57
aF14.57
aI2214000
aa(lp68
F14.26
aF14.5
aF14.380000000000001
aF14.470000000000001
aF14.470000000000001
aI1448900
aa(lp69
F14.19
aF14.380000000000001
aF14.24
aF14.300000000000001
aF14.300000000000001
aI1252100
aa(lp70
F14.119999999999999
aF14.27
aF14.210000000000001
aF14.19
aF14.19
aI1344100
aa(lp71
F14.050000000000001
aF14.26
aF14.06
aF14.19
aF14.19
aI1297500
aa(lp72
F14.1
aF14.52
aF14.51
aF14.15
aF14.15
aI3014200
aa(lp73
F14.52
aF14.98
aF14.91
aF14.529999999999999
aF14.529999999999999
aI2520700
aa(lp74
F14.68
aF14.91
aF14.869999999999999
aF14.699999999999999
aF14.699999999999999
aI2581100
aa(lp75
F14.640000000000001
aF15
aF15
aF14.92
aF14.92
aI4087500
aa(lp76
F15
aF15.550000000000001
aF15.07
aF15.09
aF15.09
aI5869000
aa(lp77
F14.74
aF15.17
aF14.949999999999999
aF14.880000000000001
aF14.880000000000001
aI2501200
aa(lp78
F14.69
aF15
aF14.69
aF14.869999999999999
aF14.869999999999999
aI3610800
aa(lp79
F15.220000000000001
aF15.56
aF15.380000000000001
aF15.27
aF15.27
aI4141200
aa(lp80
F15.1
aF15.41
aF15.23
aF15.390000000000001
aF15.390000000000001
aI4812800
aa(lp81
F15.06
aF15.27
aF15.07
aF15.24
aF15.24
aI3042000
aa(lp82
F15.09
aF15.640000000000001
aF15.59
aF15.1
aF15.1
aI6624600
aa(lp83
F15.369999999999999
aF15.73
aF15.5
aF15.6
aF15.6
aI6514900
aa(lp84
F15.050000000000001
aF15.67
aF15.17
aF15.58
aF15.58
aI10416700
aa(lp85
F14.56
aF15.16
aF14.56
aF15.15
aF15.15
aI6865200
aa(lp86
F14.300000000000001
aF15.130000000000001
aF14.41
aF14.529999999999999
aF14.529999999999999
aI5701100
aa(lp87
F14.41
aF15.140000000000001
aF14.49
aF14.84
aF14.84
aI5425000
aa(lp88
F14.26
aF14.51
aF14.26
aF14.42
aF14.42
aI2064500
aa(lp89
F14.220000000000001
aF14.42
aF14.35
aF14.31
aF14.31
aI1892100
aa(lp90
F14.19
aF14.550000000000001
aF14.220000000000001
aF14.460000000000001
aF14.460000000000001
aI2382500
aa(lp91
F14.16
aF14.779999999999999
aF14.779999999999999
aF14.210000000000001
aF14.210000000000001
aI4714500
aa(lp92
F14.83
aF15.69
aF14.99
aF14.91
aF14.91
aI7377800
aa(lp93
F14.52
aF15.800000000000001
aF14.52
aF15.26
aF15.26
aI14445900
aa(lp94
F14.369999999999999
aF14.699999999999999
aF14.699999999999999
aF14.460000000000001
aF14.460000000000001
aI2938700
aa(lp95
F14.210000000000001
aF14.880000000000001
aF14.300000000000001
aF14.710000000000001
aF14.710000000000001
aI4353800
aa(lp96
F14.1
aF14.4
aF14.279999999999999
aF14.369999999999999
aF14.369999999999999
aI2658300
aa(lp97
F14.35
aF14.35
aF14.35
aF14.35
aF14.35
aI0
aa(lp98
F14.35
aF14.35
aF14.35
aF14.35
aF14.35
aI0
aa(lp99
F14.050000000000001
aF14.380000000000001
aF14.289999999999999
aF14.35
aF14.35
aI2343200
aa(lp100
F14.09
aF14.74
aF14.52
aF14.279999999999999
aF14.279999999999999
aI4110900
aa(lp101
F14.49
aF14.94
aF14.91
aF14.51
aF14.51
aI4808300
aa(lp102
F14.970000000000001
aF15.23
aF15.15
aF15.06
aF15.06
aI3433700
aa(lp103
F14.93
aF15.369999999999999
aF15.1
aF15.140000000000001
aF15.140000000000001
aI4708600
aa(lp104
F14.960000000000001
aF15.52
aF15.09
aF15.23
aF15.23
aI4419700
aa(lp105
F14.98
aF15.84
aF15.109999999999999
aF15.06
aF15.06
aI5769000
aa(lp106
F14.300000000000001
aF16.27
aF15.4
aF15.779999999999999
aF15.779999999999999
aI11458600
aa(lp107
F15.17
aF16.5
aF16.5
aF15.77
aF15.77
aI14110000
aa(lp108
F14.880000000000001
aF16.280000000000001
aF14.880000000000001
aF16.280000000000001
aF16.280000000000001
aI12629500
aa(lp109
F14.720000000000001
aF15.109999999999999
aF15.039999999999999
aF14.800000000000001
aF14.800000000000001
aI4262900
aa(lp110
F14.93
aF15.27
aF15.220000000000001
aF15.15
aF15.15
aI5066600
aa(lp111
F15.199999999999999
aF15.460000000000001
aF15.210000000000001
aF15.449999999999999
aF15.449999999999999
aI4271500
aa(lp112
F15.35
aF15.859999999999999
aF15.550000000000001
aF15.51
aF15.51
aI5276100
aa(lp113
F14.81
aF15.640000000000001
aF15
aF15.59
aF15.59
aI6886100
aa(lp114
F14.380000000000001
aF15.23
aF14.5
aF15.130000000000001
aF15.130000000000001
aI6187300
aa(lp115
F14.52
aF15.58
aF15.58
aF14.58
aF14.58
aI10878000
aa(lp116
F15.32
aF16.039999999999999
aF15.65
aF15.699999999999999
aF15.699999999999999
aI7962700
aa(lp117
F15.300000000000001
aF16.82
aF16.809999999999999
aF15.640000000000001
aF15.640000000000001
aI13271700
aa(lp118
F16.609999999999999
aF16.949999999999999
aF16.800000000000001
aF16.809999999999999
aF16.809999999999999
aI8510800
aa(lp119
F16.510000000000002
aF17.370000000000001
aF17
aF16.879999999999999
aF16.879999999999999
aI13003200
aa(lp120
F17.09
aF17.850000000000001
aF17.300000000000001
aF17.23
aF17.23
aI19565100
aa(lp121
F16.199999999999999
aF17.300000000000001
aF16.559999999999999
aF17.280000000000001
aF17.280000000000001
aI16390000
aa(lp122
F16.100000000000001
aF16.75
aF16.52
aF16.550000000000001
aF16.550000000000001
aI11514300
aa(lp123
F16.460000000000001
aF17.170000000000002
aF16.890000000000001
aF16.52
aF16.52
aI13508500
aa(lp124
F16.600000000000001
aF17.219999999999999
aF17.02
aF16.760000000000002
aF16.760000000000002
aI14113100
aa(lp125
F16.84
aF17.449999999999999
aF17.18
aF17.149999999999999
aF17.149999999999999
aI18954400
aa(lp126
F16.77
aF17.949999999999999
aF16.82
aF17.539999999999999
aF17.539999999999999
aI23610900
aa(lp127
F17.210000000000001
aF18.649999999999999
aF17.289999999999999
aF17.359999999999999
aF17.359999999999999
aI29599400
aa(lp128
F16.600000000000001
aF17.440000000000001
aF16.899999999999999
aF17.219999999999999
aF17.219999999999999
aI21964200
aa(lp129
F16.57
aF17.870000000000001
aF17
aF17.59
aF17.59
aI36603500
aa(lp130
F15.109999999999999
aF16.899999999999999
aF15.199999999999999
aF16.899999999999999
aF16.899999999999999
aI23577400
aa(lp131
F14.880000000000001
aF16.550000000000001
aF15.119999999999999
aF15.359999999999999
aF15.359999999999999
aI21388500
aa(lp132
F15.6
aF18.25
aF17.5
aF15.82
aF15.82
aI40854100
aa(lp133
F16.129999999999999
aF16.920000000000002
aF16.359999999999999
aF16.920000000000002
aF16.920000000000002
aI11689300
aa(lp134
F13.84
aF15.380000000000001
aF13.92
aF15.380000000000001
aF15.380000000000001
aI11024600
aa(lp135
F13.710000000000001
aF14.880000000000001
aF14.880000000000001
aF13.98
aF13.98
aI12257800
aa(lp136
F14.32
aF15.08
aF14.56
aF14.869999999999999
aF14.869999999999999
aI16500300
aa(lp137
F14.02
aF15.48
aF14.15
aF14.66
aF14.66
aI25426200
aa(lp138
F13.52
aF14.18
aF13.57
aF14.15
aF14.15
aI14083600
aa(lp139
F13.130000000000001
aF13.85
aF13.18
aF13.68
aF13.68
aI8767100
aa(lp140
F13.19
aF13.57
aF13.57
aF13.210000000000001
aF13.210000000000001
aI4703100
aa(lp141
F13.210000000000001
aF13.619999999999999
aF13.210000000000001
aF13.59
aF13.59
aI7092100
aa(lp142
F13.050000000000001
aF13.43
aF13.300000000000001
aF13.19
aF13.19
aI6153500
aa(lp143
F13
aF13.220000000000001
aF13.220000000000001
aF13.050000000000001
aF13.050000000000001
aI4520400
aa(lp144
F12.69
aF13.27
aF12.699999999999999
aF13.23
aF13.23
aI6807900
aa(lp145
F12.470000000000001
aF12.74
aF12.48
aF12.710000000000001
aF12.710000000000001
aI4098800
aa(lp146
F12.18
aF12.880000000000001
aF12.800000000000001
aF12.359999999999999
aF12.359999999999999
aI6271800
aa(lp147
F13
aF13.5
aF13.5
aF13.029999999999999
aF13.029999999999999
aI8385100
aa(lp148
F13.66
aF14.380000000000001
aF14.25
aF13.720000000000001
aF13.720000000000001
aI9964100
aa(lp149
F13.369999999999999
aF14.300000000000001
aF13.470000000000001
aF14.300000000000001
aF14.300000000000001
aI19399100
aa(lp150
F13.17
aF13.529999999999999
aF13.289999999999999
aF13.460000000000001
aF13.460000000000001
aI4360800
aa(lp151
F13.130000000000001
aF13.33
aF13.17
aF13.289999999999999
aF13.289999999999999
aI2286300
aa(lp152
F12.82
aF13.42
aF13.35
aF13.17
aF13.17
aI4450700
aa(lp153
F13.35
aF13.609999999999999
aF13.48
aF13.42
aF13.42
aI2542900
aa(lp154
F13.42
aF13.59
aF13.550000000000001
aF13.49
aF13.49
aI2292500
aa(lp155
F13.48
aF13.68
aF13.58
aF13.529999999999999
aF13.529999999999999
aI2377100
aa(lp156
F13.5
aF13.710000000000001
aF13.710000000000001
aF13.609999999999999
aF13.609999999999999
aI3316000
aa(lp157
F13.699999999999999
aF13.880000000000001
aF13.75
aF13.789999999999999
aF13.789999999999999
aI3895800
aa(lp158
F13.66
aF13.85
aF13.82
aF13.779999999999999
aF13.779999999999999
aI3498100
aa(lp159
F13.609999999999999
aF13.85
aF13.710000000000001
aF13.81
aF13.81
aI3117600
aa(lp160
F13.699999999999999
aF13.699999999999999
aF13.699999999999999
aF13.699999999999999
aF13.699999999999999
aI0
aa(lp161
F13.699999999999999
aF13.699999999999999
aF13.699999999999999
aF13.699999999999999
aF13.699999999999999
aI0
aa(lp162
F13.699999999999999
aF13.699999999999999
aF13.699999999999999
aF13.699999999999999
aF13.699999999999999
aI0
aa(lp163
F13.699999999999999
aF13.699999999999999
aF13.699999999999999
aF13.699999999999999
aF13.699999999999999
aI0
aa(lp164
F13.699999999999999
aF13.699999999999999
aF13.699999999999999
aF13.699999999999999
aF13.699999999999999
aI0
aa(lp165
F13.65
aF13.800000000000001
aF13.720000000000001
aF13.699999999999999
aF13.699999999999999
aI2715600
aa(lp166
F13.630000000000001
aF13.82
aF13.630000000000001
aF13.69
aF13.69
aI3133900
aa(lp167
F13.5
aF13.69
aF13.69
aF13.6
aF13.6
aI3406500
aa(lp168
F13.65
aF13.949999999999999
aF13.880000000000001
aF13.710000000000001
aF13.710000000000001
aI4042000
aa(lp169
F13.69
aF13.949999999999999
aF13.699999999999999
aF13.85
aF13.85
aI3821500
aa(lp170
F13.6
aF13.98
aF13.609999999999999
aF13.91
aF13.91
aI5061800
aa(lp171
F13.41
aF14.15
aF13.720000000000001
aF13.869999999999999
aF13.869999999999999
aI6971200
aa(lp172
F13.550000000000001
aF14.09
aF13.57
aF13.789999999999999
aF13.789999999999999
aI4624200
aa(lp173
F13.49
aF13.630000000000001
aF13.550000000000001
aF13.539999999999999
aF13.539999999999999
aI3025700
aa(lp174
F13.33
aF13.68
aF13.52
aF13.65
aF13.65
aI3564600
aa(lp175
F13.51
aF14.24
aF14.220000000000001
aF13.529999999999999
aF13.529999999999999
aI9498300
aa(lp176
F14.16
aF14.32
aF14.32
aF14.220000000000001
aF14.220000000000001
aI4440100
aa(lp177
F14.15
aF14.35
aF14.300000000000001
aF14.300000000000001
aF14.300000000000001
aI5249500
aa(lp178
F14.130000000000001
aF14.449999999999999
aF14.4
aF14.289999999999999
aF14.289999999999999
aI7758100
aa(lp179
F14.1
aF14.52
aF14.26
aF14.369999999999999
aF14.369999999999999
aI8567700
aa(lp180
F14.140000000000001
aF14.66
aF14.550000000000001
aF14.31
aF14.31
aI8873100
aa(lp181
F14.52
aF14.52
aF14.52
aF14.52
aF14.52
aI0
aa(lp182
F14.27
aF14.6
aF14.42
aF14.52
aF14.52
aI11123600
aa(lp183
F13.92
aF14.58
aF14.1
aF14.41
aF14.41
aI12780300
aa(lp184
F14.33
aF14.81
aF14.33
aF14.44
aF14.44
aI11692600
aa(lp185
F14.07
aF14.52
aF14.199999999999999
aF14.33
aF14.33
aI11343300
aa(lp186
F13.800000000000001
aF14.289999999999999
aF14.210000000000001
aF14.18
aF14.18
aI8504600
aa(lp187
F13.48
aF14.5
aF13.49
aF14.140000000000001
aF14.140000000000001
aI12893500
aa(lp188
F13.369999999999999
aF14
aF14
aF13.470000000000001
aF13.470000000000001
aI11335700
aa(lp189
F14.029999999999999
aF14.640000000000001
aF14.449999999999999
aF14.08
aF14.08
aI11447200
aa(lp190
F14.300000000000001
aF14.869999999999999
aF14.5
aF14.390000000000001
aF14.390000000000001
aI18186700
aa(lp191
F13.890000000000001
aF16
aF14.5
aF15.33
aF15.33
aI32285300
aa(lp192
F14.49
aF15.57
aF15.550000000000001
aF14.869999999999999
aF14.869999999999999
aI35097600
aa(lp193
F14.970000000000001
aF16.100000000000001
aF15
aF16.100000000000001
aF16.100000000000001
aI49077600
aa(lp194
F13.609999999999999
aF14.640000000000001
aF13.66
aF14.640000000000001
aF14.640000000000001
aI41063800
aa(lp195
F11.880000000000001
aF13.31
aF12
aF13.31
aF13.31
aI40389200
aa(lp196
F11.48
aF12.130000000000001
aF11.6
aF12.1
aF12.1
aI27090000
aa(lp197
F11.699999999999999
aF13.33
aF13.33
aF11.869999999999999
aF11.869999999999999
aI44299500
aa(lp198
F12.41
aF12.41
aF12.41
aF12.41
aF12.41
aI11200300
aa(lp199
F11.279999999999999
aF11.279999999999999
aF11.279999999999999
aF11.279999999999999
aF11.279999999999999
aI948600
aa(lp200
F10.25
aF10.25
aF10.25
aF10.25
aF10.25
aI177900
aa(lp201
F9.3200000000000003
aF9.3200000000000003
aF9.3200000000000003
aF9.3200000000000003
aF9.3200000000000003
aI110600
aa(lp202
F7.0599999999999996
aF8.4700000000000006
aF7.0599999999999996
aF8.4700000000000006
aF8.4700000000000006
aI277900
aa.