(lp1
(lp2
F34.509999999999998
aF37.909999999999997
aF35.399999999999999
aF36.759999999999998
aF36.759999999999998
aI9943900
aa(lp3
F34.850000000000001
aF37.979999999999997
aF34.850000000000001
aF35.979999999999997
aF35.979999999999997
aI12152100
aa(lp4
F30.559999999999999
aF34.670000000000002
aF30.890000000000001
aF34.670000000000002
aF34.670000000000002
aI13066700
aa(lp5
F31.280000000000001
aF33.390000000000001
aF31.82
aF31.52
aF31.52
aI12494600
aa(lp6
F29.300000000000001
aF32.020000000000003
aF30.190000000000001
aF31.68
aF31.68
aI11038100
aa(lp7
F28.149999999999999
aF29.789999999999999
aF28.199999999999999
aF29.77
aF29.77
aI7492200
aa(lp8
F27.77
aF29.41
aF29
aF28.109999999999999
aF28.109999999999999
aI6206200
aa(lp9
F28.280000000000001
aF30.48
aF28.489999999999998
aF29.370000000000001
aF29.370000000000001
aI11279400
aa(lp10
F27.98
aF29.649999999999999
aF29
aF28.100000000000001
aF28.100000000000001
aI7677000
aa(lp11
F28
aF30
aF28.850000000000001
aF29.57
aF29.57
aI12468500
aa(lp12
F28.129999999999999
aF28.129999999999999
aF28.129999999999999
aF28.129999999999999
aF28.129999999999999
aI0
aa(lp13
F27.550000000000001
aF29.809999999999999
aF27.550000000000001
aF28.129999999999999
aF28.129999999999999
aI14520600
aa(lp14
F26.010000000000002
aF27.5
aF26.09
aF27.100000000000001
aF27.100000000000001
aI8836900
aa(lp15
F25.550000000000001
aF27.289999999999999
aF27.289999999999999
aF25.690000000000001
aF25.690000000000001
aI6020600
aa(lp16
F27.050000000000001
aF27.879999999999999
aF27.800000000000001
aF27.300000000000001
aF27.100000000000001
aI7622800
aa(lp17
F25.699999999999999
aF28.059999999999999
aF25.800000000000001
aF27.699999999999999
aF27.5
aI11497200
aa(lp18
F26.02
aF26.75
aF26.68
aF26.260000000000002
aF26.07
aI5311200
aa(lp19
F25.879999999999999
aF26.59
aF25.879999999999999
aF26.420000000000002
aF26.23
aI5852000
aa(lp20
F25
aF25.98
aF25.02
aF25.809999999999999
aF25.620000000000001
aI5256700
aa(lp21
F25
aF26.16
aF26.16
aF25.059999999999999
aF24.879999999999999
aI6088500
aa(lp22
F26
aF26.48
aF26.379999999999999
aF26.059999999999999
aF25.870000000000001
aI6400700
aa(lp23
F24.82
aF26.379999999999999
aF25.350000000000001
aF26.18
aF25.989999999999998
aI5990700
aa(lp24
F25.32
aF27.100000000000001
aF27.100000000000001
aF25.370000000000001
aF25.18
aI8135700
aa(lp25
F27.18
aF28.190000000000001
aF27.59
aF27.34
aF27.140000000000001
aI8353700
aa(lp26
F27.050000000000001
aF28.300000000000001
aF27.530000000000001
aF27.800000000000001
aF27.600000000000001
aI9213600
aa(lp27
F27.09
aF28.5
aF27.390000000000001
aF27.690000000000001
aF27.489999999999998
aI9697600
aa(lp28
F27.050000000000001
aF28.66
aF28.489999999999998
aF27.640000000000001
aF27.440000000000001
aI14698000
aa(lp29
F26.030000000000001
aF29.699999999999999
aF27.399999999999999
aF29.149999999999999
aF28.940000000000001
aI24898500
aa(lp30
F24.600000000000001
aF27.030000000000001
aF24.66
aF27.030000000000001
aF26.829999999999998
aI20084700
aa(lp31
F24.57
aF24.57
aF24.57
aF24.57
aF24.390000000000001
aI0
aa(lp32
F24.030000000000001
aF24.649999999999999
aF24.199999999999999
aF24.57
aF24.390000000000001
aI8205000
aa(lp33
F23.800000000000001
aF24.460000000000001
aF23.949999999999999
aF24.440000000000001
aF24.260000000000002
aI7769900
aa(lp34
F23.460000000000001
aF24.140000000000001
aF23.550000000000001
aF23.940000000000001
aF23.760000000000002
aI6557800
aa(lp35
F23.329999999999998
aF23.77
aF23.719999999999999
aF23.59
aF23.420000000000002
aI5189900
aa(lp36
F23.390000000000001
aF23.760000000000002
aF23.460000000000001
aF23.690000000000001
aF23.52
aI5138800
aa(lp37
F23.199999999999999
aF23.719999999999999
aF23.530000000000001
aF23.43
aF23.260000000000002
aI4265700
aa(lp38
F23.329999999999998
aF24
aF24
aF23.530000000000001
aF23.359999999999999
aI6574200
aa(lp39
F23.440000000000001
aF24.399999999999999
aF23.5
aF24.210000000000001
aF24.030000000000001
aI9947200
aa(lp40
F23
aF23.800000000000001
aF23.449999999999999
aF23.420000000000002
aF23.25
aI6975000
aa(lp41
F23.18
aF23.469999999999999
aF23.379999999999999
aF23.43
aF23.260000000000002
aI5612900
aa(lp42
F23.16
aF23.609999999999999
aF23.5
aF23.300000000000001
aF23.129999999999999
aI5848600
aa(lp43
F23.030000000000001
aF23.870000000000001
aF23.300000000000001
aF23.559999999999999
aF23.390000000000001
aI7461200
aa(lp44
F22.800000000000001
aF23.379999999999999
aF23.030000000000001
aF23.23
aF23.059999999999999
aI6133600
aa(lp45
F22.809999999999999
aF23.120000000000001
aF22.969999999999999
aF23.039999999999999
aF22.870000000000001
aI5763400
aa(lp46
F22.41
aF23.59
aF22.41
aF23.059999999999999
aF22.890000000000001
aI7308900
aa(lp47
F21.77
aF22.489999999999998
aF21.899999999999999
aF22.32
aF22.16
aI5312300
aa(lp48
F21.609999999999999
aF22.43
aF22.300000000000001
aF21.780000000000001
aF21.620000000000001
aI6243800
aa(lp49
F22.129999999999999
aF22.91
aF22.91
aF22.289999999999999
aF22.129999999999999
aI7200000
aa(lp50
F22.420000000000002
aF22.969999999999999
aF22.710000000000001
aF22.93
aF22.760000000000002
aI5900200
aa(lp51
F22.32
aF23.460000000000001
aF22.879999999999999
aF22.68
aF22.510000000000002
aI9420300
aa(lp52
F24.210000000000001
aF25.879999999999999
aF24.609999999999999
aF24.260000000000002
aF24.079999999999998
aI10729300
aa(lp53
F24.530000000000001
aF25.5
aF25.010000000000002
aF24.629999999999999
aF24.449999999999999
aI13163800
aa(lp54
F24.329999999999998
aF26.18
aF25.300000000000001
aF25.73
aF25.539999999999999
aI22709000
aa(lp55
F25.32
aF27.030000000000001
aF27.030000000000001
aF27.030000000000001
aF26.829999999999998
aI32848700
aa(lp56
F24.57
aF24.57
aF24.57
aF24.57
aF24.390000000000001
aI531300
aa(lp57
F22.34
aF22.34
aF22.34
aF22.34
aF22.18
aI234400
aa(lp58
F20.309999999999999
aF20.309999999999999
aF20.309999999999999
aF20.309999999999999
aF20.16
aI28700
aa(lp59
F18.460000000000001
aF18.460000000000001
aF18.460000000000001
aF18.460000000000001
aF18.32
aI23600
aa(lp60
F16.780000000000001
aF16.780000000000001
aF16.780000000000001
aF16.780000000000001
aF16.66
aI0
aa(lp61
F16.780000000000001
aF16.780000000000001
aF16.780000000000001
aF16.780000000000001
aF16.66
aI0
aa(lp62
F16.780000000000001
aF16.780000000000001
aF16.780000000000001
aF16.780000000000001
aF16.66
aI0
aa(lp63
F16.780000000000001
aF16.780000000000001
aF16.780000000000001
aF16.780000000000001
aF16.66
aI0
aa(lp64
F16.780000000000001
aF16.780000000000001
aF16.780000000000001
aF16.780000000000001
aF16.66
aI0
aa(lp65
F16.780000000000001
aF16.780000000000001
aF16.780000000000001
aF16.780000000000001
aF16.66
aI82000
aa.