(lp1
(lp2
F61.780000000000001
aF66.299999999999997
aF64
aF65.450000000000003
aF65.450000000000003
aI2385800
aa(lp3
F60.030000000000001
aF66.5
aF61.579999999999998
aF65.069999999999993
aF65.069999999999993
aI2628400
aa(lp4
F58.649999999999999
aF62.299999999999997
aF60
aF61.43
aF61.43
aI2565700
aa(lp5
F59.729999999999997
aF65.790000000000006
aF61.460000000000001
aF61.310000000000002
aF61.310000000000002
aI4049600
aa(lp6
F58.109999999999999
aF61.5
aF59.289999999999999
aF61.030000000000001
aF61.030000000000001
aI3191600
aa(lp7
F54.009999999999998
aF58.880000000000003
aF55.68
aF58.719999999999999
aF58.719999999999999
aI3468500
aa(lp8
F51.659999999999997
aF56.509999999999998
aF52.299999999999997
aF55.380000000000003
aF55.380000000000003
aI3257300
aa(lp9
F50.82
aF55.979999999999997
aF51.409999999999997
aF53.170000000000002
aF53.170000000000002
aI3481500
aa(lp10
F48.549999999999997
aF51.93
aF49.609999999999999
aF51.369999999999997
aF51.369999999999997
aI2534800
aa(lp11
F49.350000000000001
aF51.18
aF50.420000000000002
aF49.609999999999999
aF49.609999999999999
aI1224700
aa(lp12
F50.57
aF50.57
aF50.57
aF50.57
aF50.57
aI0
aa(lp13
F49.880000000000003
aF51.579999999999998
aF49.899999999999999
aF50.57
aF50.57
aI1906100
aa(lp14
F47.530000000000001
aF49.880000000000003
aF47.530000000000001
aF49.590000000000003
aF49.590000000000003
aI1335300
aa(lp15
F47.649999999999999
aF49.789999999999999
aF49.270000000000003
aF47.869999999999997
aF47.869999999999997
aI1317000
aa(lp16
F48.75
aF49.979999999999997
aF48.75
aF49.25
aF49.25
aI1330600
aa(lp17
F47.399999999999999
aF49.140000000000001
aF48.990000000000002
aF48.689999999999998
aF48.689999999999998
aI1558600
aa(lp18
F49.210000000000001
aF50.890000000000001
aF50.890000000000001
aF49.479999999999997
aF49.479999999999997
aI1547300
aa(lp19
F49.149999999999999
aF50.990000000000002
aF49.399999999999999
aF49.979999999999997
aF49.979999999999997
aI1448700
aa(lp20
F46.600000000000001
aF49.149999999999999
aF46.600000000000001
aF49.119999999999997
aF49.119999999999997
aI1154600
aa(lp21
F47.049999999999997
aF50
aF50
aF47.090000000000003
aF47.090000000000003
aI2497800
aa(lp22
F49.5
aF51.350000000000001
aF50.600000000000001
aF50.229999999999997
aF50.229999999999997
aI1495500
aa(lp23
F47.509999999999998
aF50.439999999999998
aF48.670000000000002
aF49.780000000000001
aF49.780000000000001
aI1350700
aa(lp24
F48.93
aF52.600000000000001
aF52.5
aF49.259999999999998
aF49.259999999999998
aI2112500
aa(lp25
F52.950000000000003
aF55.130000000000003
aF55.130000000000003
aF53.359999999999999
aF53.359999999999999
aI2414400
aa(lp26
F52.329999999999998
aF55.770000000000003
aF52.899999999999999
aF55.229999999999997
aF55.229999999999997
aI2616500
aa(lp27
F50
aF52.600000000000001
aF50.710000000000001
aF52.07
aF52.07
aI2220400
aa(lp28
F48.030000000000001
aF52.560000000000002
aF52
aF50.859999999999999
aF50.859999999999999
aI3023200
aa(lp29
F50.68
aF55
aF51.149999999999999
aF52.649999999999999
aF52.649999999999999
aI3506300
aa(lp30
F48.200000000000003
aF51.009999999999998
aF48.799999999999997
aF50.68
aF50.68
aI3007100
aa(lp31
F48.079999999999998
aF48.079999999999998
aF48.079999999999998
aF48.079999999999998
aF48.079999999999998
aI0
aa(lp32
F45.5
aF49.619999999999997
aF45.799999999999997
aF48.079999999999998
aF48.079999999999998
aI2993200
aa(lp33
F45.049999999999997
aF45.899999999999999
aF45.619999999999997
aF45.880000000000003
aF45.880000000000003
aI2150300
aa(lp34
F44.149999999999999
aF45.450000000000003
aF44.469999999999999
aF45.299999999999997
aF45.299999999999997
aI1617200
aa(lp35
F44
aF44.799999999999997
aF44
aF44.380000000000003
aF44.380000000000003
aI1505100
aa(lp36
F43.229999999999997
aF45.649999999999999
aF45.299999999999997
aF44.210000000000001
aF44.210000000000001
aI3271800
aa(lp37
F44.990000000000002
aF46.990000000000002
aF44.990000000000002
aF45.659999999999997
aF45.659999999999997
aI1984900
aa(lp38
F45.549999999999997
aF50.5
aF50.5
aF46.390000000000001
aF46.390000000000001
aI5808800
aa(lp39
F44.880000000000003
aF48.159999999999997
aF45.75
aF48.159999999999997
aF48.159999999999997
aI6314400
aa(lp40
F43.780000000000001
aF43.780000000000001
aF43.780000000000001
aF43.780000000000001
aF43.780000000000001
aI837300
aa(lp41
F39.390000000000001
aF39.920000000000002
aF39.609999999999999
aF39.799999999999997
aF39.799999999999997
aI1910100
aa(lp42
F39.329999999999998
aF39.880000000000003
aF39.670000000000002
aF39.619999999999997
aF39.619999999999997
aI1614500
aa(lp43
F39.049999999999997
aF40.329999999999998
aF40.18
aF39.659999999999997
aF39.659999999999997
aI2212400
aa(lp44
F38.25
aF40.350000000000001
aF38.600000000000001
aF40.090000000000003
aF40.090000000000003
aI2873200
aa(lp45
F37.850000000000001
aF38.869999999999997
aF38.799999999999997
aF38.579999999999998
aF38.579999999999998
aI3178900
aa(lp46
F36.700000000000003
aF39.770000000000003
aF36.700000000000003
aF38.600000000000001
aF38.600000000000001
aI4488200
aa(lp47
F35.420000000000002
aF36.450000000000003
aF35.460000000000001
aF36.270000000000003
aF36.270000000000003
aI1799500
aa(lp48
F34.979999999999997
aF35.689999999999998
aF35.68
aF35.280000000000001
aF35.280000000000001
aI1489600
aa(lp49
F35.420000000000002
aF35.920000000000002
aF35.640000000000001
aF35.57
aF35.57
aI1258500
aa(lp50
F35.130000000000003
aF35.93
aF35.210000000000001
aF35.539999999999999
aF35.539999999999999
aI991200
aa(lp51
F34.649999999999999
aF35.450000000000003
aF35.259999999999998
aF35.280000000000001
aF35.280000000000001
aI1380600
aa(lp52
F35.57
aF36.600000000000001
aF36.399999999999999
aF35.640000000000001
aF35.640000000000001
aI1596800
aa(lp53
F35.920000000000002
aF36.450000000000003
aF36.009999999999998
aF36.43
aF36.43
aI1443900
aa(lp54
F35.710000000000001
aF36.240000000000002
aF35.770000000000003
aF36.109999999999999
aF36.109999999999999
aI1729000
aa(lp55
F35.909999999999997
aF37.280000000000001
aF37.280000000000001
aF35.990000000000002
aF35.990000000000002
aI3136600
aa(lp56
F36
aF37.619999999999997
aF36.280000000000001
aF37.5
aF37.5
aI3075300
aa(lp57
F35.700000000000003
aF36.350000000000001
aF35.799999999999997
aF36.240000000000002
aF36.240000000000002
aI1829900
aa(lp58
F35.270000000000003
aF35.780000000000001
aF35.270000000000003
aF35.729999999999997
aF35.729999999999997
aI1286200
aa(lp59
F35.130000000000003
aF35.990000000000002
aF35.979999999999997
aF35.270000000000003
aF35.270000000000003
aI1661800
aa(lp60
F35.909999999999997
aF35.909999999999997
aF35.909999999999997
aF35.909999999999997
aF35.909999999999997
aI0
aa(lp61
F35.909999999999997
aF35.909999999999997
aF35.909999999999997
aF35.909999999999997
aF35.909999999999997
aI0
aa(lp62
F35.909999999999997
aF35.909999999999997
aF35.909999999999997
aF35.909999999999997
aF35.909999999999997
aI0
aa(lp63
F35.909999999999997
aF35.909999999999997
aF35.909999999999997
aF35.909999999999997
aF35.909999999999997
aI0
aa(lp64
F35.909999999999997
aF35.909999999999997
aF35.909999999999997
aF35.909999999999997
aF35.909999999999997
aI0
aa(lp65
F35.670000000000002
aF36
aF35.909999999999997
aF35.909999999999997
aF35.909999999999997
aI1615600
aa(lp66
F35.280000000000001
aF35.979999999999997
aF35.939999999999998
aF35.859999999999999
aF35.859999999999999
aI2020700
aa(lp67
F35.509999999999998
aF36.340000000000003
aF35.549999999999997
aF35.939999999999998
aF35.939999999999998
aI3073100
aa(lp68
F34.700000000000003
aF35.890000000000001
aF35.509999999999998
aF35.299999999999997
aF35.299999999999997
aI3111600
aa(lp69
F35.280000000000001
aF36.43
aF35.539999999999999
aF35.689999999999998
aF35.689999999999998
aI3873900
aa(lp70
F34.369999999999997
aF35.990000000000002
aF35
aF35.539999999999999
aF35.539999999999999
aI6382500
aa(lp71
F37.950000000000003
aF38.299999999999997
aF37.950000000000003
aF37.950000000000003
aF37.950000000000003
aI2039400
aa(lp72
F42.170000000000002
aF51
aF51
aF42.170000000000002
aF42.170000000000002
aI4618700
aa(lp73
F46.859999999999999
aF46.859999999999999
aF46.859999999999999
aF46.859999999999999
aF46.859999999999999
aI371200
aa(lp74
F42.600000000000001
aF42.600000000000001
aF42.600000000000001
aF42.600000000000001
aF42.600000000000001
aI88400
aa(lp75
F38.729999999999997
aF38.729999999999997
aF38.729999999999997
aF38.729999999999997
aF38.729999999999997
aI61400
aa(lp76
F35.210000000000001
aF35.210000000000001
aF35.210000000000001
aF35.210000000000001
aF35.210000000000001
aI33800
aa(lp77
F32.009999999999998
aF32.009999999999998
aF32.009999999999998
aF32.009999999999998
aF32.009999999999998
aI12700
aa(lp78
F29.100000000000001
aF29.100000000000001
aF29.100000000000001
aF29.100000000000001
aF29.100000000000001
aI9700
aa(lp79
F22.039999999999999
aF26.449999999999999
aF22.039999999999999
aF26.449999999999999
aF26.449999999999999
aI27000
aa.