(lp1
(lp2
F22.300000000000001
aF23.920000000000002
aF23
aF23.5
aF23.5
aI18062700
aa(lp3
F22.789999999999999
aF23.760000000000002
aF23.5
aF23
aF23
aI13029000
aa(lp4
F22.960000000000001
aF23.760000000000002
aF23
aF23.489999999999998
aF23.489999999999998
aI22929900
aa(lp5
F21.879999999999999
aF22.940000000000001
aF22.27
aF22.68
aF22.68
aI19597200
aa(lp6
F20.530000000000001
aF22.18
aF20.530000000000001
aF22.149999999999999
aF22.149999999999999
aI13866200
aa(lp7
F19.640000000000001
aF20.5
aF19.640000000000001
aF20.379999999999999
aF20.379999999999999
aI11639500
aa(lp8
F19.559999999999999
aF20.899999999999999
aF20.789999999999999
aF19.600000000000001
aF19.600000000000001
aI9803100
aa(lp9
F20.75
aF21.789999999999999
aF21.239999999999998
aF21.030000000000001
aF20.800000000000001
aI9441600
aa(lp10
F20.91
aF22.280000000000001
aF22.280000000000001
aF21.239999999999998
aF21.010000000000002
aI16035400
aa(lp11
F22.16
aF23.18
aF22.469999999999999
aF22.289999999999999
aF22.050000000000001
aI12333600
aa(lp12
F22.449999999999999
aF22.449999999999999
aF22.449999999999999
aF22.449999999999999
aF22.210000000000001
aI0
aa(lp13
F21.199999999999999
aF23.190000000000001
aF21.300000000000001
aF22.449999999999999
aF22.210000000000001
aI20219900
aa(lp14
F20.620000000000001
aF21.43
aF20.829999999999998
aF21.079999999999998
aF20.850000000000001
aI12557600
aa(lp15
F20.75
aF22.57
aF22.350000000000001
aF20.98
aF20.75
aI24617200
aa(lp16
F22
aF23.699999999999999
aF23.699999999999999
aF22.399999999999999
aF22.16
aI25131000
aa(lp17
F23
aF23
aF23
aF23
aF22.75
aI0
aa(lp18
F23
aF23
aF23
aF23
aF22.75
aI0
aa(lp19
F22.800000000000001
aF24.170000000000002
aF23.350000000000001
aF23
aF22.75
aI23983500
aa(lp20
F21.969999999999999
aF23.539999999999999
aF23.010000000000002
aF23.140000000000001
aF22.890000000000001
aI21151700
aa(lp21
F22.100000000000001
aF24.25
aF22.609999999999999
aF22.309999999999999
aF22.07
aI42850900
aa(lp22
F20.75
aF22.09
aF21.100000000000001
aF22.09
aF21.850000000000001
aI37543800
aa(lp23
F18.68
aF20.5
aF19.449999999999999
aF20.079999999999998
aF19.859999999999999
aI19139500
aa(lp24
F19.300000000000001
aF20.84
aF20.350000000000001
aF19.379999999999999
aF19.170000000000002
aI17988400
aa(lp25
F19.260000000000002
aF20.91
aF19.260000000000002
aF20.489999999999998
aF20.27
aI28651300
aa(lp26
F19.07
aF19.760000000000002
aF19.399999999999999
aF19.5
aF19.289999999999999
aI16741500
aa(lp27
F18.699999999999999
aF19.93
aF18.899999999999999
aF19.420000000000002
aF19.210000000000001
aI13788200
aa(lp28
F18.010000000000002
aF20.280000000000001
aF20.050000000000001
aF19.109999999999999
aF18.899999999999999
aI20694300
aa(lp29
F19.699999999999999
aF20.5
aF20.5
aF20.010000000000002
aF19.789999999999999
aI25899000
aa(lp30
F19.100000000000001
aF21.149999999999999
aF19.199999999999999
aF20.670000000000002
aF20.449999999999999
aI36378800
aa(lp31
F19.23
aF19.23
aF19.23
aF19.23
aF19.02
aI0
aa(lp32
F18.620000000000001
aF19.359999999999999
aF19
aF19.23
aF19.02
aI25952500
aa(lp33
F18.98
aF19.600000000000001
aF19.289999999999999
aF19.170000000000002
aF18.960000000000001
aI18815300
aa(lp34
F18.75
aF19.5
aF18.91
aF19.289999999999999
aF19.079999999999998
aI21160700
aa(lp35
F18.629999999999999
aF19.219999999999999
aF19.149999999999999
aF18.91
aF18.699999999999999
aI18540000
aa(lp36
F19.16
aF19.989999999999998
aF19.59
aF19.239999999999998
aF19.030000000000001
aI24013500
aa(lp37
F18.199999999999999
aF19.149999999999999
aF18.199999999999999
aF19.129999999999999
aF18.920000000000002
aI21127700
aa(lp38
F18.190000000000001
aF18.84
aF18.649999999999999
aF18.199999999999999
aF18
aI19959300
aa(lp39
F18.309999999999999
aF19.18
aF19
aF18.640000000000001
aF18.440000000000001
aI36269000
aa(lp40
F18.190000000000001
aF19.690000000000001
aF19.280000000000001
aF19.59
aF19.379999999999999
aI32849300
aa(lp41
F18.870000000000001
aF19.649999999999999
aF19
aF19.260000000000002
aF19.050000000000001
aI30745600
aa(lp42
F17.5
aF18.5
aF17.75
aF18.48
aF18.280000000000001
aI20500900
aa(lp43
F17.329999999999998
aF18.379999999999999
aF17.329999999999998
aF17.719999999999999
aF17.530000000000001
aI27362200
aa(lp44
F16.829999999999998
aF17.649999999999999
aF17
aF17.32
aF17.129999999999999
aI19466200
aa(lp45
F16.66
aF17.219999999999999
aF16.809999999999999
aF17.109999999999999
aF16.920000000000002
aI19256700
aa(lp46
F16.399999999999999
aF16.859999999999999
aF16.5
aF16.75
aF16.57
aI14077400
aa(lp47
F16.18
aF16.91
aF16.620000000000001
aF16.34
aF16.16
aI12125100
aa(lp48
F16.199999999999999
aF16.899999999999999
aF16.899999999999999
aF16.25
aF16.07
aI12104100
aa(lp49
F16.510000000000002
aF16.98
aF16.75
aF16.899999999999999
aF16.719999999999999
aI12608000
aa(lp50
F16.469999999999999
aF17.140000000000001
aF16.690000000000001
aF16.859999999999999
aF16.68
aI18635600
aa(lp51
F15.56
aF16.879999999999999
aF15.880000000000001
aF16.719999999999999
aF16.539999999999999
aI23909700
aa(lp52
F15.77
aF16.440000000000001
aF16.039999999999999
aF15.880000000000001
aF15.710000000000001
aI16063700
aa(lp53
F15.6
aF16.260000000000002
aF15.710000000000001
aF16.039999999999999
aF15.869999999999999
aI24832500
aa(lp54
F14.83
aF16.02
aF14.859999999999999
aF15.81
aF15.640000000000001
aI23983200
aa(lp55
F14.800000000000001
aF15.300000000000001
aF15.26
aF14.84
aF14.68
aI12736600
aa(lp56
F15.039999999999999
aF15.359999999999999
aF15.16
aF15.19
aF15.029999999999999
aI14158700
aa(lp57
F14.85
aF15.27
aF14.869999999999999
aF15.039999999999999
aF14.880000000000001
aI11358900
aa(lp58
F14.720000000000001
aF15.119999999999999
aF15.02
aF14.869999999999999
aF14.710000000000001
aI6645400
aa(lp59
F14.94
aF15.26
aF14.98
aF15.02
aF14.859999999999999
aI11072700
aa(lp60
F14.92
aF14.92
aF14.92
aF14.92
aF14.76
aI0
aa(lp61
F14.92
aF14.92
aF14.92
aF14.92
aF14.76
aI0
aa(lp62
F14.92
aF14.92
aF14.92
aF14.92
aF14.76
aI0
aa(lp63
F14.92
aF14.92
aF14.92
aF14.92
aF14.76
aI0
aa(lp64
F14.92
aF14.92
aF14.92
aF14.92
aF14.76
aI0
aa(lp65
F14.66
aF15.32
aF14.66
aF14.92
aF14.76
aI13498000
aa(lp66
F14.44
aF14.76
aF14.449999999999999
aF14.640000000000001
aF14.48
aI8690500
aa(lp67
F14.4
aF14.65
aF14.41
aF14.44
aF14.279999999999999
aI10554900
aa(lp68
F14.130000000000001
aF14.5
aF14.380000000000001
aF14.4
aF14.24
aI8238300
aa(lp69
F13.619999999999999
aF14.199999999999999
aF13.69
aF14.19
aF14.039999999999999
aI7643000
aa(lp70
F13.380000000000001
aF13.699999999999999
aF13.6
aF13.65
aF13.5
aI6737500
aa(lp71
F13.369999999999999
aF13.65
aF13.470000000000001
aF13.6
aF13.449999999999999
aI6803700
aa(lp72
F13.300000000000001
aF14.140000000000001
aF14.02
aF13.449999999999999
aF13.300000000000001
aI12225100
aa(lp73
F14.02
aF14.359999999999999
aF14.32
aF14.07
aF13.92
aI8557800
aa(lp74
F14.109999999999999
aF14.460000000000001
aF14.449999999999999
aF14.130000000000001
aF13.98
aI8219300
aa(lp75
F14.16
aF14.449999999999999
aF14.199999999999999
aF14.380000000000001
aF14.220000000000001
aI8913900
aa(lp76
F14.050000000000001
aF14.48
aF14.48
aF14.1
aF13.949999999999999
aI9081000
aa(lp77
F14.5
aF14.94
aF14.720000000000001
aF14.51
aF14.35
aI6452500
aa(lp78
F14.640000000000001
aF14.960000000000001
aF14.85
aF14.720000000000001
aF14.56
aI9391900
aa(lp79
F14.869999999999999
aF15.130000000000001
aF15.029999999999999
aF14.949999999999999
aF14.789999999999999
aI7344000
aa(lp80
F14.779999999999999
aF15.4
aF15.380000000000001
aF15.130000000000001
aF14.970000000000001
aI15387200
aa(lp81
F14.83
aF15.42
aF14.99
aF15.31
aF15.140000000000001
aI21492800
aa(lp82
F14.5
aF15.08
aF14.890000000000001
aF14.58
aF14.42
aI12117100
aa(lp83
F14.800000000000001
aF15.31
aF15.300000000000001
aF14.93
aF14.77
aI15560800
aa(lp84
F14.880000000000001
aF15.34
aF14.970000000000001
aF15.109999999999999
aF14.949999999999999
aI15420100
aa(lp85
F14.220000000000001
aF14.859999999999999
aF14.220000000000001
aF14.83
aF14.67
aI12815700
aa(lp86
F13.9
aF14.699999999999999
aF14
aF14.09
aF13.94
aI11768900
aa(lp87
F14.359999999999999
aF14.869999999999999
aF14.59
aF14.619999999999999
aF14.460000000000001
aI12370500
aa(lp88
F14.17
aF14.720000000000001
aF14.17
aF14.59
aF14.43
aI17912000
aa(lp89
F13.890000000000001
aF14.44
aF13.99
aF14.08
aF13.93
aI9572400
aa(lp90
F13.32
aF14.07
aF13.470000000000001
aF13.970000000000001
aF13.82
aI9079500
aa(lp91
F13.220000000000001
aF13.85
aF13.85
aF13.42
aF13.27
aI10604700
aa(lp92
F14
aF14.4
aF14.31
aF14
aF13.85
aI9672900
aa(lp93
F14.210000000000001
aF14.59
aF14.33
aF14.300000000000001
aF14.140000000000001
aI8329500
aa(lp94
F14.27
aF14.59
aF14.390000000000001
aF14.380000000000001
aF14.220000000000001
aI11355000
aa(lp95
F14.050000000000001
aF14.640000000000001
aF14.279999999999999
aF14.630000000000001
aF14.470000000000001
aI20559000
aa(lp96
F13.52
aF13.93
aF13.68
aF13.800000000000001
aF13.65
aI11635100
aa(lp97
F13.44
aF13.44
aF13.44
aF13.44
aF13.289999999999999
aI0
aa(lp98
F13.44
aF13.44
aF13.44
aF13.44
aF13.289999999999999
aI0
aa(lp99
F12.880000000000001
aF13.550000000000001
aF13.15
aF13.44
aF13.289999999999999
aI15693700
aa(lp100
F12.82
aF13.640000000000001
aF13.5
aF13.02
aF12.880000000000001
aI17410700
aa(lp101
F13.390000000000001
aF14.300000000000001
aF14.300000000000001
aF13.5
aF13.35
aI19880800
aa(lp102
F14
aF14.619999999999999
aF14.5
aF14.359999999999999
aF14.199999999999999
aI11655000
aa(lp103
F14.300000000000001
aF14.66
aF14.33
aF14.449999999999999
aF14.289999999999999
aI9997600
aa(lp104
F14
aF14.800000000000001
aF14.800000000000001
aF14.23
aF14.08
aI20313700
aa(lp105
F13.19
aF14.35
aF13.19
aF13.51
aF13.359999999999999
aI17554500
aa(lp106
F13.869999999999999
aF15
aF15
aF13.869999999999999
aF13.720000000000001
aI26096600
aa(lp107
F14.83
aF17.030000000000001
aF17.030000000000001
aF15.41
aF15.24
aI47679800
aa(lp108
F16.48
aF16.48
aF16.48
aF16.48
aF16.300000000000001
aI0
aa(lp109
F16.48
aF16.48
aF16.48
aF16.48
aF16.300000000000001
aI0
aa(lp110
F16.48
aF16.48
aF16.48
aF16.48
aF16.300000000000001
aI0
aa(lp111
F16.48
aF16.48
aF16.48
aF16.48
aF16.300000000000001
aI0
aa(lp112
F16.48
aF16.48
aF16.48
aF16.48
aF16.300000000000001
aI0
aa(lp113
F16.48
aF16.48
aF16.48
aF16.48
aF16.300000000000001
aI0
aa(lp114
F16.48
aF16.48
aF16.48
aF16.48
aF16.300000000000001
aI0
aa(lp115
F16.48
aF16.48
aF16.48
aF16.48
aF16.300000000000001
aI0
aa(lp116
F16.48
aF16.48
aF16.48
aF16.48
aF16.300000000000001
aI0
aa(lp117
F16.48
aF16.48
aF16.48
aF16.48
aF16.300000000000001
aI0
aa(lp118
F16.48
aF16.48
aF16.48
aF16.48
aF16.300000000000001
aI0
aa(lp119
F16.48
aF16.48
aF16.48
aF16.48
aF16.300000000000001
aI0
aa(lp120
F16.48
aF16.48
aF16.48
aF16.48
aF16.300000000000001
aI0
aa(lp121
F16.48
aF16.48
aF16.48
aF16.48
aF16.300000000000001
aI0
aa(lp122
F16.48
aF16.48
aF16.48
aF16.48
aF16.300000000000001
aI0
aa(lp123
F16.48
aF16.48
aF16.48
aF16.48
aF16.300000000000001
aI0
aa(lp124
F16.48
aF16.48
aF16.48
aF16.48
aF16.300000000000001
aI0
aa(lp125
F16.48
aF16.48
aF16.48
aF16.48
aF16.300000000000001
aI0
aa(lp126
F16.48
aF16.48
aF16.48
aF16.48
aF16.300000000000001
aI0
aa(lp127
F16.48
aF16.48
aF16.48
aF16.48
aF16.300000000000001
aI0
aa(lp128
F16.48
aF16.48
aF16.48
aF16.48
aF16.300000000000001
aI0
aa(lp129
F16.48
aF16.48
aF16.48
aF16.48
aF16.300000000000001
aI0
aa(lp130
F16.48
aF16.48
aF16.48
aF16.48
aF16.300000000000001
aI0
aa(lp131
F16.48
aF16.48
aF16.48
aF16.48
aF16.300000000000001
aI0
aa(lp132
F16.48
aF16.48
aF16.48
aF16.48
aF16.300000000000001
aI0
aa(lp133
F15.449999999999999
aF16.550000000000001
aF15.890000000000001
aF16.48
aF16.300000000000001
aI16555700
aa(lp134
F15.57
aF16.300000000000001
aF16.239999999999998
aF15.859999999999999
aF15.69
aI15465200
aa(lp135
F16.010000000000002
aF17.579999999999998
aF17.5
aF16.050000000000001
aF15.880000000000001
aI16517300
aa(lp136
F17.109999999999999
aF17.75
aF17.59
aF17.440000000000001
aF17.25
aI13026300
aa(lp137
F17.030000000000001
aF17.949999999999999
aF17.370000000000001
aF17.399999999999999
aF17.210000000000001
aI23256400
aa(lp138
F16.57
aF17.379999999999999
aF16.699999999999999
aF17.300000000000001
aF17.109999999999999
aI19829200
aa(lp139
F16.41
aF16.870000000000001
aF16.629999999999999
aF16.640000000000001
aF16.460000000000001
aI8770700
aa(lp140
F16.440000000000001
aF16.93
aF16.539999999999999
aF16.699999999999999
aF16.52
aI11055600
aa(lp141
F16.43
aF16.890000000000001
aF16.43
aF16.550000000000001
aF16.370000000000001
aI9355000
aa(lp142
F16
aF16.84
aF16.579999999999998
aF16.34
aF16.16
aI11414800
aa(lp143
F16.440000000000001
aF17.02
aF16.850000000000001
aF16.530000000000001
aF16.350000000000001
aI12255400
aa(lp144
F16.100000000000001
aF17.050000000000001
aF16.300000000000001
aF16.780000000000001
aF16.600000000000001
aI14060700
aa(lp145
F15.609999999999999
aF16.219999999999999
aF15.890000000000001
aF16.18
aF16
aI12681000
aa(lp146
F15.300000000000001
aF16.190000000000001
aF15.69
aF15.859999999999999
aF15.69
aI13013200
aa(lp147
F15.31
aF15.93
aF15.68
aF15.34
aF15.17
aI8070200
aa(lp148
F14.859999999999999
aF15.779999999999999
aF15.300000000000001
aF15.76
aF15.59
aI17188900
aa(lp149
F15.42
aF16.850000000000001
aF16.800000000000001
aF15.6
aF15.43
aI27448100
aa(lp150
F16.710000000000001
aF17.940000000000001
aF17.289999999999999
aF16.829999999999998
aF16.649999999999999
aI13353300
aa(lp151
F16.420000000000002
aF17.370000000000001
aF16.579999999999998
aF17.34
aF17.149999999999999
aI12135600
aa(lp152
F16.260000000000002
aF16.899999999999999
aF16.34
aF16.620000000000001
aF16.440000000000001
aI13015200
aa(lp153
F16.219999999999999
aF17.219999999999999
aF17.199999999999999
aF16.379999999999999
aF16.199999999999999
aI20506100
aa(lp154
F17.23
aF17.949999999999999
aF17.600000000000001
aF17.399999999999999
aF17.210000000000001
aI13930600
aa(lp155
F17.350000000000001
aF18.809999999999999
aF18.02
aF17.780000000000001
aF17.59
aI18764300
aa(lp156
F17
aF18.449999999999999
aF17
aF18.27
aF18.07
aI17790400
aa(lp157
F16.41
aF18
aF16.600000000000001
aF17.579999999999998
aF17.390000000000001
aI16673300
aa(lp158
F16.329999999999998
aF16.890000000000001
aF16.850000000000001
aF16.620000000000001
aF16.440000000000001
aI13751600
aa(lp159
F16.329999999999998
aF17.170000000000002
aF16.800000000000001
aF16.789999999999999
aF16.609999999999999
aI13079100
aa(lp160
F16.809999999999999
aF16.809999999999999
aF16.809999999999999
aF16.809999999999999
aF16.629999999999999
aI0
aa(lp161
F16.809999999999999
aF16.809999999999999
aF16.809999999999999
aF16.809999999999999
aF16.629999999999999
aI0
aa(lp162
F16.809999999999999
aF16.809999999999999
aF16.809999999999999
aF16.809999999999999
aF16.629999999999999
aI0
aa(lp163
F16.809999999999999
aF16.809999999999999
aF16.809999999999999
aF16.809999999999999
aF16.629999999999999
aI0
aa(lp164
F16.809999999999999
aF16.809999999999999
aF16.809999999999999
aF16.809999999999999
aF16.629999999999999
aI0
aa(lp165
F16.359999999999999
aF16.859999999999999
aF16.600000000000001
aF16.809999999999999
aF16.629999999999999
aI14410000
aa(lp166
F15.699999999999999
aF16.98
aF15.710000000000001
aF16.82
aF16.640000000000001
aI19329800
aa(lp167
F14.699999999999999
aF15.699999999999999
aF14.83
aF15.640000000000001
aF15.470000000000001
aI21531600
aa(lp168
F14.6
aF15.1
aF14.699999999999999
aF14.720000000000001
aF14.56
aI13946100
aa(lp169
F14.390000000000001
aF14.77
aF14.51
aF14.58
aF14.42
aI13991700
aa(lp170
F14.199999999999999
aF14.67
aF14.300000000000001
aF14.619999999999999
aF14.460000000000001
aI12457100
aa(lp171
F13.960000000000001
aF14.619999999999999
aF14.27
aF14.380000000000001
aF14.220000000000001
aI18530800
aa(lp172
F13.84
aF14.43
aF13.9
aF14.279999999999999
aF14.130000000000001
aI19390300
aa(lp173
F13.779999999999999
aF14.43
aF13.960000000000001
aF13.91
aF13.76
aI17960200
aa(lp174
F13.210000000000001
aF14.050000000000001
aF13.210000000000001
aF13.99
aF13.84
aI21621700
aa(lp175
F13.1
aF14.19
aF14.19
aF13.15
aF13.01
aI18774900
aa(lp176
F13.4
aF14.390000000000001
aF13.4
aF14.09
aF13.94
aI24858600
aa(lp177
F12.93
aF13.33
aF13.24
aF13.220000000000001
aF13.08
aI14964400
aa(lp178
F13.08
aF13.77
aF13.34
aF13.17
aF13.029999999999999
aI17405400
aa(lp179
F13.02
aF13.42
aF13.199999999999999
aF13.380000000000001
aF13.23
aI12897800
aa(lp180
F13.01
aF13.279999999999999
aF13.23
aF13.24
aF13.1
aI11242200
aa(lp181
F13.16
aF13.16
aF13.16
aF13.16
aF13.02
aI0
aa(lp182
F13.06
aF13.44
aF13.380000000000001
aF13.16
aF13.02
aI18078600
aa(lp183
F13.35
aF13.75
aF13.6
aF13.43
aF13.279999999999999
aI15855000
aa(lp184
F13.279999999999999
aF13.869999999999999
aF13.380000000000001
aF13.6
aF13.449999999999999
aI14989700
aa(lp185
F12.949999999999999
aF13.35
aF13.220000000000001
aF13.289999999999999
aF13.15
aI17395500
aa(lp186
F12.960000000000001
aF13.529999999999999
aF13.470000000000001
aF13.279999999999999
aF13.140000000000001
aI12388400
aa(lp187
F13.08
aF13.49
aF13.18
aF13.41
aF13.26
aI6998500
aa(lp188
F13.19
aF13.699999999999999
aF13.6
aF13.23
aF13.09
aI7554100
aa(lp189
F12.74
aF13.82
aF12.81
aF13.44
aF13.289999999999999
aI18328200
aa(lp190
F12.199999999999999
aF13.35
aF12.25
aF12.890000000000001
aF12.75
aI18527500
aa(lp191
F12.5
aF13.5
aF13.109999999999999
aF12.529999999999999
aF12.390000000000001
aI21323700
aa(lp192
F11.76
aF12.4
aF11.81
aF12.32
aF12.19
aI8537500
aa(lp193
F11.68
aF12.17
aF12.050000000000001
aF11.880000000000001
aF11.75
aI9277700
aa(lp194
F11.9
aF12.109999999999999
aF12.01
aF12.02
aF11.890000000000001
aI5521700
aa(lp195
F11.529999999999999
aF12.199999999999999
aF11.609999999999999
aF12.119999999999999
aF11.99
aI16342400
aa(lp196
F11.300000000000001
aF11.68
aF11.550000000000001
aF11.59
aF11.460000000000001
aI7040600
aa(lp197
F11.33
aF11.6
aF11.4
aF11.529999999999999
aF11.4
aI4238900
aa(lp198
F11.35
aF11.779999999999999
aF11.449999999999999
aF11.4
aF11.279999999999999
aI7619300
aa(lp199
F11.300000000000001
aF11.949999999999999
aF11.779999999999999
aF11.449999999999999
aF11.33
aI9851900
aa(lp200
F11.720000000000001
aF11.99
aF11.99
aF11.83
aF11.699999999999999
aI5171600
aa(lp201
F11.550000000000001
aF12.15
aF11.550000000000001
aF12
aF11.869999999999999
aI10319900
aa(lp202
F11.41
aF11.59
aF11.41
aF11.529999999999999
aF11.4
aI3359600
aa(lp203
F11.34
aF11.59
aF11.56
aF11.449999999999999
aF11.33
aI4230300
aa(lp204
F11.289999999999999
aF11.619999999999999
aF11.48
aF11.529999999999999
aF11.4
aI12377000
aa(lp205
F11.34
aF11.75
aF11.75
aF11.529999999999999
aF11.4
aI9352800
aa(lp206
F11.640000000000001
aF11.960000000000001
aF11.699999999999999
aF11.76
aF11.630000000000001
aI5835300
aa(lp207
F11.56
aF12.02
aF11.789999999999999
aF11.73
aF11.6
aI6473900
aa(lp208
F11.359999999999999
aF12.199999999999999
aF11.380000000000001
aF11.789999999999999
aF11.66
aI17275600
aa(lp209
F10.81
aF11.609999999999999
aF10.9
aF11.529999999999999
aF11.4
aI14716600
aa(lp210
F10.710000000000001
aF11.26
aF10.960000000000001
aF10.970000000000001
aF10.85
aI12141800
aa(lp211
F10.81
aF11.1
aF11.1
aF10.98
aF10.859999999999999
aI9457600
aa(lp212
F10.9
aF11.300000000000001
aF11.050000000000001
aF11.050000000000001
aF10.93
aI6456600
aa(lp213
F10.68
aF11.199999999999999
aF11.1
aF11.039999999999999
aF10.92
aI9976400
aa(lp214
F10.92
aF11.4
aF11.210000000000001
aF11.01
aF10.890000000000001
aI9426800
aa(lp215
F10.73
aF11.550000000000001
aF10.73
aF11.300000000000001
aF11.18
aI24081000
aa(lp216
F10.66
aF11.09
aF10.800000000000001
aF10.890000000000001
aF10.77
aI16518400
aa(lp217
F10.15
aF11.220000000000001
aF10.15
aF11.01
aF10.890000000000001
aI39014300
aa(lp218
F10.01
aF10.66
aF10.609999999999999
aF10.199999999999999
aF10.09
aI10748100
aa(lp219
F10.5
aF10.859999999999999
aF10.75
aF10.56
aF10.449999999999999
aI9526500
aa(lp220
F10.550000000000001
aF10.949999999999999
aF10.609999999999999
aF10.84
aF10.720000000000001
aI15761400
aa(lp221
F10.1
aF10.92
aF10.1
aF10.869999999999999
aF10.75
aI21550200
aa(lp222
F9.75
aF10.33
aF9.9399999999999995
aF10.15
aF10.039999999999999
aI10656600
aa(lp223
F9.8499999999999996
aF10.199999999999999
aF10.050000000000001
aF9.8699999999999992
aF9.7599999999999998
aI11685600
aa(lp224
F9.8900000000000006
aF10.33
aF9.9900000000000002
aF10.119999999999999
aF10.01
aI23708200
aa(lp225
F9.4800000000000004
aF10.300000000000001
aF9.5
aF10.01
aF9.9000000000000004
aI21609100
aa(lp226
F9.2899999999999991
aF9.5299999999999994
aF9.4499999999999993
aF9.4900000000000002
aF9.3900000000000006
aI6168000
aa(lp227
F9.3800000000000008
aF9.6199999999999992
aF9.4900000000000002
aF9.4199999999999999
aF9.3200000000000003
aI8856700
aa(lp228
F9.1999999999999993
aF9.6300000000000008
aF9.1999999999999993
aF9.4399999999999995
aF9.3399999999999999
aI18463200
aa(lp229
F8.9600000000000009
aF9.2699999999999996
aF8.9800000000000004
aF9.1699999999999999
aF9.0700000000000003
aI7306700
aa(lp230
F8.8000000000000007
aF9.0999999999999996
aF8.8000000000000007
aF8.9800000000000004
aF8.8800000000000008
aI6457900
aa(lp231
F8.7200000000000006
aF8.8900000000000006
aF8.8399999999999999
aF8.8399999999999999
aF8.7400000000000002
aI4017900
aa(lp232
F8.5899999999999999
aF8.8399999999999999
aF8.6699999999999999
aF8.7799999999999994
aF8.6799999999999997
aI4978200
aa(lp233
F8.4700000000000006
aF8.7300000000000004
aF8.5199999999999996
aF8.6799999999999997
aF8.5899999999999999
aI3177800
aa(lp234
F8.4700000000000006
aF8.6199999999999992
aF8.5600000000000005
aF8.5
aF8.4100000000000001
aI2482000
aa(lp235
F8.3399999999999999
aF8.6300000000000008
aF8.3399999999999999
aF8.6199999999999992
aF8.5299999999999994
aI3269200
aa(lp236
F8.3399999999999999
aF8.4499999999999993
aF8.4499999999999993
aF8.3800000000000008
aF8.2899999999999991
aI3155400
aa(lp237
F8.3200000000000003
aF8.4499999999999993
aF8.4100000000000001
aF8.4199999999999999
aF8.3300000000000001
aI1729000
aa(lp238
F8.3100000000000005
aF8.6699999999999999
aF8.6500000000000004
aF8.4000000000000004
aF8.3100000000000005
aI2350500
aa(lp239
F8.5999999999999996
aF8.75
aF8.75
aF8.6300000000000008
aF8.5399999999999991
aI1621200
aa(lp240
F8.6500000000000004
aF8.8100000000000005
aF8.7899999999999991
aF8.7100000000000009
aF8.6199999999999992
aI2094700
aa(lp241
F8.6999999999999993
aF8.8499999999999996
aF8.8200000000000003
aF8.8200000000000003
aF8.7200000000000006
aI2444500
aa(lp242
F8.5099999999999998
aF8.8499999999999996
aF8.5299999999999994
aF8.7899999999999991
aF8.6899999999999995
aI4303600
aa(lp243
F8.4600000000000009
aF8.5700000000000003
aF8.4800000000000004
aF8.5299999999999994
aF8.4399999999999995
aI2061200
aa(lp244
F8.4299999999999997
aF8.5800000000000001
aF8.5299999999999994
aF8.4800000000000004
aF8.3900000000000006
aI2245900
aa(lp245
F8.3499999999999996
aF8.5199999999999996
aF8.3699999999999992
aF8.5199999999999996
aF8.4299999999999997
aI2421600
aa(lp246
F8.3499999999999996
aF8.5399999999999991
aF8.5
aF8.3699999999999992
aF8.2799999999999994
aI2058900
aa(lp247
F8.4000000000000004
aF8.5500000000000007
aF8.4900000000000002
aF8.5
aF8.4100000000000001
aI2398700
aa(lp248
F8.3699999999999992
aF8.5199999999999996
aF8.4100000000000001
aF8.4900000000000002
aF8.4000000000000004
aI2228800
aa(lp249
F8.3800000000000008
aF8.6500000000000004
aF8.6500000000000004
aF8.4000000000000004
aF8.3100000000000005
aI2137800
aa(lp250
F8.5999999999999996
aF8.7799999999999994
aF8.75
aF8.6099999999999994
aF8.5199999999999996
aI1852900
aa(lp251
F8.7200000000000006
aF8.7200000000000006
aF8.7200000000000006
aF8.7200000000000006
aF8.6300000000000008
aI0
aa(lp252
F8.5500000000000007
aF8.8000000000000007
aF8.5899999999999999
aF8.7200000000000006
aF8.6300000000000008
aI2901000
aa(lp253
F8.5800000000000001
aF8.7100000000000009
aF8.6500000000000004
aF8.5999999999999996
aF8.5099999999999998
aI1691400
aa(lp254
F8.4900000000000002
aF8.6699999999999999
aF8.5500000000000007
aF8.6600000000000001
aF8.5700000000000003
aI2619100
aa(lp255
F8.5299999999999994
aF8.7200000000000006
aF8.5899999999999999
aF8.5899999999999999
aF8.5
aI4231200
aa(lp256
F8.4800000000000004
aF8.6300000000000008
aF8.5399999999999991
aF8.5999999999999996
aF8.5099999999999998
aI3257400
aa(lp257
F8.3000000000000007
aF8.5399999999999991
aF8.4700000000000006
aF8.5199999999999996
aF8.4299999999999997
aI4140000
aa(lp258
F8.4000000000000004
aF8.6500000000000004
aF8.5500000000000007
aF8.4800000000000004
aF8.3900000000000006
aI3575300
aa(lp259
F8.3300000000000001
aF8.5899999999999999
aF8.4000000000000004
aF8.5500000000000007
aF8.4600000000000009
aI2831000
aa(lp260
F8.4000000000000004
aF8.5999999999999996
aF8.5
aF8.4299999999999997
aF8.3399999999999999
aI1885800
aa(lp261
F8.2400000000000002
aF8.4900000000000002
aF8.4000000000000004
aF8.4800000000000004
aF8.3900000000000006
aI3013400
aa(lp262
F8.3000000000000007
aF8.5999999999999996
aF8.5600000000000005
aF8.4199999999999999
aF8.3300000000000001
aI3390300
aa(lp263
F8.5299999999999994
aF8.9600000000000009
aF8.9600000000000009
aF8.5600000000000005
aF8.4700000000000006
aI4169500
aa(lp264
F8.9399999999999995
aF9.0600000000000005
aF9.0500000000000007
aF9
aF8.9000000000000004
aI1273600
aa(lp265
F8.9499999999999993
aF9.0999999999999996
aF9.0800000000000001
aF9.0099999999999998
aF8.9100000000000001
aI2545600
aa(lp266
F8.8100000000000005
aF9.1099999999999994
aF8.9100000000000001
aF9.0700000000000003
aF8.9700000000000006
aI3511100
aa(lp267
F8.6999999999999993
aF8.8900000000000006
aF8.7699999999999996
aF8.8000000000000007
aF8.6999999999999993
aI1750800
aa(lp268
F8.7300000000000004
aF8.9199999999999999
aF8.7799999999999994
aF8.7699999999999996
aF8.6699999999999999
aI1641300
aa(lp269
F8.75
aF8.9700000000000006
aF8.9700000000000006
aF8.7899999999999991
aF8.6899999999999995
aI2348300
aa(lp270
F8.9199999999999999
aF9.0899999999999999
aF9.0399999999999991
aF8.9700000000000006
aF8.8699999999999992
aI2298900
aa(lp271
F8.9199999999999999
aF9.0399999999999991
aF8.9199999999999999
aF9.0299999999999994
aF8.9299999999999997
aI1980600
aa(lp272
F8.9000000000000004
aF8.9000000000000004
aF8.9000000000000004
aF8.9000000000000004
aF8.8000000000000007
aI0
aa(lp273
F8.9000000000000004
aF8.9000000000000004
aF8.9000000000000004
aF8.9000000000000004
aF8.8000000000000007
aI0
aa(lp274
F8.8599999999999994
aF8.9700000000000006
aF8.8599999999999994
aF8.9000000000000004
aF8.8000000000000007
aI1573900
aa(lp275
F8.6300000000000008
aF8.9000000000000004
aF8.6500000000000004
aF8.8800000000000008
aF8.7799999999999994
aI2646000
aa(lp276
F8.6199999999999992
aF8.8900000000000006
aF8.8900000000000006
aF8.6699999999999999
aF8.5800000000000001
aI2742300
aa(lp277
F8.9000000000000004
aF9.25
aF9.1699999999999999
aF9.0299999999999994
aF8.7300000000000004
aI3576800
aa(lp278
F9.1500000000000004
aF9.3000000000000007
aF9.1899999999999995
aF9.1799999999999997
aF8.8699999999999992
aI3727400
aa(lp279
F9.1799999999999997
aF9.4900000000000002
aF9.3800000000000008
aF9.1899999999999995
aF8.8800000000000008
aI5332400
aa(lp280
F9.2200000000000006
aF9.6199999999999992
aF9.5199999999999996
aF9.4199999999999999
aF9.0999999999999996
aI5854900
aa(lp281
F9.5500000000000007
aF9.8599999999999994
aF9.75
aF9.5600000000000005
aF9.2400000000000002
aI5053500
aa(lp282
F9.5700000000000003
aF9.8800000000000008
aF9.8800000000000008
aF9.8200000000000003
aF9.4900000000000002
aI7913900
aa(lp283
F9.6899999999999995
aF9.9399999999999995
aF9.8000000000000007
aF9.8699999999999992
aF9.5399999999999991
aI9601400
aa(lp284
F9.2899999999999991
aF9.9499999999999993
aF9.3000000000000007
aF9.7599999999999998
aF9.4299999999999997
aI13422000
aa(lp285
F9.3100000000000005
aF9.4700000000000006
aF9.4000000000000004
aF9.3300000000000001
aF9.0199999999999996
aI2779800
aa(lp286
F9.2400000000000002
aF9.5999999999999996
aF9.5600000000000005
aF9.4000000000000004
aF9.0800000000000001
aI5269900
aa(lp287
F9.3599999999999994
aF9.6400000000000006
aF9.3599999999999994
aF9.5500000000000007
aF9.2300000000000004
aI6275200
aa(lp288
F9.3200000000000003
aF9.4800000000000004
aF9.4000000000000004
aF9.3599999999999994
aF9.0500000000000007
aI3678200
aa(lp289
F9.3100000000000005
aF9.4600000000000009
aF9.4399999999999995
aF9.3699999999999992
aF9.0500000000000007
aI3861700
aa(lp290
F9.0899999999999999
aF9.4399999999999995
aF9.0899999999999999
aF9.4000000000000004
aF9.0800000000000001
aI6544600
aa(lp291
F9.0899999999999999
aF9.0899999999999999
aF9.0899999999999999
aF9.0899999999999999
aF8.7799999999999994
aI0
aa(lp292
F8.7799999999999994
aF9.1600000000000001
aF8.7799999999999994
aF9.0899999999999999
aF8.7799999999999994
aI4631700
aa(lp293
F8.8100000000000005
aF8.9700000000000006
aF8.9000000000000004
aF8.8599999999999994
aF8.5600000000000005
aI3509600
aa(lp294
F8.7400000000000002
aF8.8200000000000003
aF8.8100000000000005
aF8.7699999999999996
aF8.4800000000000004
aI2505900
aa(lp295
F8.5999999999999996
aF8.8100000000000005
aF8.5999999999999996
aF8.8000000000000007
aF8.5
aI3658200
aa(lp296
F8.5299999999999994
aF8.9100000000000001
aF8.8599999999999994
aF8.5999999999999996
aF8.3100000000000005
aI7420800
aa(lp297
F8.8000000000000007
aF9.2599999999999998
aF9.1600000000000001
aF8.8699999999999992
aF8.5700000000000003
aI8506000
aa(lp298
F9.1799999999999997
aF9.6099999999999994
aF9.4800000000000004
aF9.1999999999999993
aF8.8900000000000006
aI7690100
aa(lp299
F9.3399999999999999
aF9.5500000000000007
aF9.4499999999999993
aF9.4600000000000009
aF9.1400000000000006
aI3832300
aa(lp300
F9.2899999999999991
aF9.5199999999999996
aF9.3599999999999994
aF9.4700000000000006
aF9.1500000000000004
aI3458100
aa(lp301
F9.3200000000000003
aF9.4800000000000004
aF9.3699999999999992
aF9.3800000000000008
aF9.0600000000000005
aI4720300
aa(lp302
F9.0099999999999998
aF9.3599999999999994
aF9.0800000000000001
aF9.3599999999999994
aF9.0500000000000007
aI3906700
aa(lp303
F9.0999999999999996
aF9.3399999999999999
aF9.1799999999999997
aF9.1199999999999992
aF8.8100000000000005
aI4185500
aa(lp304
F9.1300000000000008
aF9.4499999999999993
aF9.4000000000000004
aF9.2200000000000006
aF8.9100000000000001
aI4429400
aa(lp305
F9.3900000000000006
aF9.5899999999999999
aF9.5899999999999999
aF9.4499999999999993
aF9.1300000000000008
aI4844600
aa(lp306
F9.2599999999999998
aF9.5500000000000007
aF9.2599999999999998
aF9.5299999999999994
aF9.2100000000000009
aI3273900
aa(lp307
F9.2200000000000006
aF9.3900000000000006
aF9.3399999999999999
aF9.2699999999999996
aF8.9600000000000009
aI1974700
aa(lp308
F9.3100000000000005
aF9.4700000000000006
aF9.3100000000000005
aF9.3499999999999996
aF9.0399999999999991
aI2840600
aa(lp309
F9.1500000000000004
aF9.3699999999999992
aF9.25
aF9.3100000000000005
aF9
aI3988200
aa(lp310
F9.1199999999999992
aF9.2899999999999991
aF9.1999999999999993
aF9.25
aF8.9399999999999995
aI2763000
aa(lp311
F9
aF9.8000000000000007
aF9.7599999999999998
aF9.1999999999999993
aF8.8900000000000006
aI8014000
aa(lp312
F9.7599999999999998
aF9.9600000000000009
aF9.8100000000000005
aF9.8399999999999999
aF9.5099999999999998
aI3705700
aa(lp313
F9.7400000000000002
aF10.289999999999999
aF10.199999999999999
aF9.8100000000000005
aF9.4800000000000004
aI9332900
aa(lp314
F10.119999999999999
aF10.369999999999999
aF10.25
aF10.25
aF9.9100000000000001
aI4067500
aa(lp315
F10.15
aF10.449999999999999
aF10.32
aF10.24
aF9.9000000000000004
aI6679700
aa(lp316
F10.02
aF10.4
aF10.02
aF10.34
aF9.9900000000000002
aI7367600
aa(lp317
F9.8300000000000001
aF10.029999999999999
aF9.8599999999999994
aF9.9800000000000004
aF9.6400000000000006
aI4754200
aa(lp318
F9.8499999999999996
aF10.34
aF10.220000000000001
aF9.8699999999999992
aF9.5399999999999991
aI6026000
aa(lp319
F9.8200000000000003
aF10.16
aF9.9100000000000001
aF10.109999999999999
aF9.7699999999999996
aI5626300
aa(lp320
F9.8399999999999999
aF10.48
aF10.23
aF9.9700000000000006
aF9.6300000000000008
aI10420600
aa(lp321
F10.289999999999999
aF10.789999999999999
aF10.789999999999999
aF10.300000000000001
aF9.9499999999999993
aI15601800
aa(lp322
F10.289999999999999
aF10.960000000000001
aF10.58
aF10.92
aF10.550000000000001
aI13714900
aa(lp323
F10.52
aF10.99
aF10.949999999999999
aF10.68
aF10.32
aI13403500
aa(lp324
F10.74
aF11.1
aF10.9
aF10.92
aF10.550000000000001
aI15806700
aa(lp325
F10.609999999999999
aF11.1
aF10.699999999999999
aF11.01
aF10.640000000000001
aI20602000
aa(lp326
F10.44
aF10.699999999999999
aF10.52
aF10.67
aF10.31
aI13868700
aa(lp327
F10.119999999999999
aF10.75
aF10.119999999999999
aF10.56
aF10.199999999999999
aI14494700
aa(lp328
F10.1
aF10.550000000000001
aF10.35
aF10.15
aF9.8100000000000005
aI13391900
aa(lp329
F10.07
aF10.449999999999999
aF10.23
aF10.43
aF10.08
aI10345500
aa(lp330
F9.9100000000000001
aF10.44
aF9.9499999999999993
aF10.19
aF9.8499999999999996
aI14305500
aa(lp331
F9.5899999999999999
aF10
aF9.6099999999999994
aF10
aF9.6600000000000001
aI10333900
aa(lp332
F9.4299999999999997
aF9.6799999999999997
aF9.5
aF9.6500000000000004
aF9.3300000000000001
aI3801300
aa(lp333
F9.6199999999999992
aF9.6199999999999992
aF9.6199999999999992
aF9.6199999999999992
aF9.3000000000000007
aI0
aa(lp334
F9.6199999999999992
aF9.6199999999999992
aF9.6199999999999992
aF9.6199999999999992
aF9.3000000000000007
aI0
aa(lp335
F9.6199999999999992
aF9.6199999999999992
aF9.6199999999999992
aF9.6199999999999992
aF9.3000000000000007
aI0
aa(lp336
F9.6199999999999992
aF9.6199999999999992
aF9.6199999999999992
aF9.6199999999999992
aF9.3000000000000007
aI0
aa(lp337
F9.5199999999999996
aF9.7599999999999998
aF9.5999999999999996
aF9.6199999999999992
aF9.3000000000000007
aI4273500
aa(lp338
F9.4399999999999995
aF9.6799999999999997
aF9.5800000000000001
aF9.5700000000000003
aF9.25
aI6273900
aa(lp339
F9.5600000000000005
aF9.8599999999999994
aF9.6199999999999992
aF9.5800000000000001
aF9.2599999999999998
aI5762900
aa(lp340
F9.5800000000000001
aF9.8200000000000003
aF9.7799999999999994
aF9.6099999999999994
aF9.2899999999999991
aI8909900
aa(lp341
F9.3499999999999996
aF10
aF9.4100000000000001
aF9.9000000000000004
aF9.5700000000000003
aI11725700
aa(lp342
F9.3800000000000008
aF9.5500000000000007
aF9.5500000000000007
aF9.4100000000000001
aF9.0899999999999999
aI5676500
aa(lp343
F9.3000000000000007
aF9.5399999999999991
aF9.3699999999999992
aF9.5199999999999996
aF9.1999999999999993
aI6820800
aa(lp344
F9.0999999999999996
aF9.4299999999999997
aF9.1199999999999992
aF9.3399999999999999
aF9.0299999999999994
aI5008500
aa(lp345
F9
aF9.25
aF9.1300000000000008
aF9.1300000000000008
aF8.8200000000000003
aI3471500
aa(lp346
F9.1300000000000008
aF9.3000000000000007
aF9.3000000000000007
aF9.1799999999999997
aF8.8699999999999992
aI2619700
aa(lp347
F9.0500000000000007
aF9.3300000000000001
aF9.1300000000000008
aF9.2699999999999996
aF8.9600000000000009
aI3460100
aa(lp348
F9.0299999999999994
aF9.1600000000000001
aF9.1600000000000001
aF9.1400000000000006
aF8.8300000000000001
aI2114600
aa(lp349
F8.8399999999999999
aF9.1300000000000008
aF8.9000000000000004
aF9.1199999999999992
aF8.8100000000000005
aI3084200
aa(lp350
F8.7100000000000009
aF8.9600000000000009
aF8.8100000000000005
aF8.8900000000000006
aF8.5899999999999999
aI2636400
aa(lp351
F8.7699999999999996
aF9.1099999999999994
aF9.0500000000000007
aF8.8599999999999994
aF8.5600000000000005
aI4937400
aa(lp352
F9.0099999999999998
aF9.4499999999999993
aF9.3599999999999994
aF9.0399999999999991
aF8.7400000000000002
aI4456600
aa(lp353
F9.0500000000000007
aF9.5099999999999998
aF9.0999999999999996
aF9.3800000000000008
aF9.0600000000000005
aI8922000
aa(lp354
F8.8599999999999994
aF9.0899999999999999
aF8.8599999999999994
aF9
aF8.6999999999999993
aI4026900
aa(lp355
F8.8300000000000001
aF9
aF9
aF8.8699999999999992
aF8.5700000000000003
aI3914100
aa(lp356
F8.9800000000000004
aF9.3800000000000008
aF9.3800000000000008
aF9.0700000000000003
aF8.7699999999999996
aI5495600
aa(lp357
F9.25
aF9.5399999999999991
aF9.4000000000000004
aF9.3900000000000006
aF9.0700000000000003
aI4149600
aa(lp358
F9.4100000000000001
aF9.4100000000000001
aF9.4100000000000001
aF9.4100000000000001
aF9.0899999999999999
aI0
aa(lp359
F9.2799999999999994
aF9.5800000000000001
aF9.3800000000000008
aF9.4100000000000001
aF9.0899999999999999
aI3810400
aa(lp360
F9.2300000000000004
aF9.5800000000000001
aF9.3499999999999996
aF9.3699999999999992
aF9.0500000000000007
aI6054100
aa(lp361
F8.7699999999999996
aF9.2799999999999994
aF8.8000000000000007
aF9.2699999999999996
aF8.9600000000000009
aI6647200
aa(lp362
F8.8699999999999992
aF9.3300000000000001
aF9.2899999999999991
aF8.8800000000000008
aF8.5800000000000001
aI6465800
aa(lp363
F9.0099999999999998
aF9.2899999999999991
aF9.0600000000000005
aF9.2799999999999994
aF8.9700000000000006
aI4913600
aa(lp364
F8.9900000000000002
aF9.2200000000000006
aF9.0199999999999996
aF9.0700000000000003
aF8.7699999999999996
aI5567300
aa(lp365
F8.8900000000000006
aF9.1999999999999993
aF9.0800000000000001
aF9.0299999999999994
aF8.7300000000000004
aI5119400
aa(lp366
F9.1699999999999999
aF9.6300000000000008
aF9.5600000000000005
aF9.1999999999999993
aF8.8900000000000006
aI7240800
aa(lp367
F9.4800000000000004
aF9.7400000000000002
aF9.5600000000000005
aF9.5899999999999999
aF9.2699999999999996
aI4484700
aa(lp368
F9.4600000000000009
aF9.7200000000000006
aF9.5
aF9.5500000000000007
aF9.2300000000000004
aI5506400
aa(lp369
F9.4299999999999997
aF9.8100000000000005
aF9.7599999999999998
aF9.4700000000000006
aF9.1500000000000004
aI7943300
aa(lp370
F9.6400000000000006
aF9.9800000000000004
aF9.6500000000000004
aF9.7100000000000009
aF9.3800000000000008
aI11726500
aa(lp371
F9.6400000000000006
aF9.8599999999999994
aF9.7699999999999996
aF9.6799999999999997
aF9.3499999999999996
aI7821600
aa(lp372
F9.5600000000000005
aF10.08
aF9.6799999999999997
aF9.7599999999999998
aF9.4299999999999997
aI17935700
aa(lp373
F9.3800000000000008
aF10.07
aF9.4499999999999993
aF9.6699999999999999
aF9.3399999999999999
aI25301800
aa(lp374
F8.9800000000000004
aF9.8599999999999994
aF9.0500000000000007
aF9.5999999999999996
aF9.2799999999999994
aI23767500
aa(lp375
F8.9299999999999997
aF9.1600000000000001
aF9.0099999999999998
aF9.0399999999999991
aF8.7400000000000002
aI9338200
aa(lp376
F8.8900000000000006
aF9.2100000000000009
aF9.2100000000000009
aF8.9199999999999999
aF8.6199999999999992
aI15168500
aa(lp377
F9.0600000000000005
aF9.3000000000000007
aF9.2899999999999991
aF9.2300000000000004
aF8.9199999999999999
aI13162600
aa(lp378
F9.0399999999999991
aF9.3300000000000001
aF9.0999999999999996
aF9.2899999999999991
aF8.9800000000000004
aI17995300
aa(lp379
F8.8100000000000005
aF9.3200000000000003
aF8.8699999999999992
aF9.1500000000000004
aF8.8399999999999999
aI15596700
aa(lp380
F8.5099999999999998
aF9.2599999999999998
aF8.5099999999999998
aF8.9399999999999995
aF8.6400000000000006
aI23430500
aa(lp381
F8.6400000000000006
aF8.9000000000000004
aF8.7100000000000009
aF8.7100000000000009
aF8.4199999999999999
aI9825600
aa(lp382
F8.3800000000000008
aF8.8100000000000005
aF8.4000000000000004
aF8.6899999999999995
aF8.4000000000000004
aI18334600
aa(lp383
F8.2799999999999994
aF8.4000000000000004
aF8.3000000000000007
aF8.4000000000000004
aF8.1199999999999992
aI8068600
aa(lp384
F8.2200000000000006
aF8.3900000000000006
aF8.3000000000000007
aF8.25
aF7.9699999999999998
aI5631300
aa(lp385
F8.3100000000000005
aF8.4600000000000009
aF8.3200000000000003
aF8.3599999999999994
aF8.0800000000000001
aI6495100
aa(lp386
F8.2699999999999996
aF8.4199999999999999
aF8.3200000000000003
aF8.3399999999999999
aF8.0600000000000005
aI5727900
aa(lp387
F8.1999999999999993
aF8.4199999999999999
aF8.4100000000000001
aF8.3200000000000003
aF8.0399999999999991
aI7534900
aa(lp388
F8.2799999999999994
aF8.4600000000000009
aF8.2799999999999994
aF8.4299999999999997
aF8.1500000000000004
aI10480300
aa(lp389
F8.1899999999999995
aF8.3599999999999994
aF8.2799999999999994
aF8.2400000000000002
aF7.96
aI6987000
aa(lp390
F8.1899999999999995
aF8.3300000000000001
aF8.1999999999999993
aF8.2899999999999991
aF8.0099999999999998
aI9167500
aa(lp391
F7.9400000000000004
aF8.2699999999999996
aF7.9900000000000002
aF8.1899999999999995
aF7.9100000000000001
aI7027600
aa(lp392
F7.7400000000000002
aF8.0700000000000003
aF8.0099999999999998
aF8.0199999999999996
aF7.75
aI6823700
aa(lp393
F8.0299999999999994
aF8.4199999999999999
aF8.4000000000000004
aF8.0500000000000007
aF7.7800000000000002
aI7080800
aa(lp394
F8.2899999999999991
aF8.4499999999999993
aF8.3100000000000005
aF8.3499999999999996
aF8.0700000000000003
aI6341800
aa(lp395
F8.1500000000000004
aF8.4299999999999997
aF8.2799999999999994
aF8.3599999999999994
aF8.0800000000000001
aI5587500
aa(lp396
F8.25
aF8.7300000000000004
aF8.6099999999999994
aF8.3399999999999999
aF8.0600000000000005
aI9336700
aa(lp397
F8.5500000000000007
aF8.9100000000000001
aF8.8399999999999999
aF8.6999999999999993
aF8.4100000000000001
aI8041200
aa(lp398
F8.9000000000000004
aF9.1699999999999999
aF9.0999999999999996
aF8.9399999999999995
aF8.6400000000000006
aI9013300
aa(lp399
F8.9499999999999993
aF9.3000000000000007
aF9.3000000000000007
aF9.1300000000000008
aF8.8200000000000003
aI10864300
aa(lp400
F9.0999999999999996
aF9.4299999999999997
aF9.0999999999999996
aF9.2899999999999991
aF8.9800000000000004
aI15050000
aa(lp401
F8.6600000000000001
aF9.1099999999999994
aF9
aF9.0800000000000001
aF8.7699999999999996
aI10223600
aa(lp402
F8.8100000000000005
aF9.3800000000000008
aF8.9399999999999995
aF8.9900000000000002
aF8.6899999999999995
aI16256700
aa(lp403
F8.3399999999999999
aF9.0600000000000005
aF8.4499999999999993
aF8.9900000000000002
aF8.6899999999999995
aI17978800
aa(lp404
F8.0999999999999996
aF8.6899999999999995
aF8.6899999999999995
aF8.4900000000000002
aF8.1999999999999993
aI11980900
aa(lp405
F8.3800000000000008
aF8.7899999999999991
aF8.5999999999999996
aF8.5899999999999999
aF8.3000000000000007
aI18433400
aa(lp406
F8.4399999999999995
aF9.1199999999999992
aF8.5
aF8.7899999999999991
aF8.4900000000000002
aI29987900
aa(lp407
F8.0099999999999998
aF8.3100000000000005
aF8.0500000000000007
aF8.2899999999999991
aF8.0099999999999998
aI6312900
aa(lp408
F8
aF8.4299999999999997
aF8.4299999999999997
aF8.0500000000000007
aF7.7800000000000002
aI11380300
aa(lp409
F8.3599999999999994
aF8.5299999999999994
aF8.5
aF8.3699999999999992
aF8.0899999999999999
aI6526900
aa(lp410
F8.3200000000000003
aF8.5700000000000003
aF8.4000000000000004
aF8.5
aF8.2100000000000009
aI7272300
aa(lp411
F8.3100000000000005
aF8.4600000000000009
aF8.4000000000000004
aF8.3699999999999992
aF8.0899999999999999
aI6682700
aa(lp412
F8.2699999999999996
aF8.5399999999999991
aF8.2699999999999996
aF8.4800000000000004
aF8.1899999999999995
aI12509600
aa(lp413
F8.1699999999999999
aF8.4800000000000004
aF8.3499999999999996
aF8.25
aF7.9699999999999998
aI9037300
aa(lp414
F8.1699999999999999
aF8.3300000000000001
aF8.25
aF8.25
aF7.9699999999999998
aI5838200
aa(lp415
F8.1300000000000008
aF8.2899999999999991
aF8.2100000000000009
aF8.25
aF7.9699999999999998
aI8319400
aa(lp416
F7.96
aF8.3000000000000007
aF7.96
aF8.1500000000000004
aF7.8799999999999999
aI10640900
aa(lp417
F7.9000000000000004
aF8.1400000000000006
aF8.0899999999999999
aF7.9400000000000004
aF7.6699999999999999
aI4021000
aa(lp418
F7.9100000000000001
aF8.0800000000000001
aF7.9500000000000002
aF8.0800000000000001
aF7.8099999999999996
aI4096000
aa(lp419
F7.8099999999999996
aF7.96
aF7.9199999999999999
aF7.9400000000000004
aF7.6699999999999999
aI3029500
aa(lp420
F7.8399999999999999
aF7.8399999999999999
aF7.8399999999999999
aF7.8399999999999999
aF7.5800000000000001
aI0
aa(lp421
F7.8399999999999999
aF7.8399999999999999
aF7.8399999999999999
aF7.8399999999999999
aF7.5800000000000001
aI0
aa(lp422
F7.8399999999999999
aF7.8399999999999999
aF7.8399999999999999
aF7.8399999999999999
aF7.5800000000000001
aI0
aa(lp423
F7.8399999999999999
aF7.8399999999999999
aF7.8399999999999999
aF7.8399999999999999
aF7.5800000000000001
aI0
aa(lp424
F7.8399999999999999
aF7.8399999999999999
aF7.8399999999999999
aF7.8399999999999999
aF7.5800000000000001
aI0
aa(lp425
F7.8099999999999996
aF7.8899999999999997
aF7.8499999999999996
aF7.8399999999999999
aF7.5800000000000001
aI2147000
aa(lp426
F7.7000000000000002
aF7.8899999999999997
aF7.7199999999999998
aF7.8200000000000003
aF7.5599999999999996
aI3453100
aa(lp427
F7.6699999999999999
aF8.0800000000000001
aF8.0399999999999991
aF7.7199999999999998
aF7.46
aI7258500
aa(lp428
F8.0500000000000007
aF8.3000000000000007
aF8.2100000000000009
aF8.0600000000000005
aF7.79
aI5861200
aa(lp429
F8.0299999999999994
aF8.2200000000000006
aF8.0700000000000003
aF8.1999999999999993
aF7.9199999999999999
aI7782600
aa(lp430
F8.0099999999999998
aF8.1300000000000008
aF8.0099999999999998
aF8.0600000000000005
aF7.79
aI6590900
aa(lp431
F8.0600000000000005
aF8.0600000000000005
aF8.0600000000000005
aF8.0600000000000005
aF7.79
aI0
aa(lp432
F7.9699999999999998
aF8.0800000000000001
aF8.0600000000000005
aF8.0600000000000005
aF7.79
aI3709400
aa(lp433
F7.9800000000000004
aF8.1600000000000001
aF8.0800000000000001
aF8.0700000000000003
aF7.7999999999999998
aI6533600
aa(lp434
F7.9900000000000002
aF8.1400000000000006
aF8.1400000000000006
aF8.0600000000000005
aF7.79
aI7198600
aa(lp435
F7.9500000000000002
aF8.1400000000000006
aF8.0700000000000003
aF8.1199999999999992
aF7.8499999999999996
aI7500800
aa(lp436
F8.0199999999999996
aF8.2599999999999998
aF8.1899999999999995
aF8.0299999999999994
aF7.7599999999999998
aI9861300
aa(lp437
F8.0899999999999999
aF8.3499999999999996
aF8.1300000000000008
aF8.1999999999999993
aF7.9199999999999999
aI12699800
aa(lp438
F8.0099999999999998
aF8.1400000000000006
aF8.0700000000000003
aF8.1300000000000008
aF7.8600000000000003
aI8575800
aa(lp439
F7.96
aF8.1799999999999997
aF8.0999999999999996
aF8.0800000000000001
aF7.8099999999999996
aI9613000
aa(lp440
F7.9100000000000001
aF8.0999999999999996
aF7.9299999999999997
aF8.0800000000000001
aF7.8099999999999996
aI9817600
aa(lp441
F7.7699999999999996
aF8.0600000000000005
aF7.8099999999999996
aF7.9299999999999997
aF7.6600000000000001
aI10854600
aa(lp442
F7.7999999999999998
aF7.9400000000000004
aF7.8399999999999999
aF7.8300000000000001
aF7.5700000000000003
aI6888500
aa(lp443
F7.6200000000000001
aF7.9000000000000004
aF7.6799999999999997
aF7.8799999999999999
aF7.6200000000000001
aI8026400
aa(lp444
F7.5099999999999998
aF7.7800000000000002
aF7.7400000000000002
aF7.71
aF7.4500000000000002
aI8337500
aa(lp445
F7.7000000000000002
aF7.8899999999999997
aF7.8899999999999997
aF7.7199999999999998
aF7.46
aI10833200
aa(lp446
F7.7699999999999996
aF8.0999999999999996
aF7.7999999999999998
aF7.8899999999999997
aF7.6200000000000001
aI15688100
aa(lp447
F7.6500000000000004
aF7.8300000000000001
aF7.7800000000000002
aF7.6600000000000001
aF7.4000000000000004
aI10661200
aa(lp448
F7.5499999999999998
aF7.8300000000000001
aF7.5599999999999996
aF7.8200000000000003
aF7.5599999999999996
aI15954500
aa(lp449
F7.3099999999999996
aF7.6299999999999999
aF7.46
aF7.54
aF7.29
aI15101700
aa(lp450
F7.3300000000000001
aF7.5700000000000003
aF7.4100000000000001
aF7.4699999999999998
aF7.2199999999999998
aI10863400
aa(lp451
F7.4199999999999999
aF7.5499999999999998
aF7.5099999999999998
aF7.4199999999999999
aF7.1699999999999999
aI10114800
aa(lp452
F7.5
aF7.71
aF7.6699999999999999
aF7.5800000000000001
aF7.3300000000000001
aI8708300
aa(lp453
F7.71
aF7.8399999999999999
aF7.7699999999999996
aF7.7199999999999998
aF7.46
aI5622000
aa(lp454
F7.6500000000000004
aF7.8700000000000001
aF7.7800000000000002
aF7.79
aF7.5300000000000002
aI5167200
aa(lp455
F7.7999999999999998
aF8.0399999999999991
aF7.9699999999999998
aF7.8300000000000001
aF7.5700000000000003
aI7711200
aa(lp456
F7.8200000000000003
aF8.2400000000000002
aF7.8200000000000003
aF8.0800000000000001
aF7.8099999999999996
aI14347800
aa(lp457
F8.2699999999999996
aF8.5099999999999998
aF8.5
aF8.3599999999999994
aF8.0800000000000001
aI3931900
aa(lp458
F8.4199999999999999
aF8.5999999999999996
aF8.4399999999999995
aF8.5
aF8.2100000000000009
aI4121200
aa(lp459
F8.2799999999999994
aF8.6999999999999993
aF8.3200000000000003
aF8.6300000000000008
aF8.3399999999999999
aI4974600
aa(lp460
F8.1099999999999994
aF8.2699999999999996
aF8.1600000000000001
aF8.25
aF7.9699999999999998
aI1567300
aa(lp461
F8.1300000000000008
aF8.2400000000000002
aF8.2300000000000004
aF8.1600000000000001
aF7.8899999999999997
aI1284200
aa(lp462
F8.1199999999999992
aF8.4499999999999993
aF8.4499999999999993
aF8.1999999999999993
aF7.9199999999999999
aI2273200
aa(lp463
F8.2899999999999991
aF8.4900000000000002
aF8.3599999999999994
aF8.4399999999999995
aF8.1600000000000001
aI2477800
aa(lp464
F8.1799999999999997
aF8.3599999999999994
aF8.2200000000000006
aF8.3399999999999999
aF8.0600000000000005
aI1710800
aa(lp465
F8.1199999999999992
aF8.3300000000000001
aF8.2400000000000002
aF8.2799999999999994
aF8
aI2145000
aa(lp466
F8.0199999999999996
aF8.2400000000000002
aF8.1400000000000006
aF8.2400000000000002
aF7.96
aI1737800
aa(lp467
F7.9299999999999997
aF8.1300000000000008
aF8.0500000000000007
aF8
aF7.7300000000000004
aI1147400
aa(lp468
F7.7999999999999998
aF8.0899999999999999
aF8.0500000000000007
aF8.0299999999999994
aF7.7599999999999998
aI1195400
aa(lp469
F7.7999999999999998
aF8.1899999999999995
aF8.0999999999999996
aF8.0299999999999994
aF7.7599999999999998
aI1571100
aa(lp470
F8.1500000000000004
aF8.3800000000000008
aF8.3000000000000007
aF8.1600000000000001
aF7.8899999999999997
aI1318200
aa(lp471
F8.1600000000000001
aF8.4299999999999997
aF8.3300000000000001
aF8.3499999999999996
aF8.0700000000000003
aI1728900
aa(lp472
F8.2699999999999996
aF8.5899999999999999
aF8.3100000000000005
aF8.3900000000000006
aF8.1099999999999994
aI2973200
aa(lp473
F7.9400000000000004
aF8.3000000000000007
aF7.9400000000000004
aF8.2899999999999991
aF8.0099999999999998
aI2813900
aa(lp474
F7.5199999999999996
aF7.8600000000000003
aF7.6699999999999999
aF7.8399999999999999
aF7.5800000000000001
aI1177800
aa(lp475
F7.6600000000000001
aF8.0899999999999999
aF7.9199999999999999
aF7.6699999999999999
aF7.4100000000000001
aI2353400
aa(lp476
F7.8799999999999999
aF8.2300000000000004
aF8.2200000000000006
aF7.9800000000000004
aF7.71
aI2252800
aa(lp477
F8.0999999999999996
aF8.4399999999999995
aF8.3800000000000008
aF8.1600000000000001
aF7.8899999999999997
aI2004200
aa(lp478
F8.2100000000000009
aF8.3800000000000008
aF8.3499999999999996
aF8.3699999999999992
aF8.0899999999999999
aI2143900
aa(lp479
F8.1999999999999993
aF8.4000000000000004
aF8.2899999999999991
aF8.3399999999999999
aF8.0600000000000005
aI1661900
aa(lp480
F8.1500000000000004
aF8.4199999999999999
aF8.2699999999999996
aF8.1999999999999993
aF7.9199999999999999
aI2336800
aa(lp481
F8.1199999999999992
aF8.4199999999999999
aF8.1199999999999992
aF8.2899999999999991
aF8.0099999999999998
aI2708800
aa(lp482
F7.75
aF8.1999999999999993
aF7.7999999999999998
aF8.1699999999999999
aF7.9000000000000004
aI2099800
aa(lp483
F7.5999999999999996
aF7.9000000000000004
aF7.6500000000000004
aF7.8200000000000003
aF7.5599999999999996
aI1171000
aa(lp484
F7.4900000000000002
aF7.9100000000000001
aF7.8700000000000001
aF7.7400000000000002
aF7.4800000000000004
aI2260000
aa(lp485
F7.9299999999999997
aF8.1999999999999993
aF8
aF8.0099999999999998
aF7.7400000000000002
aI2253100
aa(lp486
F7.71
aF8.2899999999999991
aF7.71
aF8.0500000000000007
aF7.7800000000000002
aI3524500
aa(lp487
F7.6500000000000004
aF7.8499999999999996
aF7.8499999999999996
aF7.8200000000000003
aF7.5599999999999996
aI2821200
aa(lp488
F7.6399999999999997
aF7.9000000000000004
aF7.7000000000000002
aF7.8700000000000001
aF7.6100000000000003
aI3717600
aa(lp489
F7.0300000000000002
aF7.8300000000000001
aF7.1200000000000001
aF7.7999999999999998
aF7.54
aI4483700
aa(lp490
F6.7800000000000002
aF7.3600000000000003
aF7.0999999999999996
aF7.1200000000000001
aF6.8799999999999999
aI3210400
aa(lp491
F7.1200000000000001
aF7.5800000000000001
aF7.4800000000000004
aF7.1600000000000001
aF6.9199999999999999
aI2788000
aa(lp492
F7.25
aF7.4800000000000004
aF7.2800000000000002
aF7.46
aF7.21
aI2456300
aa(lp493
F6.7800000000000002
aF7.4900000000000002
aF7.4000000000000004
aF7.3799999999999999
aF7.1299999999999999
aI3828500
aa(lp494
F7.5199999999999996
aF8.3499999999999996
aF8.3499999999999996
aF7.5199999999999996
aF7.2699999999999996
aI3540000
aa(lp495
F8.1500000000000004
aF8.5
aF8.3000000000000007
aF8.3499999999999996
aF8.0700000000000003
aI2417200
aa(lp496
F8.4199999999999999
aF9.1799999999999997
aF9.1600000000000001
aF8.5399999999999991
aF8.25
aI2029100
aa(lp497
F9.0199999999999996
aF9.2200000000000006
aF9.1999999999999993
aF9.1699999999999999
aF8.8599999999999994
aI1567600
aa(lp498
F8.9000000000000004
aF9.3300000000000001
aF8.9700000000000006
aF9.25
aF8.9399999999999995
aI2999700
aa(lp499
F8.8000000000000007
aF9.0999999999999996
aF9.0299999999999994
aF8.9499999999999993
aF8.6500000000000004
aI1706100
aa(lp500
F8.8300000000000001
aF9.0600000000000005
aF8.8300000000000001
aF9.0299999999999994
aF8.7300000000000004
aI1751300
aa(lp501
F8.6300000000000008
aF9
aF8.9100000000000001
aF8.8000000000000007
aF8.5
aI2186900
aa(lp502
F9.1199999999999992
aF9.1199999999999992
aF9.1199999999999992
aF9.1199999999999992
aF8.8100000000000005
aI0
aa(lp503
F9.1199999999999992
aF9.1199999999999992
aF9.1199999999999992
aF9.1199999999999992
aF8.8100000000000005
aI0
aa(lp504
F9.1199999999999992
aF9.1199999999999992
aF9.1199999999999992
aF9.1199999999999992
aF8.8100000000000005
aI0
aa(lp505
F9.0399999999999991
aF9.6400000000000006
aF9.5299999999999994
aF9.1199999999999992
aF8.8100000000000005
aI3253100
aa(lp506
F9.5
aF9.7400000000000002
aF9.6699999999999999
aF9.5500000000000007
aF9.2300000000000004
aI2005100
aa(lp507
F9.5199999999999996
aF9.8000000000000007
aF9.6999999999999993
aF9.7699999999999996
aF9.4399999999999995
aI2972300
aa(lp508
F9.6300000000000008
aF10.33
aF10.33
aF9.7200000000000006
aF9.3900000000000006
aI4598400
aa(lp509
F10.220000000000001
aF10.449999999999999
aF10.300000000000001
aF10.31
aF9.9600000000000009
aI1974000
aa(lp510
F10.279999999999999
aF10.48
aF10.369999999999999
aF10.300000000000001
aF9.9499999999999993
aI3446200
aa(lp511
F10.369999999999999
aF10.67
aF10.67
aF10.4
aF10.050000000000001
aI4364000
aa(lp512
F10.550000000000001
aF10.779999999999999
aF10.65
aF10.66
aF10.300000000000001
aI3368400
aa(lp513
F10.6
aF11.06
aF10.880000000000001
aF10.85
aF10.32
aI6893800
aa(lp514
F10.33
aF10.890000000000001
aF10.52
aF10.880000000000001
aF10.34
aI7091000
aa(lp515
F10.31
aF10.67
aF10.359999999999999
aF10.51
aF9.9900000000000002
aI4905000
aa(lp516
F10.300000000000001
aF10.880000000000001
aF10.59
aF10.32
aF9.8100000000000005
aI6073100
aa(lp517
F10.529999999999999
aF10.94
aF10.83
aF10.58
aF10.06
aI6644300
aa(lp518
F10.25
aF10.81
aF10.25
aF10.789999999999999
aF10.26
aI8416800
aa(lp519
F10.109999999999999
aF10.460000000000001
aF10.33
aF10.369999999999999
aF9.8599999999999994
aI7468700
aa(lp520
F9.8200000000000003
aF10.210000000000001
aF9.9800000000000004
aF10.18
aF9.6799999999999997
aI6915500
aa(lp521
F9.7300000000000004
aF10.08
aF9.9000000000000004
aF9.9800000000000004
aF9.4900000000000002
aI5388700
aa(lp522
F9.7899999999999991
aF10.17
aF10.08
aF9.9299999999999997
aF9.4399999999999995
aI3801100
aa(lp523
F9.8900000000000006
aF10.18
aF9.9399999999999995
aF10.109999999999999
aF9.6099999999999994
aI5752400
aa(lp524
F9.6899999999999995
aF9.9700000000000006
aF9.75
aF9.9600000000000009
aF9.4700000000000006
aI4017800
aa(lp525
F9.5999999999999996
aF10.109999999999999
aF10
aF9.7699999999999996
aF9.2899999999999991
aI7817100
aa(lp526
F9.8399999999999999
aF10.41
aF10.41
aF10.119999999999999
aF9.6199999999999992
aI8124100
aa(lp527
F10.19
aF10.48
aF10.199999999999999
aF10.43
aF9.9199999999999999
aI7773400
aa(lp528
F10.140000000000001
aF10.33
aF10.289999999999999
aF10.19
aF9.6899999999999995
aI5271800
aa(lp529
F10.050000000000001
aF10.48
aF10.220000000000001
aF10.34
aF9.8300000000000001
aI7767600
aa(lp530
F10.199999999999999
aF10.529999999999999
aF10.26
aF10.220000000000001
aF9.7200000000000006
aI6771800
aa(lp531
F10.08
aF10.48
aF10.15
aF10.31
aF9.8000000000000007
aI5956800
aa(lp532
F10.26
aF10.26
aF10.26
aF10.26
aF9.7599999999999998
aI0
aa(lp533
F10.26
aF10.26
aF10.26
aF10.26
aF9.7599999999999998
aI0
aa(lp534
F10.26
aF10.26
aF10.26
aF10.26
aF9.7599999999999998
aI0
aa(lp535
F9.7799999999999994
aF10.369999999999999
aF9.9600000000000009
aF10.26
aF9.7599999999999998
aI10220600
aa(lp536
F9.9499999999999993
aF10.859999999999999
aF10.1
aF9.9800000000000004
aF9.4900000000000002
aI14895000
aa(lp537
F9.6799999999999997
aF10.26
aF9.6799999999999997
aF10.199999999999999
aF9.6999999999999993
aI12735000
aa(lp538
F9.5800000000000001
aF10.06
aF9.9000000000000004
aF9.6899999999999995
aF9.2100000000000009
aI7093100
aa(lp539
F9.6600000000000001
aF9.9800000000000004
aF9.6999999999999993
aF9.9499999999999993
aF9.4600000000000009
aI8963400
aa(lp540
F9.1400000000000006
aF9.9499999999999993
aF9.1899999999999995
aF9.8399999999999999
aF9.3599999999999994
aI10035400
aa(lp541
F9
aF9.2799999999999994
aF9.0800000000000001
aF9.1799999999999997
aF8.7300000000000004
aI3056400
aa(lp542
F9.0800000000000001
aF9.6199999999999992
aF9.5199999999999996
aF9.2100000000000009
aF8.7599999999999998
aI5136100
aa(lp543
F9
aF9.5299999999999994
aF9.4600000000000009
aF9.5199999999999996
aF9.0500000000000007
aI3481000
aa(lp544
F9.3499999999999996
aF9.6600000000000001
aF9.3499999999999996
aF9.4800000000000004
aF9.0099999999999998
aI3407900
aa(lp545
F9.3000000000000007
aF9.6300000000000008
aF9.4000000000000004
aF9.4700000000000006
aF9
aI3363900
aa(lp546
F9.4399999999999995
aF9.8399999999999999
aF9.6600000000000001
aF9.4499999999999993
aF8.9800000000000004
aI5026900
aa(lp547
F9.3599999999999994
aF9.75
aF9.5199999999999996
aF9.6999999999999993
aF9.2200000000000006
aI7425900
aa(lp548
F9.0199999999999996
aF9.5999999999999996
aF9.0199999999999996
aF9.5800000000000001
aF9.1099999999999994
aI7632000
aa(lp549
F8.5999999999999996
aF9.0800000000000001
aF9.0800000000000001
aF9.0199999999999996
aF8.5800000000000001
aI2618400
aa(lp550
F9.1799999999999997
aF9.1799999999999997
aF9.1799999999999997
aF9.1799999999999997
aF8.7300000000000004
aI0
aa(lp551
F9.1799999999999997
aF9.1799999999999997
aF9.1799999999999997
aF9.1799999999999997
aF8.7300000000000004
aI0
aa(lp552
F9.0899999999999999
aF9.4499999999999993
aF9.25
aF9.1799999999999997
aF8.7300000000000004
aI4928400
aa(lp553
F8.9000000000000004
aF9.2899999999999991
aF9.0199999999999996
aF9.1099999999999994
aF8.6600000000000001
aI3467600
aa(lp554
F8.7300000000000004
aF9.1999999999999993
aF8.7300000000000004
aF9.1099999999999994
aF8.6600000000000001
aI4144000
aa(lp555
F8.7799999999999994
aF9.0700000000000003
aF8.8100000000000005
aF8.8000000000000007
aF8.3699999999999992
aI2931600
aa(lp556
F8.7799999999999994
aF9.1699999999999999
aF9.1699999999999999
aF8.7899999999999991
aF8.3599999999999994
aI4308800
aa(lp557
F9.0299999999999994
aF9.2899999999999991
aF9.0999999999999996
aF9.1899999999999995
aF8.7400000000000002
aI4270400
aa(lp558
F8.9100000000000001
aF9.2400000000000002
aF9.0999999999999996
aF9.0999999999999996
aF8.6500000000000004
aI6294900
aa(lp559
F8.5399999999999991
aF9.0999999999999996
aF8.5399999999999991
aF9.0899999999999999
aF8.6400000000000006
aI9493400
aa(lp560
F8.4000000000000004
aF8.6799999999999997
aF8.6500000000000004
aF8.5700000000000003
aF8.1500000000000004
aI2571200
aa(lp561
F8.4399999999999995
aF8.7899999999999991
aF8.5600000000000005
aF8.6799999999999997
aF8.25
aI5251400
aa(lp562
F7.9199999999999999
aF8.7200000000000006
aF7.9299999999999997
aF8.5700000000000003
aF8.1500000000000004
aI6457100
aa(lp563
F7.75
aF7.9500000000000002
aF7.8300000000000001
aF7.9299999999999997
aF7.54
aI1230100
aa(lp564
F7.7800000000000002
aF8.1199999999999992
aF8.0399999999999991
aF7.8399999999999999
aF7.4500000000000002
aI1936600
aa(lp565
F7.9500000000000002
aF8.2400000000000002
aF8.0299999999999994
aF8.0299999999999994
aF7.6299999999999999
aI2188700
aa(lp566
F7.9500000000000002
aF8.1500000000000004
aF7.9800000000000004
aF8
aF7.6100000000000003
aI1881200
aa(lp567
F7.9000000000000004
aF8.3200000000000003
aF8.2799999999999994
aF8.0600000000000005
aF7.6600000000000001
aI3194700
aa(lp568
F8.1400000000000006
aF8.9199999999999999
aF8.7799999999999994
aF8.2799999999999994
aF7.8700000000000001
aI4518800
aa(lp569
F8.6300000000000008
aF8.8900000000000006
aF8.7400000000000002
aF8.8399999999999999
aF8.4000000000000004
aI2521700
aa(lp570
F8.7400000000000002
aF9.0500000000000007
aF9.0500000000000007
aF8.7699999999999996
aF8.3399999999999999
aI2871000
aa(lp571
F8.9800000000000004
aF9.1500000000000004
aF9.1500000000000004
aF9.0099999999999998
aF8.5700000000000003
aI3685100
aa(lp572
F8.9399999999999995
aF9.1500000000000004
aF9.0700000000000003
aF9.1300000000000008
aF8.6799999999999997
aI5870800
aa(lp573
F8.7300000000000004
aF9.0299999999999994
aF8.7899999999999991
aF9.0299999999999994
aF8.5899999999999999
aI4206900
aa(lp574
F8.6199999999999992
aF9.1400000000000006
aF8.8900000000000006
aF8.7899999999999991
aF8.3599999999999994
aI4828900
aa(lp575
F8.7699999999999996
aF8.9600000000000009
aF8.8300000000000001
aF8.9399999999999995
aF8.5
aI3714200
aa(lp576
F8.5800000000000001
aF8.8599999999999994
aF8.6600000000000001
aF8.8499999999999996
aF8.4100000000000001
aI3732900
aa(lp577
F8.5600000000000005
aF8.7300000000000004
aF8.6199999999999992
aF8.6500000000000004
aF8.2200000000000006
aI2744100
aa(lp578
F8.5800000000000001
aF8.8399999999999999
aF8.75
aF8.5899999999999999
aF8.1699999999999999
aI2933200
aa(lp579
F8.6799999999999997
aF8.8499999999999996
aF8.75
aF8.75
aF8.3200000000000003
aI2605300
aa(lp580
F8.7200000000000006
aF9.0399999999999991
aF8.8499999999999996
aF8.7799999999999994
aF8.3499999999999996
aI3382500
aa(lp581
F8.8100000000000005
aF9.1500000000000004
aF9.0600000000000005
aF8.9100000000000001
aF8.4700000000000006
aI4347600
aa(lp582
F8.8300000000000001
aF9.0899999999999999
aF8.8300000000000001
aF9.0800000000000001
aF8.6300000000000008
aI2999300
aa(lp583
F8.8000000000000007
aF9.2100000000000009
aF9.2100000000000009
aF8.9100000000000001
aF8.4700000000000006
aI4052700
aa(lp584
F9.0999999999999996
aF9.3300000000000001
aF9.1199999999999992
aF9.2100000000000009
aF8.7599999999999998
aI5194600
aa(lp585
F9.1199999999999992
aF9.1199999999999992
aF9.1199999999999992
aF9.1199999999999992
aF8.6699999999999999
aI0
aa(lp586
F9.1199999999999992
aF9.1199999999999992
aF9.1199999999999992
aF9.1199999999999992
aF8.6699999999999999
aI0
aa(lp587
F9.1199999999999992
aF9.1199999999999992
aF9.1199999999999992
aF9.1199999999999992
aF8.6699999999999999
aI0
aa(lp588
F9.1199999999999992
aF9.1199999999999992
aF9.1199999999999992
aF9.1199999999999992
aF8.6699999999999999
aI0
aa(lp589
F9.1199999999999992
aF9.1199999999999992
aF9.1199999999999992
aF9.1199999999999992
aF8.6699999999999999
aI0
aa(lp590
F8.7100000000000009
aF9.1899999999999995
aF8.75
aF9.1199999999999992
aF8.6699999999999999
aI5310900
aa(lp591
F8.6300000000000008
aF8.9100000000000001
aF8.8800000000000008
aF8.7599999999999998
aF8.3300000000000001
aI4198600
aa(lp592
F8.8000000000000007
aF8.9399999999999995
aF8.8200000000000003
aF8.9000000000000004
aF8.4600000000000009
aI2928200
aa(lp593
F8.6199999999999992
aF8.8900000000000006
aF8.8300000000000001
aF8.8499999999999996
aF8.4100000000000001
aI6583300
aa(lp594
F8.9100000000000001
aF9.3000000000000007
aF9.2599999999999998
aF8.9399999999999995
aF8.5
aI5660100
aa(lp595
F9.1600000000000001
aF9.3599999999999994
aF9.1999999999999993
aF9.2400000000000002
aF8.7899999999999991
aI5089300
aa(lp596
F9.0500000000000007
aF9.4399999999999995
aF9.3800000000000008
aF9.1999999999999993
aF8.75
aI4947300
aa(lp597
F9.2699999999999996
aF9.5299999999999994
aF9.5299999999999994
aF9.3800000000000008
aF8.9199999999999999
aI4633400
aa(lp598
F9.25
aF9.6500000000000004
aF9.2899999999999991
aF9.4800000000000004
aF9.0099999999999998
aI5971200
aa(lp599
F8.9100000000000001
aF9.2899999999999991
aF8.9199999999999999
aF9.2699999999999996
aF8.8100000000000005
aI5363000
aa(lp600
F8.9600000000000009
aF9.2599999999999998
aF9.25
aF8.9900000000000002
aF8.5500000000000007
aI6226900
aa(lp601
F9.0700000000000003
aF9.8699999999999992
aF9.5999999999999996
aF9.25
aF8.7899999999999991
aI10916100
aa(lp602
F9.4199999999999999
aF9.9100000000000001
aF9.7100000000000009
aF9.6500000000000004
aF9.1799999999999997
aI9307900
aa(lp603
F9.5500000000000007
aF9.9299999999999997
aF9.9299999999999997
aF9.7799999999999994
aF9.3000000000000007
aI14061600
aa(lp604
F9.3499999999999996
aF10.289999999999999
aF9.3800000000000008
aF10.02
aF9.5299999999999994
aI23792200
aa(lp605
F8.8100000000000005
aF9.7100000000000009
aF8.8100000000000005
aF9.5399999999999991
aF9.0700000000000003
aI24338200
aa(lp606
F8.8000000000000007
aF9.2100000000000009
aF9.2100000000000009
aF8.8300000000000001
aF8.4000000000000004
aI8011300
aa(lp607
F8.8100000000000005
aF9.2400000000000002
aF8.8699999999999992
aF9.1799999999999997
aF8.7300000000000004
aI14082500
aa(lp608
F8.6300000000000008
aF8.9800000000000004
aF8.7200000000000006
aF8.8499999999999996
aF8.4100000000000001
aI7686400
aa(lp609
F8.2799999999999994
aF8.75
aF8.4199999999999999
aF8.7100000000000009
aF8.2799999999999994
aI7478500
aa(lp610
F8.4100000000000001
aF8.8499999999999996
aF8.7300000000000004
aF8.4299999999999997
aF8.0199999999999996
aI9623200
aa(lp611
F8.6799999999999997
aF9.1799999999999997
aF9.1199999999999992
aF8.8200000000000003
aF8.3900000000000006
aI9953900
aa(lp612
F8.8699999999999992
aF9.2799999999999994
aF8.9399999999999995
aF9.0999999999999996
aF8.6500000000000004
aI12008600
aa(lp613
F8.8200000000000003
aF9.0899999999999999
aF8.8800000000000008
aF8.9399999999999995
aF8.5
aI9259900
aa(lp614
F8.6600000000000001
aF8.9600000000000009
aF8.8000000000000007
aF8.9199999999999999
aF8.4800000000000004
aI7766300
aa(lp615
F8.5999999999999996
aF8.9800000000000004
aF8.7699999999999996
aF8.8800000000000008
aF8.4399999999999995
aI11198100
aa(lp616
F8.6999999999999993
aF8.6999999999999993
aF8.6999999999999993
aF8.6999999999999993
aF8.2699999999999996
aI0
aa(lp617
F8.6999999999999993
aF8.6999999999999993
aF8.6999999999999993
aF8.6999999999999993
aF8.2699999999999996
aI0
aa(lp618
F8.6999999999999993
aF8.6999999999999993
aF8.6999999999999993
aF8.6999999999999993
aF8.2699999999999996
aI0
aa(lp619
F8.5099999999999998
aF8.8100000000000005
aF8.6899999999999995
aF8.6999999999999993
aF8.2699999999999996
aI6909800
aa(lp620
F8.4499999999999993
aF8.9499999999999993
aF8.6699999999999999
aF8.7100000000000009
aF8.2799999999999994
aI11958600
aa(lp621
F8.7200000000000006
aF9.1899999999999995
aF9.1600000000000001
aF8.75
aF8.3200000000000003
aI15702700
aa(lp622
F8.8100000000000005
aF9.3399999999999999
aF8.9800000000000004
aF9.2300000000000004
aF8.7799999999999994
aI25491400
aa(lp623
F8.0199999999999996
aF8.9000000000000004
aF8.0500000000000007
aF8.9000000000000004
aF8.4600000000000009
aI18647600
aa(lp624
F7.9199999999999999
aF8.25
aF8.0199999999999996
aF8.0899999999999999
aF7.6900000000000004
aI9057700
aa(lp625
F7.6600000000000001
aF8.4800000000000004
aF7.7800000000000002
aF8.1099999999999994
aF7.71
aI14693300
aa(lp626
F7.4299999999999997
aF8
aF7.4500000000000002
aF7.7800000000000002
aF7.4000000000000004
aI11674100
aa(lp627
F7.4199999999999999
aF7.6100000000000003
aF7.5099999999999998
aF7.5199999999999996
aF7.1500000000000004
aI5067000
aa(lp628
F7.4500000000000002
aF7.75
aF7.6799999999999997
aF7.5199999999999996
aF7.1500000000000004
aI7899800
aa(lp629
F7.4699999999999998
aF7.7400000000000002
aF7.5999999999999996
aF7.7000000000000002
aF7.3200000000000003
aI9850300
aa(lp630
F7.1100000000000003
aF7.7400000000000002
aF7.1200000000000001
aF7.6100000000000003
aF7.2400000000000002
aI11856600
aa(lp631
F7.0999999999999996
aF7.3899999999999997
aF7.3899999999999997
aF7.1299999999999999
aF6.7800000000000002
aI4897600
aa(lp632
F7.1200000000000001
aF7.46
aF7.1600000000000001
aF7.4199999999999999
aF7.0499999999999998
aI7054800
aa(lp633
F7.1600000000000001
aF7.3099999999999996
aF7.2999999999999998
aF7.1799999999999997
aF6.8300000000000001
aI6125800
aa(lp634
F7.0899999999999999
aF7.4699999999999998
aF7.1600000000000001
aF7.3600000000000003
aF7
aI9530300
aa(lp635
F6.75
aF7.21
aF6.8499999999999996
aF7.1799999999999997
aF6.8300000000000001
aI7881200
aa(lp636
F6.7599999999999998
aF6.9299999999999997
aF6.8200000000000003
aF6.8399999999999999
aF6.5
aI3422700
aa(lp637
F6.5
aF6.9900000000000002
aF6.5499999999999998
aF6.8499999999999996
aF6.5099999999999998
aI5995000
aa(lp638
F6.2800000000000002
aF6.5899999999999999
aF6.5
aF6.5700000000000003
aF6.25
aI4119800
aa(lp639
F6.5800000000000001
aF6.8499999999999996
aF6.71
aF6.6100000000000003
aF6.2800000000000002
aI3057400
aa(lp640
F6.5800000000000001
aF6.7599999999999998
aF6.6500000000000004
aF6.7199999999999998
aF6.3899999999999997
aI3032300
aa(lp641
F6.6299999999999999
aF6.9699999999999998
aF6.8099999999999996
aF6.6699999999999999
aF6.3399999999999999
aI4062700
aa(lp642
F6.7000000000000002
aF7.0899999999999999
aF6.7000000000000002
aF6.8899999999999997
aF6.5499999999999998
aI4506200
aa(lp643
F6.7999999999999998
aF7.3300000000000001
aF7.3200000000000003
aF6.8399999999999999
aF6.5
aI5943500
aa(lp644
F7.3200000000000003
aF7.6500000000000004
aF7.5800000000000001
aF7.3499999999999996
aF6.9900000000000002
aI5579400
aa(lp645
F7.3600000000000003
aF7.8499999999999996
aF7.4000000000000004
aF7.6600000000000001
aF7.2800000000000002
aI10260700
aa(lp646
F7.1900000000000004
aF7.7599999999999998
aF7.25
aF7.5
aF7.1299999999999999
aI9355100
aa(lp647
F7.0700000000000003
aF7.3200000000000003
aF7.0700000000000003
aF7.3099999999999996
aF6.9500000000000002
aI5151900
aa(lp648
F7.0700000000000003
aF7.2800000000000002
aF7.25
aF7.0700000000000003
aF6.7199999999999998
aI2740100
aa(lp649
F7.04
aF7.2800000000000002
aF7.1299999999999999
aF7.2400000000000002
aF6.8799999999999999
aI3154100
aa(lp650
F7.0099999999999998
aF7.2400000000000002
aF7.0499999999999998
aF7.1699999999999999
aF6.8200000000000003
aI4193500
aa(lp651
F6.9400000000000004
aF7.1699999999999999
aF7.1500000000000004
aF7.0199999999999996
aF6.6699999999999999
aI3263000
aa(lp652
F6.9500000000000002
aF7.2699999999999996
aF6.9900000000000002
aF7.2199999999999998
aF6.8600000000000003
aI4993000
aa(lp653
F6.9500000000000002
aF7.2199999999999998
aF7.1900000000000004
aF6.9699999999999998
aF6.6299999999999999
aI3251600
aa(lp654
F7.1500000000000004
aF7.2599999999999998
aF7.2000000000000002
aF7.2000000000000002
aF6.8499999999999996
aI2887500
aa(lp655
F7.1100000000000003
aF7.2599999999999998
aF7.2599999999999998
aF7.1399999999999997
aF6.79
aI3410700
aa(lp656
F7.21
aF7.5800000000000001
aF7.5700000000000003
aF7.2300000000000004
aF6.8700000000000001
aI6195100
aa(lp657
F7.5700000000000003
aF7.7000000000000002
aF7.6100000000000003
aF7.6299999999999999
aF7.25
aI2591200
aa(lp658
F7.5099999999999998
aF7.7999999999999998
aF7.6299999999999999
aF7.6500000000000004
aF7.2699999999999996
aI4450300
aa(lp659
F7.5599999999999996
aF7.7400000000000002
aF7.5700000000000003
aF7.6699999999999999
aF7.29
aI4755400
aa(lp660
F7.5
aF7.7599999999999998
aF7.6399999999999997
aF7.5999999999999996
aF7.2300000000000004
aI4448800
aa(lp661
F7.3799999999999999
aF7.6900000000000004
aF7.4199999999999999
aF7.6600000000000001
aF7.2800000000000002
aI5710000
aa(lp662
F7.25
aF7.4400000000000004
aF7.4000000000000004
aF7.4000000000000004
aF7.04
aI3762600
aa(lp663
F7.3899999999999997
aF7.54
aF7.4699999999999998
aF7.4199999999999999
aF7.0499999999999998
aI2112900
aa(lp664
F7.3600000000000003
aF7.5599999999999996
aF7.3600000000000003
aF7.4299999999999997
aF7.0599999999999996
aI2884500
aa(lp665
F7.3200000000000003
aF7.7599999999999998
aF7.6699999999999999
aF7.3600000000000003
aF7
aI5173100
aa(lp666
F7.7199999999999998
aF8
aF7.96
aF7.7300000000000004
aF7.3499999999999996
aI4103100
aa(lp667
F7.9299999999999997
aF8.1300000000000008
aF8.0299999999999994
aF7.9400000000000004
aF7.5499999999999998
aI4461300
aa(lp668
F8.0600000000000005
aF8.1899999999999995
aF8.1199999999999992
aF8.1099999999999994
aF7.71
aI3723000
aa(lp669
F8.0399999999999991
aF8.1699999999999999
aF8.0500000000000007
aF8.1199999999999992
aF7.7199999999999998
aI3018300
aa(lp670
F8.1099999999999994
aF8.3000000000000007
aF8.1999999999999993
aF8.1600000000000001
aF7.7599999999999998
aI6867000
aa(lp671
F8.0399999999999991
aF8.2899999999999991
aF8.0800000000000001
aF8.2300000000000004
aF7.8200000000000003
aI7854100
aa(lp672
F7.8300000000000001
aF8.2200000000000006
aF7.8899999999999997
aF8.0899999999999999
aF7.6900000000000004
aI8782100
aa(lp673
F7.7199999999999998
aF8.0999999999999996
aF7.7199999999999998
aF7.8899999999999997
aF7.5
aI5623300
aa(lp674
F7.6200000000000001
aF7.9199999999999999
aF7.8499999999999996
aF7.7199999999999998
aF7.3399999999999999
aI3675900
aa(lp675
F7.8300000000000001
aF8.0999999999999996
aF7.96
aF7.8600000000000003
aF7.4699999999999998
aI4360200
aa(lp676
F7.9400000000000004
aF8.2799999999999994
aF8.2200000000000006
aF7.96
aF7.5700000000000003
aI5683100
aa(lp677
F8.0500000000000007
aF8.2799999999999994
aF8.0999999999999996
aF8.2699999999999996
aF7.8600000000000003
aI6967300
aa(lp678
F7.8399999999999999
aF8.2599999999999998
aF7.8399999999999999
aF8.1500000000000004
aF7.75
aI8064600
aa(lp679
F7.8099999999999996
aF7.96
aF7.8700000000000001
aF7.8700000000000001
aF7.4800000000000004
aI3203200
aa(lp680
F7.8799999999999999
aF7.8799999999999999
aF7.8799999999999999
aF7.8799999999999999
aF7.4900000000000002
aI0
aa(lp681
F7.8799999999999999
aF7.8799999999999999
aF7.8799999999999999
aF7.8799999999999999
aF7.4900000000000002
aI0
aa(lp682
F7.8799999999999999
aF7.8799999999999999
aF7.8799999999999999
aF7.8799999999999999
aF7.4900000000000002
aI0
aa(lp683
F7.8799999999999999
aF7.8799999999999999
aF7.8799999999999999
aF7.8799999999999999
aF7.4900000000000002
aI0
aa(lp684
F7.8799999999999999
aF7.8799999999999999
aF7.8799999999999999
aF7.8799999999999999
aF7.4900000000000002
aI0
aa(lp685
F7.7300000000000004
aF7.9000000000000004
aF7.7800000000000002
aF7.8799999999999999
aF7.4900000000000002
aI4436600
aa(lp686
F7.5599999999999996
aF7.8700000000000001
aF7.5999999999999996
aF7.8300000000000001
aF7.4400000000000004
aI5927900
aa(lp687
F7.5199999999999996
aF8.1500000000000004
aF8.0299999999999994
aF7.6500000000000004
aF7.2699999999999996
aI5426500
aa(lp688
F8.0899999999999999
aF8.2699999999999996
aF8.2100000000000009
aF8.1199999999999992
aF7.7199999999999998
aI3100400
aa(lp689
F7.9800000000000004
aF8.3300000000000001
aF8.1199999999999992
aF8.2100000000000009
aF7.8099999999999996
aI4418700
aa(lp690
F8.1799999999999997
aF8.6300000000000008
aF8.5299999999999994
aF8.2300000000000004
aF7.8200000000000003
aI6217200
aa(lp691
F8.4199999999999999
aF8.9100000000000001
aF8.5199999999999996
aF8.6799999999999997
aF8.25
aI10548400
aa(lp692
F8.3800000000000008
aF8.5299999999999994
aF8.4499999999999993
aF8.5
aF8.0800000000000001
aI3694800
aa(lp693
F8.3300000000000001
aF8.5600000000000005
aF8.3300000000000001
aF8.4199999999999999
aF8.0099999999999998
aI5007500
aa(lp694
F8.4100000000000001
aF9.0500000000000007
aF9.0500000000000007
aF8.4199999999999999
aF8.0099999999999998
aI8728600
aa(lp695
F8.6999999999999993
aF9.25
aF9.1799999999999997
aF9.0299999999999994
aF8.5899999999999999
aI11939100
aa(lp696
F9.0500000000000007
aF9.6300000000000008
aF9.4800000000000004
aF9.0800000000000001
aF8.6300000000000008
aI13292400
aa(lp697
F9.1699999999999999
aF9.8599999999999994
aF9.2699999999999996
aF9.5700000000000003
aF9.0999999999999996
aI21439300
aa(lp698
F8.9600000000000009
aF9.3300000000000001
aF9.2599999999999998
aF9.2799999999999994
aF8.8200000000000003
aI12686300
aa(lp699
F9.2599999999999998
aF9.4900000000000002
aF9.2799999999999994
aF9.3399999999999999
aF8.8800000000000008
aI14752200
aa(lp700
F9.1999999999999993
aF9.6199999999999992
aF9.3200000000000003
aF9.3699999999999992
aF8.9100000000000001
aI22820200
aa(lp701
F8.8900000000000006
aF9.6799999999999997
aF9.0299999999999994
aF9.3699999999999992
aF8.9100000000000001
aI21424500
aa(lp702
F8.7100000000000009
aF9.5399999999999991
aF8.8800000000000008
aF9.2200000000000006
aF8.7699999999999996
aI28245700
aa(lp703
F8.0500000000000007
aF9.1199999999999992
aF8.3000000000000007
aF9.0899999999999999
aF8.6400000000000006
aI23715000
aa(lp704
F8.1199999999999992
aF8.3699999999999992
aF8.1500000000000004
aF8.2899999999999991
aF7.8799999999999999
aI7896500
aa(lp705
F7.9800000000000004
aF8.3800000000000008
aF8.1500000000000004
aF8.2300000000000004
aF7.8200000000000003
aI9159000
aa(lp706
F7.9100000000000001
aF8.6500000000000004
aF8.5199999999999996
aF8.1199999999999992
aF7.7199999999999998
aI10500300
aa(lp707
F8.4499999999999993
aF8.7799999999999994
aF8.6300000000000008
aF8.5299999999999994
aF8.1099999999999994
aI8672900
aa(lp708
F8.4800000000000004
aF8.8499999999999996
aF8.5999999999999996
aF8.7200000000000006
aF8.2899999999999991
aI10232800
aa(lp709
F8.5199999999999996
aF9.1699999999999999
aF9.0500000000000007
aF8.5500000000000007
aF8.1300000000000008
aI12963700
aa.