(lp1
(lp2
F26.219999999999999
aF28.399999999999999
aF27.66
aF26.34
aF26.34
aI29085800
aa(lp3
F24.030000000000001
aF26.66
aF24.199999999999999
aF26.66
aF26.66
aI21986800
aa(lp4
F23.609999999999999
aF24.579999999999998
aF24
aF24.239999999999998
aF24.239999999999998
aI9924400
aa(lp5
F23.5
aF25.140000000000001
aF23.91
aF24.57
aF24.57
aI14992600
aa(lp6
F21.609999999999999
aF23.469999999999999
aF21.850000000000001
aF23.309999999999999
aF23.309999999999999
aI9667100
aa(lp7
F21.109999999999999
aF21.550000000000001
aF21.23
aF21.5
aF21.5
aI4969000
aa(lp8
F20.699999999999999
aF22.309999999999999
aF22.309999999999999
aF20.91
aF20.91
aI6768900
aa(lp9
F22.399999999999999
aF23.32
aF23.199999999999999
aF22.41
aF22.41
aI7335600
aa(lp10
F22.98
aF23.98
aF23.98
aF23.02
aF23.02
aI7177900
aa(lp11
F22.800000000000001
aF24.25
aF22.859999999999999
aF24.02
aF24.02
aI10965100
aa(lp12
F23.059999999999999
aF23.059999999999999
aF23.059999999999999
aF23.059999999999999
aF23.059999999999999
aI0
aa(lp13
F23.030000000000001
aF23.98
aF23.850000000000001
aF23.059999999999999
aF23.059999999999999
aI7675800
aa(lp14
F22.989999999999998
aF24.219999999999999
aF23
aF23.870000000000001
aF23.870000000000001
aI10048800
aa(lp15
F22.809999999999999
aF23.949999999999999
aF23.359999999999999
aF22.949999999999999
aF22.949999999999999
aI10027400
aa(lp16
F23.379999999999999
aF24.52
aF23.98
aF23.510000000000002
aF23.510000000000002
aI10045300
aa(lp17
F24
aF24.890000000000001
aF24.5
aF24.050000000000001
aF24.050000000000001
aI12268200
aa(lp18
F24.030000000000001
aF25.960000000000001
aF24.579999999999998
aF25.210000000000001
aF25.210000000000001
aI18209400
aa(lp19
F24.859999999999999
aF26.16
aF25.98
aF24.98
aF24.98
aI18449600
aa(lp20
F24.07
aF25.449999999999999
aF24.800000000000001
aF25.379999999999999
aF25.379999999999999
aI18372200
aa(lp21
F23.5
aF26.199999999999999
aF23.879999999999999
aF25.239999999999998
aF25.239999999999998
aI32189300
aa(lp22
F22.399999999999999
aF24.600000000000001
aF22.800000000000001
aF23.91
aF23.91
aI26954000
aa(lp23
F21.199999999999999
aF22.649999999999999
aF22
aF22.399999999999999
aF22.399999999999999
aI15954000
aa(lp24
F20.82
aF23.300000000000001
aF20.899999999999999
aF22.66
aF22.66
aI26278900
aa(lp25
F21.079999999999998
aF21.68
aF21.449999999999999
aF21.18
aF21.18
aI11283600
aa(lp26
F21.050000000000001
aF21.870000000000001
aF21.350000000000001
aF21.699999999999999
aF21.699999999999999
aI13583500
aa(lp27
F20.57
aF21.48
aF20.760000000000002
aF21.27
aF21.27
aI9753100
aa(lp28
F20.199999999999999
aF21.489999999999998
aF21.399999999999999
aF20.91
aF20.91
aI12756500
aa(lp29
F21.210000000000001
aF22.280000000000001
aF22.100000000000001
aF21.57
aF21.57
aI16220600
aa(lp30
F21.07
aF22.379999999999999
aF21.32
aF22.309999999999999
aF22.309999999999999
aI23111900
aa(lp31
F21.280000000000001
aF21.280000000000001
aF21.280000000000001
aF21.280000000000001
aF21.280000000000001
aI0
aa(lp32
F20.5
aF21.300000000000001
aF20.609999999999999
aF21.280000000000001
aF21.280000000000001
aI16772400
aa(lp33
F20.350000000000001
aF20.989999999999998
aF20.760000000000002
aF20.699999999999999
aF20.699999999999999
aI11049700
aa(lp34
F20.050000000000001
aF20.329999999999998
aF20.050000000000001
aF20.309999999999999
aF20.309999999999999
aI6670600
aa(lp35
F20.079999999999998
aF20.390000000000001
aF20.190000000000001
aF20.18
aF20.18
aI6441000
aa(lp36
F20.100000000000001
aF20.399999999999999
aF20.32
aF20.129999999999999
aF20.129999999999999
aI8936200
aa(lp37
F20.5
aF21.100000000000001
aF20.899999999999999
aF20.52
aF20.52
aI11426400
aa(lp38
F20.109999999999999
aF21.489999999999998
aF20.18
aF20.809999999999999
aF20.809999999999999
aI16904000
aa(lp39
F19.960000000000001
aF20.649999999999999
aF20.02
aF20.43
aF20.43
aI9828500
aa(lp40
F19.800000000000001
aF20.66
aF20.48
aF20.170000000000002
aF20.170000000000002
aI12577000
aa(lp41
F20.379999999999999
aF20.829999999999998
aF20.579999999999998
aF20.52
aF20.52
aI12769100
aa(lp42
F20.199999999999999
aF20.699999999999999
aF20.699999999999999
aF20.440000000000001
aF20.440000000000001
aI12686000
aa(lp43
F19.699999999999999
aF21.149999999999999
aF19.859999999999999
aF20.809999999999999
aF20.809999999999999
aI21210100
aa(lp44
F19.510000000000002
aF19.949999999999999
aF19.550000000000001
aF19.850000000000001
aF19.850000000000001
aI11076300
aa(lp45
F19.300000000000001
aF20
aF19.510000000000002
aF19.710000000000001
aF19.710000000000001
aI14298000
aa(lp46
F18.850000000000001
aF19.550000000000001
aF19
aF19.510000000000002
aF19.510000000000002
aI13115300
aa(lp47
F18.420000000000002
aF19.210000000000001
aF18.440000000000001
aF18.899999999999999
aF18.899999999999999
aI9469200
aa(lp48
F18.210000000000001
aF19.030000000000001
aF18.940000000000001
aF18.309999999999999
aF18.309999999999999
aI11151500
aa(lp49
F18.899999999999999
aF19.300000000000001
aF19.25
aF18.969999999999999
aF18.969999999999999
aI8569300
aa(lp50
F18.91
aF19.57
aF19.050000000000001
aF19.379999999999999
aF19.379999999999999
aI8895600
aa(lp51
F18.809999999999999
aF19.43
aF19.300000000000001
aF19.149999999999999
aF19.149999999999999
aI14191500
aa(lp52
F20
aF20.809999999999999
aF20.73
aF20.030000000000001
aF20.030000000000001
aI17414700
aa(lp53
F20.18
aF21.300000000000001
aF20.559999999999999
aF21.039999999999999
aF21.039999999999999
aI22476900
aa(lp54
F20.109999999999999
aF20.620000000000001
aF20.550000000000001
aF20.5
aF20.5
aI20696300
aa(lp55
F21
aF22.199999999999999
aF22.199999999999999
aF21.07
aF21.07
aI29700500
aa(lp56
F21.5
aF23
aF23
aF22.23
aF22.23
aI36106300
aa(lp57
F20.379999999999999
aF22.850000000000001
aF20.780000000000001
aF22.850000000000001
aF22.850000000000001
aI38728300
aa(lp58
F19.899999999999999
aF21
aF20.210000000000001
aF20.77
aF20.77
aI36407900
aa(lp59
F21.379999999999999
aF24.5
aF24.030000000000001
aF21.379999999999999
aF21.379999999999999
aI34660700
aa(lp60
F23.760000000000002
aF23.760000000000002
aF23.760000000000002
aF23.760000000000002
aF23.760000000000002
aI0
aa(lp61
F23.760000000000002
aF23.760000000000002
aF23.760000000000002
aF23.760000000000002
aF23.760000000000002
aI0
aa(lp62
F23.760000000000002
aF23.760000000000002
aF23.760000000000002
aF23.760000000000002
aF23.760000000000002
aI0
aa(lp63
F23.760000000000002
aF23.760000000000002
aF23.760000000000002
aF23.760000000000002
aF23.760000000000002
aI0
aa(lp64
F23.760000000000002
aF23.760000000000002
aF23.760000000000002
aF23.760000000000002
aF23.760000000000002
aI0
aa(lp65
F22.579999999999998
aF23.760000000000002
aF23.760000000000002
aF23.760000000000002
aF23.760000000000002
aI30973100
aa(lp66
F21.600000000000001
aF21.600000000000001
aF21.600000000000001
aF21.600000000000001
aF21.600000000000001
aI1478000
aa(lp67
F19.640000000000001
aF19.640000000000001
aF19.640000000000001
aF19.640000000000001
aF19.640000000000001
aI996700
aa(lp68
F17.850000000000001
aF17.850000000000001
aF17.850000000000001
aF17.850000000000001
aF17.850000000000001
aI949900
aa(lp69
F16.23
aF16.23
aF16.23
aF16.23
aF16.23
aI1225400
aa(lp70
F14.75
aF14.75
aF14.75
aF14.75
aF14.75
aI2466900
aa(lp71
F13.41
aF13.41
aF13.41
aF13.41
aF13.41
aI2302700
aa(lp72
F12.19
aF12.19
aF12.19
aF12.19
aF12.19
aI700400
aa(lp73
F11.08
aF11.08
aF11.08
aF11.08
aF11.08
aI54700
aa(lp74
F10.07
aF10.07
aF10.07
aF10.07
aF10.07
aI35500
aa(lp75
F9.1500000000000004
aF9.1500000000000004
aF9.1500000000000004
aF9.1500000000000004
aF9.1500000000000004
aI31400
aa(lp76
F8.3200000000000003
aF8.3200000000000003
aF8.3200000000000003
aF8.3200000000000003
aF8.3200000000000003
aI33100
aa(lp77
F7.5599999999999996
aF7.5599999999999996
aF7.5599999999999996
aF7.5599999999999996
aF7.5599999999999996
aI29600
aa(lp78
F5.7199999999999998
aF6.8700000000000001
aF5.7199999999999998
aF6.8700000000000001
aF6.8700000000000001
aI64900
aa.