(lp1
(lp2
F30.850000000000001
aF33.850000000000001
aF33.090000000000003
aF31.949999999999999
aF31.949999999999999
aI15154100
aa(lp3
F30.48
aF34.090000000000003
aF31.100000000000001
aF34.049999999999997
aF34.049999999999997
aI20198500
aa(lp4
F28
aF31
aF29.030000000000001
aF30.989999999999998
aF30.989999999999998
aI15042300
aa(lp5
F28.579999999999998
aF30.300000000000001
aF28.579999999999998
aF29.600000000000001
aF29.600000000000001
aI13441100
aa(lp6
F25.600000000000001
aF28.140000000000001
aF25.620000000000001
aF28.140000000000001
aF28.140000000000001
aI9633700
aa(lp7
F24.5
aF25.800000000000001
aF24.890000000000001
aF25.579999999999998
aF25.579999999999998
aI5913600
aa(lp8
F24.25
aF26.059999999999999
aF26
aF24.469999999999999
aF24.469999999999999
aI5718700
aa(lp9
F26.25
aF27.289999999999999
aF26.59
aF26.359999999999999
aF26.359999999999999
aI4921500
aa(lp10
F26.5
aF27.690000000000001
aF27.469999999999999
aF26.510000000000002
aF26.510000000000002
aI5539100
aa(lp11
F27.199999999999999
aF28.25
aF28.030000000000001
aF27.399999999999999
aF27.399999999999999
aI5047300
aa(lp12
F28
aF28
aF28
aF28
aF28
aI0
aa(lp13
F27.989999999999998
aF28.75
aF28.48
aF28
aF28
aI6049800
aa(lp14
F26.800000000000001
aF28.559999999999999
aF27.449999999999999
aF28.359999999999999
aF28.359999999999999
aI7366200
aa(lp15
F27.370000000000001
aF29.879999999999999
aF29.850000000000001
aF27.73
aF27.73
aI13163200
aa(lp16
F29.5
aF30.870000000000001
aF30.260000000000002
aF30.350000000000001
aF30.350000000000001
aI15057000
aa(lp17
F28.07
aF30.469999999999999
aF28.399999999999999
aF29.52
aF29.52
aI14034200
aa(lp18
F29
aF29.760000000000002
aF29.300000000000001
aF29.120000000000001
aF29.120000000000001
aI12009900
aa(lp19
F28.550000000000001
aF30.050000000000001
aF28.550000000000001
aF29.969999999999999
aF29.969999999999999
aI18713900
aa(lp20
F29.949999999999999
aF36.600000000000001
aF35
aF30.25
aF30.25
aI31222200
aa(lp21
F31.52
aF33.280000000000001
aF33.280000000000001
aF33.280000000000001
aF33.280000000000001
aI11918700
aa(lp22
F28.870000000000001
aF30.25
aF29.010000000000002
aF30.25
aF30.25
aI5301100
aa(lp23
F23.52
aF27.5
aF24.5
aF27.5
aF27.5
aI28858300
aa(lp24
F25
aF25
aF25
aF25
aF25
aI11075100
aa(lp25
F22.73
aF22.73
aF22.73
aF22.73
aF22.73
aI1255000
aa(lp26
F20.66
aF20.66
aF20.66
aF20.66
aF20.66
aI790200
aa(lp27
F18.780000000000001
aF18.780000000000001
aF18.780000000000001
aF18.780000000000001
aF18.780000000000001
aI401800
aa(lp28
F17.07
aF17.07
aF17.07
aF17.07
aF17.07
aI358200
aa(lp29
F15.52
aF15.52
aF15.52
aF15.52
aF15.52
aI247800
aa(lp30
F14.109999999999999
aF14.109999999999999
aF14.109999999999999
aF14.109999999999999
aF14.109999999999999
aI106500
aa(lp31
F12.83
aF12.83
aF12.83
aF12.83
aF12.83
aI0
aa(lp32
F12.83
aF12.83
aF12.83
aF12.83
aF12.83
aI118900
aa(lp33
F11.66
aF11.66
aF11.66
aF11.66
aF11.66
aI63300
aa(lp34
F10.6
aF10.6
aF10.6
aF10.6
aF10.6
aI42500
aa(lp35
F9.6400000000000006
aF9.6400000000000006
aF9.6400000000000006
aF9.6400000000000006
aF9.6400000000000006
aI16100
aa(lp36
F8.7599999999999998
aF8.7599999999999998
aF8.7599999999999998
aF8.7599999999999998
aF8.7599999999999998
aI19000
aa(lp37
F7.96
aF7.96
aF7.96
aF7.96
aF7.96
aI13500
aa(lp38
F7.2400000000000002
aF7.2400000000000002
aF7.2400000000000002
aF7.2400000000000002
aF7.2400000000000002
aI30500
aa.