(lp1
(lp2
F86.5
aF93.879999999999995
aF88.010000000000005
aF91.859999999999999
aF91.859999999999999
aI2030200
aa(lp3
F88.069999999999993
aF92
aF92
aF90.150000000000006
aF90.150000000000006
aI1664200
aa(lp4
F89.010000000000005
aF97.5
aF90.109999999999999
aF91.030000000000001
aF91.030000000000001
aI3241100
aa(lp5
F89.400000000000006
aF97.099999999999994
aF89.420000000000002
aF93.810000000000002
aF93.810000000000002
aI4266000
aa(lp6
F81.200000000000003
aF88.709999999999994
aF83.299999999999997
aF88.680000000000007
aF88.680000000000007
aI8832700
aa(lp7
F74.5
aF81.599999999999994
aF74.5
aF81
aF81
aI3482000
aa(lp8
F72.099999999999994
aF75.010000000000005
aF73
aF74.189999999999998
aF74.189999999999998
aI1526300
aa(lp9
F73.230000000000004
aF76.650000000000006
aF73.980000000000004
aF74.489999999999995
aF74.489999999999995
aI1190400
aa(lp10
F72.010000000000005
aF76.680000000000007
aF76.680000000000007
aF73.859999999999999
aF73.859999999999999
aI1126400
aa(lp11
F74.769999999999996
aF78
aF77.010000000000005
aF76.269999999999996
aF76.269999999999996
aI1124400
aa(lp12
F78.030000000000001
aF78.030000000000001
aF78.030000000000001
aF78.030000000000001
aF78.030000000000001
aI0
aa(lp13
F72.719999999999999
aF79.650000000000006
aF73
aF78.030000000000001
aF78.030000000000001
aI3531600
aa(lp14
F70.700000000000003
aF74.099999999999994
aF72.269999999999996
aF72.810000000000002
aF72.810000000000002
aI1510400
aa(lp15
F72
aF77.840000000000003
aF74.489999999999995
aF72.390000000000001
aF72.390000000000001
aI1216300
aa(lp16
F72.5
aF75
aF73.680000000000007
aF74.489999999999995
aF74.489999999999995
aI2985800
aa(lp17
F72.090000000000003
aF75.340000000000003
aF74.530000000000001
aF72.939999999999998
aF72.939999999999998
aI1892400
aa(lp18
F75
aF78.890000000000001
aF78.040000000000006
aF76.090000000000003
aF76.090000000000003
aI1792100
aa(lp19
F76.849999999999994
aF78.879999999999995
aF77.420000000000002
aF78.480000000000004
aF78.480000000000004
aI1379100
aa(lp20
F73.5
aF78.590000000000003
aF75.989999999999995
aF78.239999999999995
aF78.239999999999995
aI1189800
aa(lp21
F74.109999999999999
aF78.969999999999999
aF75.900000000000006
aF75.540000000000006
aF75.540000000000006
aI1212800
aa(lp22
F75.799999999999997
aF80.659999999999997
aF79.769999999999996
aF77.150000000000006
aF77.150000000000006
aI1499800
aa(lp23
F75.549999999999997
aF81.569999999999993
aF79
aF78.819999999999993
aF78.819999999999993
aI1128600
aa(lp24
F79.650000000000006
aF84.810000000000002
aF84.810000000000002
aF79.959999999999994
aF79.959999999999994
aI683000
aa(lp25
F83.5
aF88.700000000000003
aF86.299999999999997
aF85.180000000000007
aF85.180000000000007
aI1032800
aa(lp26
F78.299999999999997
aF87.730000000000004
aF79.739999999999995
aF87.010000000000005
aF87.010000000000005
aI2262200
aa(lp27
F74.5
aF81.959999999999994
aF75.030000000000001
aF79.75
aF79.75
aI1836300
aa(lp28
F72.049999999999997
aF77.5
aF77
aF76
aF76
aI1273200
aa(lp29
F74.069999999999993
aF78.980000000000004
aF78.920000000000002
aF77.980000000000004
aF77.980000000000004
aI1753400
aa(lp30
F71.280000000000001
aF78.909999999999997
aF71.280000000000001
aF78.909999999999997
aF78.909999999999997
aI2404400
aa(lp31
F71.739999999999995
aF71.739999999999995
aF71.739999999999995
aF71.739999999999995
aF71.739999999999995
aI0
aa(lp32
F70.200000000000003
aF74.200000000000003
aF71.989999999999995
aF71.739999999999995
aF71.739999999999995
aI1373200
aa(lp33
F67.099999999999994
aF72.969999999999999
aF67.700000000000003
aF72
aF72
aI2770400
aa(lp34
F65.719999999999999
aF68.599999999999994
aF66.900000000000006
aF67.790000000000006
aF67.790000000000006
aI1252200
aa(lp35
F66.060000000000002
aF68.5
aF66.540000000000006
aF67.299999999999997
aF67.299999999999997
aI1764400
aa(lp36
F65.730000000000004
aF69.5
aF68.299999999999997
aF66.060000000000002
aF66.060000000000002
aI1874200
aa(lp37
F66.599999999999994
aF69.400000000000006
aF67.629999999999995
aF69
aF69
aI1384300
aa(lp38
F66
aF68.569999999999993
aF68
aF67.700000000000003
aF67.700000000000003
aI1939600
aa(lp39
F67.519999999999996
aF71
aF70.109999999999999
aF69.439999999999998
aF69.439999999999998
aI2568400
aa(lp40
F67.099999999999994
aF73.799999999999997
aF67.099999999999994
aF70.810000000000002
aF70.810000000000002
aI3976600
aa(lp41
F63.020000000000003
aF68.049999999999997
aF63.020000000000003
aF68.049999999999997
aF68.049999999999997
aI4046600
aa(lp42
F59.549999999999997
aF61.979999999999997
aF60.25
aF61.859999999999999
aF61.859999999999999
aI2725500
aa(lp43
F58.509999999999998
aF60.649999999999999
aF60
aF60.590000000000003
aF60.590000000000003
aI3533300
aa(lp44
F59.200000000000003
aF62.450000000000003
aF62
aF60.140000000000001
aF60.140000000000001
aI4896500
aa(lp45
F61.009999999999998
aF63.049999999999997
aF61.689999999999998
aF62.460000000000001
aF62.460000000000001
aI2084800
aa(lp46
F61.640000000000001
aF63.899999999999999
aF62.93
aF62
aF62
aI3485900
aa(lp47
F58.200000000000003
aF63.990000000000002
aF59.009999999999998
aF62.939999999999998
aF62.939999999999998
aI3714200
aa(lp48
F57.579999999999998
aF62.549999999999997
aF59.719999999999999
aF60.399999999999999
aF60.399999999999999
aI4600700
aa(lp49
F55.700000000000003
aF60.100000000000001
aF55.710000000000001
aF57.509999999999998
aF57.509999999999998
aI6895300
aa(lp50
F51.700000000000003
aF56.579999999999998
aF51.700000000000003
aF56.579999999999998
aF56.579999999999998
aI10128300
aa(lp51
F50.200000000000003
aF51.82
aF51.020000000000003
aF51.439999999999998
aF51.439999999999998
aI5361100
aa(lp52
F51.420000000000002
aF56.5
aF55
aF52.109999999999999
aF52.109999999999999
aI8801900
aa(lp53
F51.530000000000001
aF54.920000000000002
aF53.299999999999997
aF54.920000000000002
aF54.920000000000002
aI9297000
aa(lp54
F48.210000000000001
aF49.93
aF49.93
aF49.93
aF49.93
aI15210700
aa(lp55
F45.390000000000001
aF45.390000000000001
aF45.390000000000001
aF45.390000000000001
aF45.390000000000001
aI607800
aa(lp56
F41.259999999999998
aF41.259999999999998
aF41.259999999999998
aF41.259999999999998
aF41.259999999999998
aI95800
aa(lp57
F37.509999999999998
aF37.509999999999998
aF37.509999999999998
aF37.509999999999998
aF37.509999999999998
aI22500
aa(lp58
F34.100000000000001
aF34.100000000000001
aF34.100000000000001
aF34.100000000000001
aF34.100000000000001
aI5000
aa(lp59
F31
aF31
aF31
aF31
aF31
aI12600
aa(lp60
F28.18
aF28.18
aF28.18
aF28.18
aF28.18
aI0
aa(lp61
F28.18
aF28.18
aF28.18
aF28.18
aF28.18
aI0
aa(lp62
F28.18
aF28.18
aF28.18
aF28.18
aF28.18
aI0
aa(lp63
F28.18
aF28.18
aF28.18
aF28.18
aF28.18
aI0
aa(lp64
F28.18
aF28.18
aF28.18
aF28.18
aF28.18
aI0
aa(lp65
F23.48
aF28.18
aF23.48
aF28.18
aF28.18
aI19100
aa.