(lp1
(lp2
F54.020000000000003
aF58.399999999999999
aF56.310000000000002
aF55.340000000000003
aF55.340000000000003
aI2521300
aa(lp3
F52.799999999999997
aF56.990000000000002
aF53.460000000000001
aF56.850000000000001
aF56.850000000000001
aI2860800
aa(lp4
F50.700000000000003
aF56
aF51.299999999999997
aF53.200000000000003
aF53.200000000000003
aI2789400
aa(lp5
F50.200000000000003
aF52.280000000000001
aF51.780000000000001
aF51.369999999999997
aF51.369999999999997
aI1931700
aa(lp6
F49.329999999999998
aF51.789999999999999
aF49.520000000000003
aF51.640000000000001
aF51.640000000000001
aI2127200
aa(lp7
F47.799999999999997
aF49.549999999999997
aF48.5
aF49.5
aF49.5
aI1381900
aa(lp8
F46.409999999999997
aF47.890000000000001
aF46.789999999999999
aF47
aF47
aI704900
aa(lp9
F46.350000000000001
aF48.840000000000003
aF47.579999999999998
aF46.689999999999998
aF46.689999999999998
aI954800
aa(lp10
F47.090000000000003
aF50.350000000000001
aF49.350000000000001
aF47.579999999999998
aF47.579999999999998
aI977800
aa(lp11
F49
aF50.689999999999998
aF50
aF49.350000000000001
aF49.350000000000001
aI926600
aa(lp12
F49.869999999999997
aF49.869999999999997
aF49.869999999999997
aF49.869999999999997
aF49.869999999999997
aI0
aa(lp13
F49.659999999999997
aF51.350000000000001
aF50.5
aF49.869999999999997
aF49.869999999999997
aI1408300
aa(lp14
F47.5
aF51.100000000000001
aF47.5
aF50.259999999999998
aF50.259999999999998
aI1824700
aa(lp15
F47
aF49.880000000000003
aF49.719999999999999
aF47.840000000000003
aF47.840000000000003
aI1284500
aa(lp16
F49.299999999999997
aF51.770000000000003
aF49.299999999999997
aF49.659999999999997
aF49.659999999999997
aI1421000
aa(lp17
F48.390000000000001
aF49.990000000000002
aF49.990000000000002
aF49.299999999999997
aF49.299999999999997
aI1598400
aa(lp18
F50.5
aF52.479999999999997
aF52.479999999999997
aF50.75
aF50.75
aI1903700
aa(lp19
F48.030000000000001
aF52.189999999999998
aF48.539999999999999
aF52
aF52
aI2510800
aa(lp20
F46.210000000000001
aF48.350000000000001
aF46.299999999999997
aF48.299999999999997
aF48.299999999999997
aI1567300
aa(lp21
F46.369999999999997
aF49.950000000000003
aF49.829999999999998
aF46.409999999999997
aF46.409999999999997
aI2413500
aa(lp22
F49.5
aF51.109999999999999
aF50.240000000000002
aF49.829999999999998
aF49.829999999999998
aI1742800
aa(lp23
F47.009999999999998
aF50.960000000000001
aF48.030000000000001
aF50.25
aF50.25
aI2647300
aa(lp24
F48.299999999999997
aF51.329999999999998
aF50.200000000000003
aF48.700000000000003
aF48.700000000000003
aI2678700
aa(lp25
F51.399999999999999
aF54.200000000000003
aF53.979999999999997
aF51.850000000000001
aF51.850000000000001
aI4447600
aa(lp26
F51.299999999999997
aF56.979999999999997
aF53
aF55.479999999999997
aF55.479999999999997
aI7783700
aa(lp27
F50.280000000000001
aF54.299999999999997
aF52.5
aF52.859999999999999
aF52.859999999999999
aI4858600
aa(lp28
F47.509999999999998
aF53.170000000000002
aF47.93
aF53.119999999999997
aF53.119999999999997
aI7578500
aa(lp29
F44.200000000000003
aF48.68
aF44.640000000000001
aF48.340000000000003
aF48.340000000000003
aI5987800
aa(lp30
F42.350000000000001
aF45.399999999999999
aF42.780000000000001
aF44.68
aF44.68
aI4345600
aa(lp31
F42.539999999999999
aF42.539999999999999
aF42.539999999999999
aF42.539999999999999
aF42.539999999999999
aI0
aa(lp32
F41.200000000000003
aF42.57
aF41.520000000000003
aF42.539999999999999
aF42.539999999999999
aI2598300
aa(lp33
F41.009999999999998
aF41.990000000000002
aF41.990000000000002
aF41.5
aF41.5
aI1821500
aa(lp34
F40.369999999999997
aF41.310000000000002
aF40.799999999999997
aF41.299999999999997
aF41.299999999999997
aI1995000
aa(lp35
F39.799999999999997
aF41.5
aF41.399999999999999
aF41.119999999999997
aF41.119999999999997
aI3550000
aa(lp36
F42.759999999999998
aF44.43
aF43.630000000000003
aF43.020000000000003
aF43.020000000000003
aI1900700
aa(lp37
F42.450000000000003
aF43.799999999999997
aF42.450000000000003
aF43.560000000000002
aF43.560000000000002
aI2230500
aa(lp38
F42
aF43.240000000000002
aF42.979999999999997
aF42.149999999999999
aF42.149999999999999
aI1634100
aa(lp39
F41
aF43.43
aF41.289999999999999
aF43.079999999999998
aF43.079999999999998
aI2497500
aa(lp40
F40.380000000000003
aF42.43
aF42.420000000000002
aF41.460000000000001
aF41.460000000000001
aI2003400
aa(lp41
F41.600000000000001
aF42.579999999999998
aF42.5
aF42.299999999999997
aF42.299999999999997
aI2167800
aa(lp42
F40.770000000000003
aF44.189999999999998
aF40.770000000000003
aF42.25
aF42.25
aI3205100
aa(lp43
F39.770000000000003
aF40.789999999999999
aF40.280000000000001
aF40.759999999999998
aF40.759999999999998
aI2005900
aa(lp44
F39.32
aF40.280000000000001
aF39.32
aF40.200000000000003
aF40.200000000000003
aI1757400
aa(lp45
F38.530000000000001
aF40.090000000000003
aF38.770000000000003
aF39.939999999999998
aF39.939999999999998
aI2190200
aa(lp46
F37.850000000000001
aF38.770000000000003
aF37.990000000000002
aF38.759999999999998
aF38.759999999999998
aI1305000
aa(lp47
F37.159999999999997
aF37.850000000000001
aF37.170000000000002
aF37.609999999999999
aF37.609999999999999
aI709700
aa(lp48
F37.009999999999998
aF37.700000000000003
aF37.5
aF37.100000000000001
aF37.100000000000001
aI741200
aa(lp49
F37.509999999999998
aF38.700000000000003
aF38.380000000000003
aF37.670000000000002
aF37.670000000000002
aI844100
aa(lp50
F37.689999999999998
aF39.18
aF37.899999999999999
aF38.43
aF38.43
aI1055700
aa(lp51
F37.509999999999998
aF38.479999999999997
aF38.479999999999997
aF37.920000000000002
aF37.920000000000002
aI753400
aa(lp52
F38.159999999999997
aF39.329999999999998
aF39.299999999999997
aF38.520000000000003
aF38.520000000000003
aI1345700
aa(lp53
F37.109999999999999
aF39.990000000000002
aF37.219999999999999
aF39.299999999999997
aF39.299999999999997
aI2789800
aa(lp54
F36.719999999999999
aF37.270000000000003
aF36.799999999999997
aF37.140000000000001
aF37.140000000000001
aI632200
aa(lp55
F36.850000000000001
aF37.5
aF37.5
aF36.859999999999999
aF36.859999999999999
aI859900
aa(lp56
F37.189999999999998
aF37.950000000000003
aF37.950000000000003
aF37.659999999999997
aF37.659999999999997
aI772400
aa(lp57
F36.880000000000003
aF37.600000000000001
aF36.899999999999999
aF37.5
aF37.5
aI743700
aa(lp58
F36.399999999999999
aF36.93
aF36.43
aF36.880000000000003
aF36.880000000000003
aI323200
aa(lp59
F36.5
aF37.090000000000003
aF37
aF36.539999999999999
aF36.539999999999999
aI359500
aa(lp60
F36.960000000000001
aF36.960000000000001
aF36.960000000000001
aF36.960000000000001
aF36.960000000000001
aI0
aa(lp61
F36.960000000000001
aF36.960000000000001
aF36.960000000000001
aF36.960000000000001
aF36.960000000000001
aI0
aa(lp62
F36.960000000000001
aF36.960000000000001
aF36.960000000000001
aF36.960000000000001
aF36.960000000000001
aI0
aa(lp63
F36.960000000000001
aF36.960000000000001
aF36.960000000000001
aF36.960000000000001
aF36.960000000000001
aI0
aa(lp64
F36.960000000000001
aF36.960000000000001
aF36.960000000000001
aF36.960000000000001
aF36.960000000000001
aI0
aa(lp65
F36.700000000000003
aF37.210000000000001
aF36.960000000000001
aF36.960000000000001
aF36.960000000000001
aI486100
aa(lp66
F36.880000000000003
aF37.310000000000002
aF37.299999999999997
aF37.100000000000001
aF37.100000000000001
aI464300
aa(lp67
F36.390000000000001
aF37.25
aF36.390000000000001
aF36.869999999999997
aF36.869999999999997
aI631600
aa(lp68
F35.700000000000003
aF36.799999999999997
aF35.899999999999999
aF36.390000000000001
aF36.390000000000001
aI497700
aa(lp69
F35.299999999999997
aF35.880000000000003
aF35.789999999999999
aF35.689999999999998
aF35.689999999999998
aI474600
aa(lp70
F35.18
aF35.740000000000002
aF35.18
aF35.689999999999998
aF35.689999999999998
aI369600
aa(lp71
F35.020000000000003
aF35.979999999999997
aF35.299999999999997
aF35.140000000000001
aF35.140000000000001
aI336100
aa(lp72
F35.5
aF37.170000000000002
aF36.880000000000003
aF35.530000000000001
aF35.530000000000001
aI672300
aa(lp73
F36.700000000000003
aF37.880000000000003
aF37.869999999999997
aF36.75
aF36.75
aI700500
aa(lp74
F37.32
aF37.979999999999997
aF37.780000000000001
aF37.380000000000003
aF37.380000000000003
aI532600
aa(lp75
F36.399999999999999
aF38.039999999999999
aF36.5
aF37.890000000000001
aF37.890000000000001
aI969900
aa(lp76
F36.189999999999998
aF37.18
aF36.399999999999999
aF36.530000000000001
aF36.530000000000001
aI576800
aa(lp77
F36.899999999999999
aF38.600000000000001
aF38.07
aF36.909999999999997
aF36.909999999999997
aI911000
aa(lp78
F38.039999999999999
aF38.969999999999999
aF38.299999999999997
aF38.149999999999999
aF38.149999999999999
aI704700
aa(lp79
F38
aF39.600000000000001
aF38.799999999999997
aF38.619999999999997
aF38.619999999999997
aI1053400
aa(lp80
F38.840000000000003
aF39.950000000000003
aF39.039999999999999
aF39.189999999999998
aF39.189999999999998
aI1169800
aa(lp81
F38.640000000000001
aF39.5
aF39.5
aF39.009999999999998
aF39.009999999999998
aI1237300
aa(lp82
F39.450000000000003
aF40.850000000000001
aF40.600000000000001
aF39.509999999999998
aF39.509999999999998
aI2728800
aa(lp83
F38.310000000000002
aF40.880000000000003
aF38.530000000000001
aF40.079999999999998
aF40.079999999999998
aI2796800
aa(lp84
F38.359999999999999
aF40.479999999999997
aF40.479999999999997
aF38.82
aF38.82
aI3019300
aa(lp85
F35.240000000000002
aF39.380000000000003
aF35.5
aF39.380000000000003
aF39.380000000000003
aI3797200
aa(lp86
F33.909999999999997
aF37.700000000000003
aF34.5
aF35.799999999999997
aF35.799999999999997
aI2155800
aa(lp87
F33.799999999999997
aF35.100000000000001
aF34
aF34.799999999999997
aF34.799999999999997
aI818200
aa(lp88
F33
aF35.380000000000003
aF34.100000000000001
aF34.350000000000001
aF34.350000000000001
aI827200
aa(lp89
F33.880000000000003
aF34.850000000000001
aF34.850000000000001
aF34.020000000000003
aF34.020000000000003
aI519500
aa(lp90
F33.520000000000003
aF35.5
aF33.649999999999999
aF34.82
aF34.82
aI825300
aa(lp91
F33.700000000000003
aF35.899999999999999
aF35.899999999999999
aF33.829999999999998
aF33.829999999999998
aI976000
aa(lp92
F35.479999999999997
aF36.469999999999999
aF35.75
aF35.549999999999997
aF35.549999999999997
aI823800
aa(lp93
F35.609999999999999
aF36.630000000000003
aF35.960000000000001
aF35.719999999999999
aF35.719999999999999
aI881600
aa(lp94
F35.5
aF36.740000000000002
aF36.740000000000002
aF35.950000000000003
aF35.950000000000003
aI1133500
aa(lp95
F35.329999999999998
aF37.640000000000001
aF35.399999999999999
aF37.079999999999998
aF37.079999999999998
aI1421100
aa(lp96
F35.329999999999998
aF36.399999999999999
aF36.399999999999999
aF35.950000000000003
aF35.950000000000003
aI1267000
aa(lp97
F37.32
aF37.32
aF37.32
aF37.32
aF37.32
aI0
aa(lp98
F37.32
aF37.32
aF37.32
aF37.32
aF37.32
aI0
aa(lp99
F36.75
aF37.799999999999997
aF37.799999999999997
aF37.32
aF37.32
aI1298500
aa(lp100
F36.5
aF39.689999999999998
aF36.5
aF38.18
aF38.18
aI2230400
aa(lp101
F35.789999999999999
aF37.329999999999998
aF37
aF37.090000000000003
aF37.090000000000003
aI1207400
aa(lp102
F36.780000000000001
aF37.799999999999997
aF37.299999999999997
aF37.579999999999998
aF37.579999999999998
aI1750700
aa(lp103
F36.759999999999998
aF39.5
aF39.5
aF37.799999999999997
aF37.799999999999997
aI2841100
aa(lp104
F34.969999999999999
aF38.469999999999999
aF35
aF38.469999999999999
aF38.469999999999999
aI3096900
aa(lp105
F32.200000000000003
aF35.350000000000001
aF32.340000000000003
aF34.969999999999999
aF34.969999999999999
aI2026100
aa(lp106
F32.490000000000002
aF35.979999999999997
aF35.979999999999997
aF32.579999999999998
aF32.579999999999998
aI1798100
aa(lp107
F35.609999999999999
aF38.399999999999999
aF38.149999999999999
aF35.969999999999999
aF35.969999999999999
aI2004200
aa(lp108
F38.380000000000003
aF39.689999999999998
aF38.75
aF38.390000000000001
aF38.390000000000001
aI979000
aa(lp109
F38.579999999999998
aF40.409999999999997
aF40.020000000000003
aF38.810000000000002
aF38.810000000000002
aI1272400
aa(lp110
F40.200000000000003
aF41.090000000000003
aF41.090000000000003
aF40.399999999999999
aF40.399999999999999
aI1120400
aa(lp111
F40.520000000000003
aF41.369999999999997
aF41.149999999999999
aF41.170000000000002
aF41.170000000000002
aI939000
aa(lp112
F40.810000000000002
aF41.990000000000002
aF41.670000000000002
aF41.149999999999999
aF41.149999999999999
aI1283100
aa(lp113
F39.310000000000002
aF42.759999999999998
aF40
aF41.909999999999997
aF41.909999999999997
aI1933400
aa(lp114
F38.159999999999997
aF40.579999999999998
aF39.200000000000003
aF40.219999999999999
aF40.219999999999999
aI1568500
aa(lp115
F39.009999999999998
aF43.950000000000003
aF43.200000000000003
aF39.159999999999997
aF39.159999999999997
aI2565500
aa(lp116
F43
aF44.350000000000001
aF44.32
aF43.240000000000002
aF43.240000000000002
aI2352600
aa(lp117
F44
aF47.420000000000002
aF47.399999999999999
aF44.799999999999997
aF44.799999999999997
aI3065600
aa(lp118
F47.310000000000002
aF48.399999999999999
aF48
aF47.640000000000001
aF47.640000000000001
aI2148200
aa(lp119
F47.200000000000003
aF50.75
aF49.600000000000001
aF47.859999999999999
aF47.859999999999999
aI3269800
aa(lp120
F47.82
aF51.630000000000003
aF48.200000000000003
aF49.68
aF49.68
aI4154500
aa(lp121
F46.299999999999997
aF49.390000000000001
aF46.649999999999999
aF48.590000000000003
aF48.590000000000003
aI3885900
aa(lp122
F46.5
aF47.969999999999999
aF47.380000000000003
aF46.939999999999998
aF46.939999999999998
aI2658500
aa(lp123
F47.390000000000001
aF48.75
aF48.289999999999999
aF47.659999999999997
aF47.659999999999997
aI2763400
aa(lp124
F47.020000000000003
aF48.299999999999997
aF47.240000000000002
aF48.020000000000003
aF48.020000000000003
aI2715600
aa(lp125
F46.700000000000003
aF49.700000000000003
aF49.700000000000003
aF47.560000000000002
aF47.560000000000002
aI4961700
aa(lp126
F49.479999999999997
aF51.380000000000003
aF50.009999999999998
aF49.979999999999997
aF49.979999999999997
aI4680700
aa(lp127
F50.399999999999999
aF53.979999999999997
aF52.549999999999997
aF50.670000000000002
aF50.670000000000002
aI8137300
aa(lp128
F46.340000000000003
aF52.549999999999997
aF46.710000000000001
aF52.549999999999997
aF52.549999999999997
aI8629600
aa(lp129
F45.5
aF48.780000000000001
aF47
aF47.770000000000003
aF47.770000000000003
aI5515000
aa(lp130
F47
aF51.119999999999997
aF49.600000000000001
aF47.75
aF47.75
aI9200400
aa(lp131
F47.049999999999997
aF50.530000000000001
aF50.530000000000001
aF50.530000000000001
aF50.530000000000001
aI10937200
aa(lp132
F45.939999999999998
aF45.939999999999998
aF45.939999999999998
aF45.939999999999998
aF45.939999999999998
aI325900
aa(lp133
F41.759999999999998
aF41.759999999999998
aF41.759999999999998
aF41.759999999999998
aF41.759999999999998
aI92500
aa(lp134
F37.960000000000001
aF37.960000000000001
aF37.960000000000001
aF37.960000000000001
aF37.960000000000001
aI135600
aa(lp135
F34.509999999999998
aF34.509999999999998
aF34.509999999999998
aF34.509999999999998
aF34.509999999999998
aI88400
aa(lp136
F31.370000000000001
aF31.370000000000001
aF31.370000000000001
aF31.370000000000001
aF31.370000000000001
aI38000
aa(lp137
F28.52
aF28.52
aF28.52
aF28.52
aF28.52
aI21100
aa(lp138
F25.93
aF25.93
aF25.93
aF25.93
aF25.93
aI20500
aa(lp139
F23.57
aF23.57
aF23.57
aF23.57
aF23.57
aI5800
aa(lp140
F21.43
aF21.43
aF21.43
aF21.43
aF21.43
aI40500
aa.